
table.elf:     file format elf32-littlearm

Sections:
Idx Name          Size      VMA       LMA       File off  Algn
  0 .isr_vector   0000010c  08000000  08000000  00001000  2**0
                  CONTENTS, ALLOC, LOAD, READONLY, DATA
  1 .text         00006f34  0800010c  0800010c  0000110c  2**2
                  CONTENTS, ALLOC, LOAD, READONLY, CODE
  2 .rodata       000001c8  08007040  08007040  00008040  2**2
                  CONTENTS, ALLOC, LOAD, READONLY, DATA
  3 .ARM.extab    00000000  08007208  08007208  0000907c  2**0
                  CONTENTS, READONLY
  4 .ARM          00000000  08007208  08007208  0000907c  2**0
                  CONTENTS, READONLY
  5 .preinit_array 00000000  08007208  08007208  0000907c  2**0
                  CONTENTS, ALLOC, LOAD, DATA
  6 .init_array   00000004  08007208  08007208  00008208  2**2
                  CONTENTS, ALLOC, LOAD, READONLY, DATA
  7 .fini_array   00000004  0800720c  0800720c  0000820c  2**2
                  CONTENTS, ALLOC, LOAD, READONLY, DATA
  8 .data         0000007c  20000000  08007210  00009000  2**2
                  CONTENTS, ALLOC, LOAD, DATA
  9 .bss          000004dc  2000007c  0800728c  0000907c  2**2
                  ALLOC
 10 ._user_heap_stack 00000600  20000558  0800728c  00009558  2**0
                  ALLOC
 11 .ARM.attributes 00000029  00000000  00000000  0000907c  2**0
                  CONTENTS, READONLY
 12 .debug_info   0000ebf7  00000000  00000000  000090a5  2**0
                  CONTENTS, READONLY, DEBUGGING, OCTETS
 13 .debug_abbrev 000029e1  00000000  00000000  00017c9c  2**0
                  CONTENTS, READONLY, DEBUGGING, OCTETS
 14 .debug_aranges 00000eb0  00000000  00000000  0001a680  2**3
                  CONTENTS, READONLY, DEBUGGING, OCTETS
 15 .debug_rnglists 00000b70  00000000  00000000  0001b530  2**0
                  CONTENTS, READONLY, DEBUGGING, OCTETS
 16 .debug_macro  000195ed  00000000  00000000  0001c0a0  2**0
                  CONTENTS, READONLY, DEBUGGING, OCTETS
 17 .debug_line   0001239d  00000000  00000000  0003568d  2**0
                  CONTENTS, READONLY, DEBUGGING, OCTETS
 18 .debug_str    0008ab12  00000000  00000000  00047a2a  2**0
                  CONTENTS, READONLY, DEBUGGING, OCTETS
 19 .comment      00000043  00000000  00000000  000d253c  2**0
                  CONTENTS, READONLY
 20 .debug_frame  00004528  00000000  00000000  000d2580  2**2
                  CONTENTS, READONLY, DEBUGGING, OCTETS
 21 .debug_line_str 00000044  00000000  00000000  000d6aa8  2**0
                  CONTENTS, READONLY, DEBUGGING, OCTETS

Disassembly of section .text:

0800010c <__do_global_dtors_aux>:
 800010c:	b510      	push	{r4, lr}
 800010e:	4c05      	ldr	r4, [pc, #20]	@ (8000124 <__do_global_dtors_aux+0x18>)
 8000110:	7823      	ldrb	r3, [r4, #0]
 8000112:	b933      	cbnz	r3, 8000122 <__do_global_dtors_aux+0x16>
 8000114:	4b04      	ldr	r3, [pc, #16]	@ (8000128 <__do_global_dtors_aux+0x1c>)
 8000116:	b113      	cbz	r3, 800011e <__do_global_dtors_aux+0x12>
 8000118:	4804      	ldr	r0, [pc, #16]	@ (800012c <__do_global_dtors_aux+0x20>)
 800011a:	f3af 8000 	nop.w
 800011e:	2301      	movs	r3, #1
 8000120:	7023      	strb	r3, [r4, #0]
 8000122:	bd10      	pop	{r4, pc}
 8000124:	2000007c 	.word	0x2000007c
 8000128:	00000000 	.word	0x00000000
 800012c:	08007028 	.word	0x08007028

08000130 <frame_dummy>:
 8000130:	b508      	push	{r3, lr}
 8000132:	4b03      	ldr	r3, [pc, #12]	@ (8000140 <frame_dummy+0x10>)
 8000134:	b11b      	cbz	r3, 800013e <frame_dummy+0xe>
 8000136:	4903      	ldr	r1, [pc, #12]	@ (8000144 <frame_dummy+0x14>)
 8000138:	4803      	ldr	r0, [pc, #12]	@ (8000148 <frame_dummy+0x18>)
 800013a:	f3af 8000 	nop.w
 800013e:	bd08      	pop	{r3, pc}
 8000140:	00000000 	.word	0x00000000
 8000144:	20000080 	.word	0x20000080
 8000148:	08007028 	.word	0x08007028

0800014c <IsCollisionSignature>:
 *   byte[4]  : 0x15 / 0x16
 *   byte[17] : 0x0F  (sensor frame has 0x02 here -> rejected)
 *   byte[20] : 0x4E  (sensor frame has 0x43 here -> rejected)
 * ------------------------------------------------------------------ */
static uint8_t IsCollisionSignature(const uint8_t *buf)
{
 800014c:	b480      	push	{r7}
 800014e:	b083      	sub	sp, #12
 8000150:	af00      	add	r7, sp, #0
 8000152:	6078      	str	r0, [r7, #4]
    if(buf[4] != COLLISION_ALERT_TAG && buf[4] != COLLISION_CLEAR_TAG) return 0;
 8000154:	687b      	ldr	r3, [r7, #4]
 8000156:	3304      	adds	r3, #4
 8000158:	781b      	ldrb	r3, [r3, #0]
 800015a:	2b16      	cmp	r3, #22
 800015c:	d006      	beq.n	800016c <IsCollisionSignature+0x20>
 800015e:	687b      	ldr	r3, [r7, #4]
 8000160:	3304      	adds	r3, #4
 8000162:	781b      	ldrb	r3, [r3, #0]
 8000164:	2b15      	cmp	r3, #21
 8000166:	d001      	beq.n	800016c <IsCollisionSignature+0x20>
 8000168:	2300      	movs	r3, #0
 800016a:	e013      	b.n	8000194 <IsCollisionSignature+0x48>
    if(buf[17] != COLLISION_MARKER) return 0;
 800016c:	687b      	ldr	r3, [r7, #4]
 800016e:	3311      	adds	r3, #17
 8000170:	781b      	ldrb	r3, [r3, #0]
 8000172:	2b0f      	cmp	r3, #15
 8000174:	d001      	beq.n	800017a <IsCollisionSignature+0x2e>
 8000176:	2300      	movs	r3, #0
 8000178:	e00c      	b.n	8000194 <IsCollisionSignature+0x48>
    if(buf[20] != COLLISION_TAIL_A && buf[20] != COLLISION_TAIL_B) return 0;
 800017a:	687b      	ldr	r3, [r7, #4]
 800017c:	3314      	adds	r3, #20
 800017e:	781b      	ldrb	r3, [r3, #0]
 8000180:	2b4e      	cmp	r3, #78	@ 0x4e
 8000182:	d006      	beq.n	8000192 <IsCollisionSignature+0x46>
 8000184:	687b      	ldr	r3, [r7, #4]
 8000186:	3314      	adds	r3, #20
 8000188:	781b      	ldrb	r3, [r3, #0]
 800018a:	2b4f      	cmp	r3, #79	@ 0x4f
 800018c:	d001      	beq.n	8000192 <IsCollisionSignature+0x46>
 800018e:	2300      	movs	r3, #0
 8000190:	e000      	b.n	8000194 <IsCollisionSignature+0x48>
    return 1;
 8000192:	2301      	movs	r3, #1
}
 8000194:	4618      	mov	r0, r3
 8000196:	370c      	adds	r7, #12
 8000198:	46bd      	mov	sp, r7
 800019a:	bc80      	pop	{r7}
 800019c:	4770      	bx	lr
	...

080001a0 <ApplyCollisionFrame>:

static void ApplyCollisionFrame(const uint8_t *buf)
{
 80001a0:	b480      	push	{r7}
 80001a2:	b085      	sub	sp, #20
 80001a4:	af00      	add	r7, sp, #0
 80001a6:	6078      	str	r0, [r7, #4]
    if(buf[4] == COLLISION_ALERT_TAG)      g_collisionActive = 1;
 80001a8:	687b      	ldr	r3, [r7, #4]
 80001aa:	3304      	adds	r3, #4
 80001ac:	781b      	ldrb	r3, [r3, #0]
 80001ae:	2b16      	cmp	r3, #22
 80001b0:	d103      	bne.n	80001ba <ApplyCollisionFrame+0x1a>
 80001b2:	4b14      	ldr	r3, [pc, #80]	@ (8000204 <ApplyCollisionFrame+0x64>)
 80001b4:	2201      	movs	r2, #1
 80001b6:	701a      	strb	r2, [r3, #0]
 80001b8:	e007      	b.n	80001ca <ApplyCollisionFrame+0x2a>
    else if(buf[4] == COLLISION_CLEAR_TAG) g_collisionActive = 0;
 80001ba:	687b      	ldr	r3, [r7, #4]
 80001bc:	3304      	adds	r3, #4
 80001be:	781b      	ldrb	r3, [r3, #0]
 80001c0:	2b15      	cmp	r3, #21
 80001c2:	d102      	bne.n	80001ca <ApplyCollisionFrame+0x2a>
 80001c4:	4b0f      	ldr	r3, [pc, #60]	@ (8000204 <ApplyCollisionFrame+0x64>)
 80001c6:	2200      	movs	r2, #0
 80001c8:	701a      	strb	r2, [r3, #0]

    for(uint8_t i = 0; i < COLLISION_PACKET_SIZE; i++)
 80001ca:	2300      	movs	r3, #0
 80001cc:	73fb      	strb	r3, [r7, #15]
 80001ce:	e009      	b.n	80001e4 <ApplyCollisionFrame+0x44>
        dbg_ac_last_packet[i] = buf[i];
 80001d0:	7bfb      	ldrb	r3, [r7, #15]
 80001d2:	687a      	ldr	r2, [r7, #4]
 80001d4:	441a      	add	r2, r3
 80001d6:	7bfb      	ldrb	r3, [r7, #15]
 80001d8:	7811      	ldrb	r1, [r2, #0]
 80001da:	4a0b      	ldr	r2, [pc, #44]	@ (8000208 <ApplyCollisionFrame+0x68>)
 80001dc:	54d1      	strb	r1, [r2, r3]
    for(uint8_t i = 0; i < COLLISION_PACKET_SIZE; i++)
 80001de:	7bfb      	ldrb	r3, [r7, #15]
 80001e0:	3301      	adds	r3, #1
 80001e2:	73fb      	strb	r3, [r7, #15]
 80001e4:	7bfb      	ldrb	r3, [r7, #15]
 80001e6:	2b14      	cmp	r3, #20
 80001e8:	d9f2      	bls.n	80001d0 <ApplyCollisionFrame+0x30>
    dbg_ac_packet_ok++;
 80001ea:	4b08      	ldr	r3, [pc, #32]	@ (800020c <ApplyCollisionFrame+0x6c>)
 80001ec:	781b      	ldrb	r3, [r3, #0]
 80001ee:	b2db      	uxtb	r3, r3
 80001f0:	3301      	adds	r3, #1
 80001f2:	b2da      	uxtb	r2, r3
 80001f4:	4b05      	ldr	r3, [pc, #20]	@ (800020c <ApplyCollisionFrame+0x6c>)
 80001f6:	701a      	strb	r2, [r3, #0]
}
 80001f8:	bf00      	nop
 80001fa:	3714      	adds	r7, #20
 80001fc:	46bd      	mov	sp, r7
 80001fe:	bc80      	pop	{r7}
 8000200:	4770      	bx	lr
 8000202:	bf00      	nop
 8000204:	200000ef 	.word	0x200000ef
 8000208:	200000f8 	.word	0x200000f8
 800020c:	200000f0 	.word	0x200000f0

08000210 <ACTION_COMM_Init>:

/* ================= INIT ================= */

void ACTION_COMM_Init(UART_HandleTypeDef *huart_bt,
                      UART_HandleTypeDef *huart_act)
{
 8000210:	b580      	push	{r7, lr}
 8000212:	b082      	sub	sp, #8
 8000214:	af00      	add	r7, sp, #0
 8000216:	6078      	str	r0, [r7, #4]
 8000218:	6039      	str	r1, [r7, #0]
    uart_bt  = huart_bt;
 800021a:	4a16      	ldr	r2, [pc, #88]	@ (8000274 <ACTION_COMM_Init+0x64>)
 800021c:	687b      	ldr	r3, [r7, #4]
 800021e:	6013      	str	r3, [r2, #0]
    uart_act = huart_act;
 8000220:	4a15      	ldr	r2, [pc, #84]	@ (8000278 <ACTION_COMM_Init+0x68>)
 8000222:	683b      	ldr	r3, [r7, #0]
 8000224:	6013      	str	r3, [r2, #0]
    packetIndex = 0; headerState = 0;
 8000226:	4b15      	ldr	r3, [pc, #84]	@ (800027c <ACTION_COMM_Init+0x6c>)
 8000228:	2200      	movs	r2, #0
 800022a:	701a      	strb	r2, [r3, #0]
 800022c:	4b14      	ldr	r3, [pc, #80]	@ (8000280 <ACTION_COMM_Init+0x70>)
 800022e:	2200      	movs	r2, #0
 8000230:	701a      	strb	r2, [r3, #0]
    pktIdxAct   = 0; hdrStateAct = 0;
 8000232:	4b14      	ldr	r3, [pc, #80]	@ (8000284 <ACTION_COMM_Init+0x74>)
 8000234:	2200      	movs	r2, #0
 8000236:	701a      	strb	r2, [r3, #0]
 8000238:	4b13      	ldr	r3, [pc, #76]	@ (8000288 <ACTION_COMM_Init+0x78>)
 800023a:	2200      	movs	r2, #0
 800023c:	701a      	strb	r2, [r3, #0]

    if(uart_bt  != NULL) HAL_UART_Receive_IT(uart_bt,  &rxByte,    1);
 800023e:	4b0d      	ldr	r3, [pc, #52]	@ (8000274 <ACTION_COMM_Init+0x64>)
 8000240:	681b      	ldr	r3, [r3, #0]
 8000242:	2b00      	cmp	r3, #0
 8000244:	d006      	beq.n	8000254 <ACTION_COMM_Init+0x44>
 8000246:	4b0b      	ldr	r3, [pc, #44]	@ (8000274 <ACTION_COMM_Init+0x64>)
 8000248:	681b      	ldr	r3, [r3, #0]
 800024a:	2201      	movs	r2, #1
 800024c:	490f      	ldr	r1, [pc, #60]	@ (800028c <ACTION_COMM_Init+0x7c>)
 800024e:	4618      	mov	r0, r3
 8000250:	f005 f94f 	bl	80054f2 <HAL_UART_Receive_IT>
    if(uart_act != NULL) HAL_UART_Receive_IT(uart_act, &rxByteAct, 1);
 8000254:	4b08      	ldr	r3, [pc, #32]	@ (8000278 <ACTION_COMM_Init+0x68>)
 8000256:	681b      	ldr	r3, [r3, #0]
 8000258:	2b00      	cmp	r3, #0
 800025a:	d006      	beq.n	800026a <ACTION_COMM_Init+0x5a>
 800025c:	4b06      	ldr	r3, [pc, #24]	@ (8000278 <ACTION_COMM_Init+0x68>)
 800025e:	681b      	ldr	r3, [r3, #0]
 8000260:	2201      	movs	r2, #1
 8000262:	490b      	ldr	r1, [pc, #44]	@ (8000290 <ACTION_COMM_Init+0x80>)
 8000264:	4618      	mov	r0, r3
 8000266:	f005 f944 	bl	80054f2 <HAL_UART_Receive_IT>
}
 800026a:	bf00      	nop
 800026c:	3708      	adds	r7, #8
 800026e:	46bd      	mov	sp, r7
 8000270:	bd80      	pop	{r7, pc}
 8000272:	bf00      	nop
 8000274:	20000098 	.word	0x20000098
 8000278:	2000009c 	.word	0x2000009c
 800027c:	200000d1 	.word	0x200000d1
 8000280:	200000d2 	.word	0x200000d2
 8000284:	200000ed 	.word	0x200000ed
 8000288:	200000ee 	.word	0x200000ee
 800028c:	200000b4 	.word	0x200000b4
 8000290:	200000d3 	.word	0x200000d3

08000294 <SendPacket>:
}

/* ================= SEND HELPERS ================= */

static void SendPacket(void)
{
 8000294:	b580      	push	{r7, lr}
 8000296:	af00      	add	r7, sp, #0
    if (uart_bt != NULL)
 8000298:	4b12      	ldr	r3, [pc, #72]	@ (80002e4 <SendPacket+0x50>)
 800029a:	681b      	ldr	r3, [r3, #0]
 800029c:	2b00      	cmp	r3, #0
 800029e:	d007      	beq.n	80002b0 <SendPacket+0x1c>
        HAL_UART_Transmit(uart_bt, txPacket, PACKET_SIZE, HAL_MAX_DELAY);
 80002a0:	4b10      	ldr	r3, [pc, #64]	@ (80002e4 <SendPacket+0x50>)
 80002a2:	6818      	ldr	r0, [r3, #0]
 80002a4:	f04f 33ff 	mov.w	r3, #4294967295
 80002a8:	2210      	movs	r2, #16
 80002aa:	490f      	ldr	r1, [pc, #60]	@ (80002e8 <SendPacket+0x54>)
 80002ac:	f005 f896 	bl	80053dc <HAL_UART_Transmit>
    if (uart_act != NULL)
 80002b0:	4b0e      	ldr	r3, [pc, #56]	@ (80002ec <SendPacket+0x58>)
 80002b2:	681b      	ldr	r3, [r3, #0]
 80002b4:	2b00      	cmp	r3, #0
 80002b6:	d007      	beq.n	80002c8 <SendPacket+0x34>
        HAL_UART_Transmit(uart_act, txPacket, PACKET_SIZE, HAL_MAX_DELAY);
 80002b8:	4b0c      	ldr	r3, [pc, #48]	@ (80002ec <SendPacket+0x58>)
 80002ba:	6818      	ldr	r0, [r3, #0]
 80002bc:	f04f 33ff 	mov.w	r3, #4294967295
 80002c0:	2210      	movs	r2, #16
 80002c2:	4909      	ldr	r1, [pc, #36]	@ (80002e8 <SendPacket+0x54>)
 80002c4:	f005 f88a 	bl	80053dc <HAL_UART_Transmit>
    if (uart_screen != NULL)
 80002c8:	4b09      	ldr	r3, [pc, #36]	@ (80002f0 <SendPacket+0x5c>)
 80002ca:	681b      	ldr	r3, [r3, #0]
 80002cc:	2b00      	cmp	r3, #0
 80002ce:	d007      	beq.n	80002e0 <SendPacket+0x4c>
        HAL_UART_Transmit(uart_screen, txPacket, PACKET_SIZE, HAL_MAX_DELAY);
 80002d0:	4b07      	ldr	r3, [pc, #28]	@ (80002f0 <SendPacket+0x5c>)
 80002d2:	6818      	ldr	r0, [r3, #0]
 80002d4:	f04f 33ff 	mov.w	r3, #4294967295
 80002d8:	2210      	movs	r2, #16
 80002da:	4903      	ldr	r1, [pc, #12]	@ (80002e8 <SendPacket+0x54>)
 80002dc:	f005 f87e 	bl	80053dc <HAL_UART_Transmit>
}
 80002e0:	bf00      	nop
 80002e2:	bd80      	pop	{r7, pc}
 80002e4:	20000098 	.word	0x20000098
 80002e8:	200000a4 	.word	0x200000a4
 80002ec:	2000009c 	.word	0x2000009c
 80002f0:	200000a0 	.word	0x200000a0

080002f4 <ACTION_SendCommand>:

void ACTION_SendCommand(uint8_t cmd)
{
 80002f4:	b590      	push	{r4, r7, lr}
 80002f6:	b083      	sub	sp, #12
 80002f8:	af00      	add	r7, sp, #0
 80002fa:	4603      	mov	r3, r0
 80002fc:	71fb      	strb	r3, [r7, #7]
    memcpy(txPacket, basePacket, PACKET_SIZE);
 80002fe:	4a07      	ldr	r2, [pc, #28]	@ (800031c <ACTION_SendCommand+0x28>)
 8000300:	4b07      	ldr	r3, [pc, #28]	@ (8000320 <ACTION_SendCommand+0x2c>)
 8000302:	4614      	mov	r4, r2
 8000304:	cb0f      	ldmia	r3, {r0, r1, r2, r3}
 8000306:	e884 000f 	stmia.w	r4, {r0, r1, r2, r3}
    txPacket[3] = cmd;
 800030a:	4a04      	ldr	r2, [pc, #16]	@ (800031c <ACTION_SendCommand+0x28>)
 800030c:	79fb      	ldrb	r3, [r7, #7]
 800030e:	70d3      	strb	r3, [r2, #3]
    SendPacket();
 8000310:	f7ff ffc0 	bl	8000294 <SendPacket>
}
 8000314:	bf00      	nop
 8000316:	370c      	adds	r7, #12
 8000318:	46bd      	mov	sp, r7
 800031a:	bd90      	pop	{r4, r7, pc}
 800031c:	200000a4 	.word	0x200000a4
 8000320:	08007040 	.word	0x08007040

08000324 <ACTION_SendMemory>:

void ACTION_SendMemory(uint8_t slot, uint8_t action)
{
 8000324:	b590      	push	{r4, r7, lr}
 8000326:	b083      	sub	sp, #12
 8000328:	af00      	add	r7, sp, #0
 800032a:	4603      	mov	r3, r0
 800032c:	460a      	mov	r2, r1
 800032e:	71fb      	strb	r3, [r7, #7]
 8000330:	4613      	mov	r3, r2
 8000332:	71bb      	strb	r3, [r7, #6]
    if (slot < 1 || slot > 5) return;
 8000334:	79fb      	ldrb	r3, [r7, #7]
 8000336:	2b00      	cmp	r3, #0
 8000338:	d022      	beq.n	8000380 <ACTION_SendMemory+0x5c>
 800033a:	79fb      	ldrb	r3, [r7, #7]
 800033c:	2b05      	cmp	r3, #5
 800033e:	d81f      	bhi.n	8000380 <ACTION_SendMemory+0x5c>
    if (action != 1 && action != 2) return;
 8000340:	79bb      	ldrb	r3, [r7, #6]
 8000342:	2b01      	cmp	r3, #1
 8000344:	d002      	beq.n	800034c <ACTION_SendMemory+0x28>
 8000346:	79bb      	ldrb	r3, [r7, #6]
 8000348:	2b02      	cmp	r3, #2
 800034a:	d11b      	bne.n	8000384 <ACTION_SendMemory+0x60>
    memcpy(txPacket, basePacket, PACKET_SIZE);
 800034c:	4a0f      	ldr	r2, [pc, #60]	@ (800038c <ACTION_SendMemory+0x68>)
 800034e:	4b10      	ldr	r3, [pc, #64]	@ (8000390 <ACTION_SendMemory+0x6c>)
 8000350:	4614      	mov	r4, r2
 8000352:	cb0f      	ldmia	r3, {r0, r1, r2, r3}
 8000354:	e884 000f 	stmia.w	r4, {r0, r1, r2, r3}
    txPacket[3]  = 0x26;
 8000358:	4b0c      	ldr	r3, [pc, #48]	@ (800038c <ACTION_SendMemory+0x68>)
 800035a:	2226      	movs	r2, #38	@ 0x26
 800035c:	70da      	strb	r2, [r3, #3]
    txPacket[4]  = (slot << 4) | action;
 800035e:	f997 3007 	ldrsb.w	r3, [r7, #7]
 8000362:	011b      	lsls	r3, r3, #4
 8000364:	b25a      	sxtb	r2, r3
 8000366:	f997 3006 	ldrsb.w	r3, [r7, #6]
 800036a:	4313      	orrs	r3, r2
 800036c:	b25b      	sxtb	r3, r3
 800036e:	b2da      	uxtb	r2, r3
 8000370:	4b06      	ldr	r3, [pc, #24]	@ (800038c <ACTION_SendMemory+0x68>)
 8000372:	711a      	strb	r2, [r3, #4]
    txPacket[14] = 0x12;
 8000374:	4b05      	ldr	r3, [pc, #20]	@ (800038c <ACTION_SendMemory+0x68>)
 8000376:	2212      	movs	r2, #18
 8000378:	739a      	strb	r2, [r3, #14]
    SendPacket();
 800037a:	f7ff ff8b 	bl	8000294 <SendPacket>
 800037e:	e002      	b.n	8000386 <ACTION_SendMemory+0x62>
    if (slot < 1 || slot > 5) return;
 8000380:	bf00      	nop
 8000382:	e000      	b.n	8000386 <ACTION_SendMemory+0x62>
    if (action != 1 && action != 2) return;
 8000384:	bf00      	nop
}
 8000386:	370c      	adds	r7, #12
 8000388:	46bd      	mov	sp, r7
 800038a:	bd90      	pop	{r4, r7, pc}
 800038c:	200000a4 	.word	0x200000a4
 8000390:	08007040 	.word	0x08007040

08000394 <ACTION_SendGoBackLevel>:

void ACTION_SendGoBackLevel(void)
{
 8000394:	b598      	push	{r3, r4, r7, lr}
 8000396:	af00      	add	r7, sp, #0
    memcpy(txPacket, basePacket, PACKET_SIZE);
 8000398:	4a09      	ldr	r2, [pc, #36]	@ (80003c0 <ACTION_SendGoBackLevel+0x2c>)
 800039a:	4b0a      	ldr	r3, [pc, #40]	@ (80003c4 <ACTION_SendGoBackLevel+0x30>)
 800039c:	4614      	mov	r4, r2
 800039e:	cb0f      	ldmia	r3, {r0, r1, r2, r3}
 80003a0:	e884 000f 	stmia.w	r4, {r0, r1, r2, r3}
    txPacket[3]  = 0x00;
 80003a4:	4b06      	ldr	r3, [pc, #24]	@ (80003c0 <ACTION_SendGoBackLevel+0x2c>)
 80003a6:	2200      	movs	r2, #0
 80003a8:	70da      	strb	r2, [r3, #3]
    txPacket[4]  = 0x01;
 80003aa:	4b05      	ldr	r3, [pc, #20]	@ (80003c0 <ACTION_SendGoBackLevel+0x2c>)
 80003ac:	2201      	movs	r2, #1
 80003ae:	711a      	strb	r2, [r3, #4]
    txPacket[14] = 0x13;
 80003b0:	4b03      	ldr	r3, [pc, #12]	@ (80003c0 <ACTION_SendGoBackLevel+0x2c>)
 80003b2:	2213      	movs	r2, #19
 80003b4:	739a      	strb	r2, [r3, #14]
    SendPacket();
 80003b6:	f7ff ff6d 	bl	8000294 <SendPacket>
}
 80003ba:	bf00      	nop
 80003bc:	bd98      	pop	{r3, r4, r7, pc}
 80003be:	bf00      	nop
 80003c0:	200000a4 	.word	0x200000a4
 80003c4:	08007040 	.word	0x08007040

080003c8 <HAL_UART_RxCpltCallback>:

/* ================= RX CALLBACK ================= */

void HAL_UART_RxCpltCallback(UART_HandleTypeDef *huart)
{
 80003c8:	b580      	push	{r7, lr}
 80003ca:	b082      	sub	sp, #8
 80003cc:	af00      	add	r7, sp, #0
 80003ce:	6078      	str	r0, [r7, #4]
    if (huart == uart_bt)
 80003d0:	4b84      	ldr	r3, [pc, #528]	@ (80005e4 <HAL_UART_RxCpltCallback+0x21c>)
 80003d2:	681b      	ldr	r3, [r3, #0]
 80003d4:	687a      	ldr	r2, [r7, #4]
 80003d6:	429a      	cmp	r2, r3
 80003d8:	f040 8084 	bne.w	80004e4 <HAL_UART_RxCpltCallback+0x11c>
    {
        g_dbg_rx_bt++;
 80003dc:	4b82      	ldr	r3, [pc, #520]	@ (80005e8 <HAL_UART_RxCpltCallback+0x220>)
 80003de:	681b      	ldr	r3, [r3, #0]
 80003e0:	3301      	adds	r3, #1
 80003e2:	4a81      	ldr	r2, [pc, #516]	@ (80005e8 <HAL_UART_RxCpltCallback+0x220>)
 80003e4:	6013      	str	r3, [r2, #0]

        switch(headerState)
 80003e6:	4b81      	ldr	r3, [pc, #516]	@ (80005ec <HAL_UART_RxCpltCallback+0x224>)
 80003e8:	781b      	ldrb	r3, [r3, #0]
 80003ea:	2b02      	cmp	r3, #2
 80003ec:	d037      	beq.n	800045e <HAL_UART_RxCpltCallback+0x96>
 80003ee:	2b02      	cmp	r3, #2
 80003f0:	dc70      	bgt.n	80004d4 <HAL_UART_RxCpltCallback+0x10c>
 80003f2:	2b00      	cmp	r3, #0
 80003f4:	d002      	beq.n	80003fc <HAL_UART_RxCpltCallback+0x34>
 80003f6:	2b01      	cmp	r3, #1
 80003f8:	d00f      	beq.n	800041a <HAL_UART_RxCpltCallback+0x52>
 80003fa:	e06b      	b.n	80004d4 <HAL_UART_RxCpltCallback+0x10c>
        {
            case 0:
                if(rxByte == HEADER_BYTE1)
 80003fc:	4b7c      	ldr	r3, [pc, #496]	@ (80005f0 <HAL_UART_RxCpltCallback+0x228>)
 80003fe:	781b      	ldrb	r3, [r3, #0]
 8000400:	2b43      	cmp	r3, #67	@ 0x43
 8000402:	d164      	bne.n	80004ce <HAL_UART_RxCpltCallback+0x106>
                { packetBuffer[0]=rxByte; packetIndex=1; headerState=1; }
 8000404:	4b7a      	ldr	r3, [pc, #488]	@ (80005f0 <HAL_UART_RxCpltCallback+0x228>)
 8000406:	781a      	ldrb	r2, [r3, #0]
 8000408:	4b7a      	ldr	r3, [pc, #488]	@ (80005f4 <HAL_UART_RxCpltCallback+0x22c>)
 800040a:	701a      	strb	r2, [r3, #0]
 800040c:	4b7a      	ldr	r3, [pc, #488]	@ (80005f8 <HAL_UART_RxCpltCallback+0x230>)
 800040e:	2201      	movs	r2, #1
 8000410:	701a      	strb	r2, [r3, #0]
 8000412:	4b76      	ldr	r3, [pc, #472]	@ (80005ec <HAL_UART_RxCpltCallback+0x224>)
 8000414:	2201      	movs	r2, #1
 8000416:	701a      	strb	r2, [r3, #0]
                break;
 8000418:	e059      	b.n	80004ce <HAL_UART_RxCpltCallback+0x106>

            case 1:
                if(rxByte == HEADER_SENSOR)
 800041a:	4b75      	ldr	r3, [pc, #468]	@ (80005f0 <HAL_UART_RxCpltCallback+0x228>)
 800041c:	781b      	ldrb	r3, [r3, #0]
 800041e:	2b47      	cmp	r3, #71	@ 0x47
 8000420:	d10a      	bne.n	8000438 <HAL_UART_RxCpltCallback+0x70>
                { packetBuffer[1]=rxByte; packetIndex=2; headerState=2; }
 8000422:	4b73      	ldr	r3, [pc, #460]	@ (80005f0 <HAL_UART_RxCpltCallback+0x228>)
 8000424:	781a      	ldrb	r2, [r3, #0]
 8000426:	4b73      	ldr	r3, [pc, #460]	@ (80005f4 <HAL_UART_RxCpltCallback+0x22c>)
 8000428:	705a      	strb	r2, [r3, #1]
 800042a:	4b73      	ldr	r3, [pc, #460]	@ (80005f8 <HAL_UART_RxCpltCallback+0x230>)
 800042c:	2202      	movs	r2, #2
 800042e:	701a      	strb	r2, [r3, #0]
 8000430:	4b6e      	ldr	r3, [pc, #440]	@ (80005ec <HAL_UART_RxCpltCallback+0x224>)
 8000432:	2202      	movs	r2, #2
 8000434:	701a      	strb	r2, [r3, #0]
                else if(rxByte == HEADER_BYTE1)
                { packetBuffer[0]=rxByte; packetIndex=1; }
                else
                { headerState=0; packetIndex=0; }
                break;
 8000436:	e04d      	b.n	80004d4 <HAL_UART_RxCpltCallback+0x10c>
                else if(rxByte == HEADER_BYTE1)
 8000438:	4b6d      	ldr	r3, [pc, #436]	@ (80005f0 <HAL_UART_RxCpltCallback+0x228>)
 800043a:	781b      	ldrb	r3, [r3, #0]
 800043c:	2b43      	cmp	r3, #67	@ 0x43
 800043e:	d107      	bne.n	8000450 <HAL_UART_RxCpltCallback+0x88>
                { packetBuffer[0]=rxByte; packetIndex=1; }
 8000440:	4b6b      	ldr	r3, [pc, #428]	@ (80005f0 <HAL_UART_RxCpltCallback+0x228>)
 8000442:	781a      	ldrb	r2, [r3, #0]
 8000444:	4b6b      	ldr	r3, [pc, #428]	@ (80005f4 <HAL_UART_RxCpltCallback+0x22c>)
 8000446:	701a      	strb	r2, [r3, #0]
 8000448:	4b6b      	ldr	r3, [pc, #428]	@ (80005f8 <HAL_UART_RxCpltCallback+0x230>)
 800044a:	2201      	movs	r2, #1
 800044c:	701a      	strb	r2, [r3, #0]
                break;
 800044e:	e041      	b.n	80004d4 <HAL_UART_RxCpltCallback+0x10c>
                { headerState=0; packetIndex=0; }
 8000450:	4b66      	ldr	r3, [pc, #408]	@ (80005ec <HAL_UART_RxCpltCallback+0x224>)
 8000452:	2200      	movs	r2, #0
 8000454:	701a      	strb	r2, [r3, #0]
 8000456:	4b68      	ldr	r3, [pc, #416]	@ (80005f8 <HAL_UART_RxCpltCallback+0x230>)
 8000458:	2200      	movs	r2, #0
 800045a:	701a      	strb	r2, [r3, #0]
                break;
 800045c:	e03a      	b.n	80004d4 <HAL_UART_RxCpltCallback+0x10c>

            case 2:
                if(packetIndex < SENSOR_PACKET_SIZE) packetBuffer[packetIndex] = rxByte;
 800045e:	4b66      	ldr	r3, [pc, #408]	@ (80005f8 <HAL_UART_RxCpltCallback+0x230>)
 8000460:	781b      	ldrb	r3, [r3, #0]
 8000462:	2b18      	cmp	r3, #24
 8000464:	d806      	bhi.n	8000474 <HAL_UART_RxCpltCallback+0xac>
 8000466:	4b64      	ldr	r3, [pc, #400]	@ (80005f8 <HAL_UART_RxCpltCallback+0x230>)
 8000468:	781b      	ldrb	r3, [r3, #0]
 800046a:	461a      	mov	r2, r3
 800046c:	4b60      	ldr	r3, [pc, #384]	@ (80005f0 <HAL_UART_RxCpltCallback+0x228>)
 800046e:	7819      	ldrb	r1, [r3, #0]
 8000470:	4b60      	ldr	r3, [pc, #384]	@ (80005f4 <HAL_UART_RxCpltCallback+0x22c>)
 8000472:	5499      	strb	r1, [r3, r2]
                packetIndex++;
 8000474:	4b60      	ldr	r3, [pc, #384]	@ (80005f8 <HAL_UART_RxCpltCallback+0x230>)
 8000476:	781b      	ldrb	r3, [r3, #0]
 8000478:	3301      	adds	r3, #1
 800047a:	b2da      	uxtb	r2, r3
 800047c:	4b5e      	ldr	r3, [pc, #376]	@ (80005f8 <HAL_UART_RxCpltCallback+0x230>)
 800047e:	701a      	strb	r2, [r3, #0]

                if(packetIndex == COLLISION_PACKET_SIZE)
 8000480:	4b5d      	ldr	r3, [pc, #372]	@ (80005f8 <HAL_UART_RxCpltCallback+0x230>)
 8000482:	781b      	ldrb	r3, [r3, #0]
 8000484:	2b15      	cmp	r3, #21
 8000486:	d10f      	bne.n	80004a8 <HAL_UART_RxCpltCallback+0xe0>
                {
                    if(IsCollisionSignature(packetBuffer))
 8000488:	485a      	ldr	r0, [pc, #360]	@ (80005f4 <HAL_UART_RxCpltCallback+0x22c>)
 800048a:	f7ff fe5f 	bl	800014c <IsCollisionSignature>
 800048e:	4603      	mov	r3, r0
 8000490:	2b00      	cmp	r3, #0
 8000492:	d01e      	beq.n	80004d2 <HAL_UART_RxCpltCallback+0x10a>
                    {
                        ApplyCollisionFrame(packetBuffer);
 8000494:	4857      	ldr	r0, [pc, #348]	@ (80005f4 <HAL_UART_RxCpltCallback+0x22c>)
 8000496:	f7ff fe83 	bl	80001a0 <ApplyCollisionFrame>
                        packetIndex = 0; headerState = 0;
 800049a:	4b57      	ldr	r3, [pc, #348]	@ (80005f8 <HAL_UART_RxCpltCallback+0x230>)
 800049c:	2200      	movs	r2, #0
 800049e:	701a      	strb	r2, [r3, #0]
 80004a0:	4b52      	ldr	r3, [pc, #328]	@ (80005ec <HAL_UART_RxCpltCallback+0x224>)
 80004a2:	2200      	movs	r2, #0
 80004a4:	701a      	strb	r2, [r3, #0]
                {
                    Sensor_ParsePacket(&packetBuffer[2]);
                    g_dbg_sensor_ok++;
                    packetIndex = 0; headerState = 0;
                }
                break;
 80004a6:	e014      	b.n	80004d2 <HAL_UART_RxCpltCallback+0x10a>
                else if(packetIndex >= SENSOR_PACKET_SIZE)
 80004a8:	4b53      	ldr	r3, [pc, #332]	@ (80005f8 <HAL_UART_RxCpltCallback+0x230>)
 80004aa:	781b      	ldrb	r3, [r3, #0]
 80004ac:	2b18      	cmp	r3, #24
 80004ae:	d910      	bls.n	80004d2 <HAL_UART_RxCpltCallback+0x10a>
                    Sensor_ParsePacket(&packetBuffer[2]);
 80004b0:	4852      	ldr	r0, [pc, #328]	@ (80005fc <HAL_UART_RxCpltCallback+0x234>)
 80004b2:	f003 f87b 	bl	80035ac <Sensor_ParsePacket>
                    g_dbg_sensor_ok++;
 80004b6:	4b52      	ldr	r3, [pc, #328]	@ (8000600 <HAL_UART_RxCpltCallback+0x238>)
 80004b8:	681b      	ldr	r3, [r3, #0]
 80004ba:	3301      	adds	r3, #1
 80004bc:	4a50      	ldr	r2, [pc, #320]	@ (8000600 <HAL_UART_RxCpltCallback+0x238>)
 80004be:	6013      	str	r3, [r2, #0]
                    packetIndex = 0; headerState = 0;
 80004c0:	4b4d      	ldr	r3, [pc, #308]	@ (80005f8 <HAL_UART_RxCpltCallback+0x230>)
 80004c2:	2200      	movs	r2, #0
 80004c4:	701a      	strb	r2, [r3, #0]
 80004c6:	4b49      	ldr	r3, [pc, #292]	@ (80005ec <HAL_UART_RxCpltCallback+0x224>)
 80004c8:	2200      	movs	r2, #0
 80004ca:	701a      	strb	r2, [r3, #0]
                break;
 80004cc:	e001      	b.n	80004d2 <HAL_UART_RxCpltCallback+0x10a>
                break;
 80004ce:	bf00      	nop
 80004d0:	e000      	b.n	80004d4 <HAL_UART_RxCpltCallback+0x10c>
                break;
 80004d2:	bf00      	nop
        }
        HAL_UART_Receive_IT(uart_bt, &rxByte, 1);
 80004d4:	4b43      	ldr	r3, [pc, #268]	@ (80005e4 <HAL_UART_RxCpltCallback+0x21c>)
 80004d6:	681b      	ldr	r3, [r3, #0]
 80004d8:	2201      	movs	r2, #1
 80004da:	4945      	ldr	r1, [pc, #276]	@ (80005f0 <HAL_UART_RxCpltCallback+0x228>)
 80004dc:	4618      	mov	r0, r3
 80004de:	f005 f808 	bl	80054f2 <HAL_UART_Receive_IT>
                }
                break;
        }
        HAL_UART_Receive_IT(uart_act, &rxByteAct, 1);
    }
}
 80004e2:	e07a      	b.n	80005da <HAL_UART_RxCpltCallback+0x212>
    else if (huart == uart_act)
 80004e4:	4b47      	ldr	r3, [pc, #284]	@ (8000604 <HAL_UART_RxCpltCallback+0x23c>)
 80004e6:	681b      	ldr	r3, [r3, #0]
 80004e8:	687a      	ldr	r2, [r7, #4]
 80004ea:	429a      	cmp	r2, r3
 80004ec:	d175      	bne.n	80005da <HAL_UART_RxCpltCallback+0x212>
        g_dbg_rx_act++;
 80004ee:	4b46      	ldr	r3, [pc, #280]	@ (8000608 <HAL_UART_RxCpltCallback+0x240>)
 80004f0:	681b      	ldr	r3, [r3, #0]
 80004f2:	3301      	adds	r3, #1
 80004f4:	4a44      	ldr	r2, [pc, #272]	@ (8000608 <HAL_UART_RxCpltCallback+0x240>)
 80004f6:	6013      	str	r3, [r2, #0]
        switch(hdrStateAct)
 80004f8:	4b44      	ldr	r3, [pc, #272]	@ (800060c <HAL_UART_RxCpltCallback+0x244>)
 80004fa:	781b      	ldrb	r3, [r3, #0]
 80004fc:	2b02      	cmp	r3, #2
 80004fe:	d037      	beq.n	8000570 <HAL_UART_RxCpltCallback+0x1a8>
 8000500:	2b02      	cmp	r3, #2
 8000502:	dc63      	bgt.n	80005cc <HAL_UART_RxCpltCallback+0x204>
 8000504:	2b00      	cmp	r3, #0
 8000506:	d002      	beq.n	800050e <HAL_UART_RxCpltCallback+0x146>
 8000508:	2b01      	cmp	r3, #1
 800050a:	d00f      	beq.n	800052c <HAL_UART_RxCpltCallback+0x164>
 800050c:	e05e      	b.n	80005cc <HAL_UART_RxCpltCallback+0x204>
                if(rxByteAct == HEADER_BYTE1)
 800050e:	4b40      	ldr	r3, [pc, #256]	@ (8000610 <HAL_UART_RxCpltCallback+0x248>)
 8000510:	781b      	ldrb	r3, [r3, #0]
 8000512:	2b43      	cmp	r3, #67	@ 0x43
 8000514:	d157      	bne.n	80005c6 <HAL_UART_RxCpltCallback+0x1fe>
                { pktBufAct[0]=rxByteAct; pktIdxAct=1; hdrStateAct=1; }
 8000516:	4b3e      	ldr	r3, [pc, #248]	@ (8000610 <HAL_UART_RxCpltCallback+0x248>)
 8000518:	781a      	ldrb	r2, [r3, #0]
 800051a:	4b3e      	ldr	r3, [pc, #248]	@ (8000614 <HAL_UART_RxCpltCallback+0x24c>)
 800051c:	701a      	strb	r2, [r3, #0]
 800051e:	4b3e      	ldr	r3, [pc, #248]	@ (8000618 <HAL_UART_RxCpltCallback+0x250>)
 8000520:	2201      	movs	r2, #1
 8000522:	701a      	strb	r2, [r3, #0]
 8000524:	4b39      	ldr	r3, [pc, #228]	@ (800060c <HAL_UART_RxCpltCallback+0x244>)
 8000526:	2201      	movs	r2, #1
 8000528:	701a      	strb	r2, [r3, #0]
                break;
 800052a:	e04c      	b.n	80005c6 <HAL_UART_RxCpltCallback+0x1fe>
                if(rxByteAct == HEADER_SENSOR)
 800052c:	4b38      	ldr	r3, [pc, #224]	@ (8000610 <HAL_UART_RxCpltCallback+0x248>)
 800052e:	781b      	ldrb	r3, [r3, #0]
 8000530:	2b47      	cmp	r3, #71	@ 0x47
 8000532:	d10a      	bne.n	800054a <HAL_UART_RxCpltCallback+0x182>
                { pktBufAct[1]=rxByteAct; pktIdxAct=2; hdrStateAct=2; }
 8000534:	4b36      	ldr	r3, [pc, #216]	@ (8000610 <HAL_UART_RxCpltCallback+0x248>)
 8000536:	781a      	ldrb	r2, [r3, #0]
 8000538:	4b36      	ldr	r3, [pc, #216]	@ (8000614 <HAL_UART_RxCpltCallback+0x24c>)
 800053a:	705a      	strb	r2, [r3, #1]
 800053c:	4b36      	ldr	r3, [pc, #216]	@ (8000618 <HAL_UART_RxCpltCallback+0x250>)
 800053e:	2202      	movs	r2, #2
 8000540:	701a      	strb	r2, [r3, #0]
 8000542:	4b32      	ldr	r3, [pc, #200]	@ (800060c <HAL_UART_RxCpltCallback+0x244>)
 8000544:	2202      	movs	r2, #2
 8000546:	701a      	strb	r2, [r3, #0]
                break;
 8000548:	e040      	b.n	80005cc <HAL_UART_RxCpltCallback+0x204>
                else if(rxByteAct == HEADER_BYTE1)
 800054a:	4b31      	ldr	r3, [pc, #196]	@ (8000610 <HAL_UART_RxCpltCallback+0x248>)
 800054c:	781b      	ldrb	r3, [r3, #0]
 800054e:	2b43      	cmp	r3, #67	@ 0x43
 8000550:	d107      	bne.n	8000562 <HAL_UART_RxCpltCallback+0x19a>
                { pktBufAct[0]=rxByteAct; pktIdxAct=1; }
 8000552:	4b2f      	ldr	r3, [pc, #188]	@ (8000610 <HAL_UART_RxCpltCallback+0x248>)
 8000554:	781a      	ldrb	r2, [r3, #0]
 8000556:	4b2f      	ldr	r3, [pc, #188]	@ (8000614 <HAL_UART_RxCpltCallback+0x24c>)
 8000558:	701a      	strb	r2, [r3, #0]
 800055a:	4b2f      	ldr	r3, [pc, #188]	@ (8000618 <HAL_UART_RxCpltCallback+0x250>)
 800055c:	2201      	movs	r2, #1
 800055e:	701a      	strb	r2, [r3, #0]
                break;
 8000560:	e034      	b.n	80005cc <HAL_UART_RxCpltCallback+0x204>
                { hdrStateAct=0; pktIdxAct=0; }
 8000562:	4b2a      	ldr	r3, [pc, #168]	@ (800060c <HAL_UART_RxCpltCallback+0x244>)
 8000564:	2200      	movs	r2, #0
 8000566:	701a      	strb	r2, [r3, #0]
 8000568:	4b2b      	ldr	r3, [pc, #172]	@ (8000618 <HAL_UART_RxCpltCallback+0x250>)
 800056a:	2200      	movs	r2, #0
 800056c:	701a      	strb	r2, [r3, #0]
                break;
 800056e:	e02d      	b.n	80005cc <HAL_UART_RxCpltCallback+0x204>
                if(pktIdxAct < SENSOR_PACKET_SIZE) pktBufAct[pktIdxAct] = rxByteAct;
 8000570:	4b29      	ldr	r3, [pc, #164]	@ (8000618 <HAL_UART_RxCpltCallback+0x250>)
 8000572:	781b      	ldrb	r3, [r3, #0]
 8000574:	2b18      	cmp	r3, #24
 8000576:	d806      	bhi.n	8000586 <HAL_UART_RxCpltCallback+0x1be>
 8000578:	4b27      	ldr	r3, [pc, #156]	@ (8000618 <HAL_UART_RxCpltCallback+0x250>)
 800057a:	781b      	ldrb	r3, [r3, #0]
 800057c:	461a      	mov	r2, r3
 800057e:	4b24      	ldr	r3, [pc, #144]	@ (8000610 <HAL_UART_RxCpltCallback+0x248>)
 8000580:	7819      	ldrb	r1, [r3, #0]
 8000582:	4b24      	ldr	r3, [pc, #144]	@ (8000614 <HAL_UART_RxCpltCallback+0x24c>)
 8000584:	5499      	strb	r1, [r3, r2]
                pktIdxAct++;
 8000586:	4b24      	ldr	r3, [pc, #144]	@ (8000618 <HAL_UART_RxCpltCallback+0x250>)
 8000588:	781b      	ldrb	r3, [r3, #0]
 800058a:	3301      	adds	r3, #1
 800058c:	b2da      	uxtb	r2, r3
 800058e:	4b22      	ldr	r3, [pc, #136]	@ (8000618 <HAL_UART_RxCpltCallback+0x250>)
 8000590:	701a      	strb	r2, [r3, #0]
                if(pktIdxAct == COLLISION_PACKET_SIZE)
 8000592:	4b21      	ldr	r3, [pc, #132]	@ (8000618 <HAL_UART_RxCpltCallback+0x250>)
 8000594:	781b      	ldrb	r3, [r3, #0]
 8000596:	2b15      	cmp	r3, #21
 8000598:	d117      	bne.n	80005ca <HAL_UART_RxCpltCallback+0x202>
                    if(IsCollisionSignature(pktBufAct))
 800059a:	481e      	ldr	r0, [pc, #120]	@ (8000614 <HAL_UART_RxCpltCallback+0x24c>)
 800059c:	f7ff fdd6 	bl	800014c <IsCollisionSignature>
 80005a0:	4603      	mov	r3, r0
 80005a2:	2b00      	cmp	r3, #0
 80005a4:	d003      	beq.n	80005ae <HAL_UART_RxCpltCallback+0x1e6>
                        ApplyCollisionFrame(pktBufAct);
 80005a6:	481b      	ldr	r0, [pc, #108]	@ (8000614 <HAL_UART_RxCpltCallback+0x24c>)
 80005a8:	f7ff fdfa 	bl	80001a0 <ApplyCollisionFrame>
 80005ac:	e004      	b.n	80005b8 <HAL_UART_RxCpltCallback+0x1f0>
                        g_dbg_coll_bad++;
 80005ae:	4b1b      	ldr	r3, [pc, #108]	@ (800061c <HAL_UART_RxCpltCallback+0x254>)
 80005b0:	681b      	ldr	r3, [r3, #0]
 80005b2:	3301      	adds	r3, #1
 80005b4:	4a19      	ldr	r2, [pc, #100]	@ (800061c <HAL_UART_RxCpltCallback+0x254>)
 80005b6:	6013      	str	r3, [r2, #0]
                    pktIdxAct = 0; hdrStateAct = 0;
 80005b8:	4b17      	ldr	r3, [pc, #92]	@ (8000618 <HAL_UART_RxCpltCallback+0x250>)
 80005ba:	2200      	movs	r2, #0
 80005bc:	701a      	strb	r2, [r3, #0]
 80005be:	4b13      	ldr	r3, [pc, #76]	@ (800060c <HAL_UART_RxCpltCallback+0x244>)
 80005c0:	2200      	movs	r2, #0
 80005c2:	701a      	strb	r2, [r3, #0]
                break;
 80005c4:	e001      	b.n	80005ca <HAL_UART_RxCpltCallback+0x202>
                break;
 80005c6:	bf00      	nop
 80005c8:	e000      	b.n	80005cc <HAL_UART_RxCpltCallback+0x204>
                break;
 80005ca:	bf00      	nop
        HAL_UART_Receive_IT(uart_act, &rxByteAct, 1);
 80005cc:	4b0d      	ldr	r3, [pc, #52]	@ (8000604 <HAL_UART_RxCpltCallback+0x23c>)
 80005ce:	681b      	ldr	r3, [r3, #0]
 80005d0:	2201      	movs	r2, #1
 80005d2:	490f      	ldr	r1, [pc, #60]	@ (8000610 <HAL_UART_RxCpltCallback+0x248>)
 80005d4:	4618      	mov	r0, r3
 80005d6:	f004 ff8c 	bl	80054f2 <HAL_UART_Receive_IT>
}
 80005da:	bf00      	nop
 80005dc:	3708      	adds	r7, #8
 80005de:	46bd      	mov	sp, r7
 80005e0:	bd80      	pop	{r7, pc}
 80005e2:	bf00      	nop
 80005e4:	20000098 	.word	0x20000098
 80005e8:	20000110 	.word	0x20000110
 80005ec:	200000d2 	.word	0x200000d2
 80005f0:	200000b4 	.word	0x200000b4
 80005f4:	200000b8 	.word	0x200000b8
 80005f8:	200000d1 	.word	0x200000d1
 80005fc:	200000ba 	.word	0x200000ba
 8000600:	20000118 	.word	0x20000118
 8000604:	2000009c 	.word	0x2000009c
 8000608:	20000114 	.word	0x20000114
 800060c:	200000ee 	.word	0x200000ee
 8000610:	200000d3 	.word	0x200000d3
 8000614:	200000d4 	.word	0x200000d4
 8000618:	200000ed 	.word	0x200000ed
 800061c:	2000011c 	.word	0x2000011c

08000620 <HAL_UART_ErrorCallback>:

void HAL_UART_ErrorCallback(UART_HandleTypeDef *huart)
{
 8000620:	b580      	push	{r7, lr}
 8000622:	b082      	sub	sp, #8
 8000624:	af00      	add	r7, sp, #0
 8000626:	6078      	str	r0, [r7, #4]
    if (huart == uart_bt)
 8000628:	4b14      	ldr	r3, [pc, #80]	@ (800067c <HAL_UART_ErrorCallback+0x5c>)
 800062a:	681b      	ldr	r3, [r3, #0]
 800062c:	687a      	ldr	r2, [r7, #4]
 800062e:	429a      	cmp	r2, r3
 8000630:	d10d      	bne.n	800064e <HAL_UART_ErrorCallback+0x2e>
    { packetIndex=0; headerState=0; HAL_UART_Receive_IT(uart_bt, &rxByte, 1); }
 8000632:	4b13      	ldr	r3, [pc, #76]	@ (8000680 <HAL_UART_ErrorCallback+0x60>)
 8000634:	2200      	movs	r2, #0
 8000636:	701a      	strb	r2, [r3, #0]
 8000638:	4b12      	ldr	r3, [pc, #72]	@ (8000684 <HAL_UART_ErrorCallback+0x64>)
 800063a:	2200      	movs	r2, #0
 800063c:	701a      	strb	r2, [r3, #0]
 800063e:	4b0f      	ldr	r3, [pc, #60]	@ (800067c <HAL_UART_ErrorCallback+0x5c>)
 8000640:	681b      	ldr	r3, [r3, #0]
 8000642:	2201      	movs	r2, #1
 8000644:	4910      	ldr	r1, [pc, #64]	@ (8000688 <HAL_UART_ErrorCallback+0x68>)
 8000646:	4618      	mov	r0, r3
 8000648:	f004 ff53 	bl	80054f2 <HAL_UART_Receive_IT>
    else if (huart == uart_act)
    { pktIdxAct=0; hdrStateAct=0; HAL_UART_Receive_IT(uart_act, &rxByteAct, 1); }
}
 800064c:	e011      	b.n	8000672 <HAL_UART_ErrorCallback+0x52>
    else if (huart == uart_act)
 800064e:	4b0f      	ldr	r3, [pc, #60]	@ (800068c <HAL_UART_ErrorCallback+0x6c>)
 8000650:	681b      	ldr	r3, [r3, #0]
 8000652:	687a      	ldr	r2, [r7, #4]
 8000654:	429a      	cmp	r2, r3
 8000656:	d10c      	bne.n	8000672 <HAL_UART_ErrorCallback+0x52>
    { pktIdxAct=0; hdrStateAct=0; HAL_UART_Receive_IT(uart_act, &rxByteAct, 1); }
 8000658:	4b0d      	ldr	r3, [pc, #52]	@ (8000690 <HAL_UART_ErrorCallback+0x70>)
 800065a:	2200      	movs	r2, #0
 800065c:	701a      	strb	r2, [r3, #0]
 800065e:	4b0d      	ldr	r3, [pc, #52]	@ (8000694 <HAL_UART_ErrorCallback+0x74>)
 8000660:	2200      	movs	r2, #0
 8000662:	701a      	strb	r2, [r3, #0]
 8000664:	4b09      	ldr	r3, [pc, #36]	@ (800068c <HAL_UART_ErrorCallback+0x6c>)
 8000666:	681b      	ldr	r3, [r3, #0]
 8000668:	2201      	movs	r2, #1
 800066a:	490b      	ldr	r1, [pc, #44]	@ (8000698 <HAL_UART_ErrorCallback+0x78>)
 800066c:	4618      	mov	r0, r3
 800066e:	f004 ff40 	bl	80054f2 <HAL_UART_Receive_IT>
}
 8000672:	bf00      	nop
 8000674:	3708      	adds	r7, #8
 8000676:	46bd      	mov	sp, r7
 8000678:	bd80      	pop	{r7, pc}
 800067a:	bf00      	nop
 800067c:	20000098 	.word	0x20000098
 8000680:	200000d1 	.word	0x200000d1
 8000684:	200000d2 	.word	0x200000d2
 8000688:	200000b4 	.word	0x200000b4
 800068c:	2000009c 	.word	0x2000009c
 8000690:	200000ed 	.word	0x200000ed
 8000694:	200000ee 	.word	0x200000ee
 8000698:	200000d3 	.word	0x200000d3

0800069c <ACTION_COMM_Task>:
 * held active. The re-assert (every COLLISION_REFRESH_MS) re-writes the
 * collision icon so a DWIN page re-render — e.g. the 1 Hz RTC write —
 * cannot leave the icon blank. Flicker-free: same icon value each time.
 */
void ACTION_COMM_Task(void)
{
 800069c:	b580      	push	{r7, lr}
 800069e:	b082      	sub	sp, #8
 80006a0:	af00      	add	r7, sp, #0
    static uint8_t  lastCollision = 0;
    static uint32_t lastRefresh   = 0;

    dbg_ac_task_hit++;
 80006a2:	4b21      	ldr	r3, [pc, #132]	@ (8000728 <ACTION_COMM_Task+0x8c>)
 80006a4:	781b      	ldrb	r3, [r3, #0]
 80006a6:	b2db      	uxtb	r3, r3
 80006a8:	3301      	adds	r3, #1
 80006aa:	b2da      	uxtb	r2, r3
 80006ac:	4b1e      	ldr	r3, [pc, #120]	@ (8000728 <ACTION_COMM_Task+0x8c>)
 80006ae:	701a      	strb	r2, [r3, #0]

    uint8_t now = g_collisionActive;
 80006b0:	4b1e      	ldr	r3, [pc, #120]	@ (800072c <ACTION_COMM_Task+0x90>)
 80006b2:	781b      	ldrb	r3, [r3, #0]
 80006b4:	71fb      	strb	r3, [r7, #7]
    dbg_ac_state           = now;
 80006b6:	4a1e      	ldr	r2, [pc, #120]	@ (8000730 <ACTION_COMM_Task+0x94>)
 80006b8:	79fb      	ldrb	r3, [r7, #7]
 80006ba:	7013      	strb	r3, [r2, #0]
    dbg_ac_feature_enabled = LCD_IsAntiCollisionEnabled();
 80006bc:	f000 fd74 	bl	80011a8 <LCD_IsAntiCollisionEnabled>
 80006c0:	4603      	mov	r3, r0
 80006c2:	461a      	mov	r2, r3
 80006c4:	4b1b      	ldr	r3, [pc, #108]	@ (8000734 <ACTION_COMM_Task+0x98>)
 80006c6:	701a      	strb	r2, [r3, #0]

    if(now != lastCollision)
 80006c8:	4b1b      	ldr	r3, [pc, #108]	@ (8000738 <ACTION_COMM_Task+0x9c>)
 80006ca:	781b      	ldrb	r3, [r3, #0]
 80006cc:	79fa      	ldrb	r2, [r7, #7]
 80006ce:	429a      	cmp	r2, r3
 80006d0:	d012      	beq.n	80006f8 <ACTION_COMM_Task+0x5c>
    {
        lastCollision = now;
 80006d2:	4a19      	ldr	r2, [pc, #100]	@ (8000738 <ACTION_COMM_Task+0x9c>)
 80006d4:	79fb      	ldrb	r3, [r7, #7]
 80006d6:	7013      	strb	r3, [r2, #0]
        dbg_ac_lcd_call++;
 80006d8:	4b18      	ldr	r3, [pc, #96]	@ (800073c <ACTION_COMM_Task+0xa0>)
 80006da:	781b      	ldrb	r3, [r3, #0]
 80006dc:	b2db      	uxtb	r3, r3
 80006de:	3301      	adds	r3, #1
 80006e0:	b2da      	uxtb	r2, r3
 80006e2:	4b16      	ldr	r3, [pc, #88]	@ (800073c <ACTION_COMM_Task+0xa0>)
 80006e4:	701a      	strb	r2, [r3, #0]
        LCD_ShowCollisionAlert(now);      /* 1 = open+icon, 0 = clear+HOME */
 80006e6:	79fb      	ldrb	r3, [r7, #7]
 80006e8:	4618      	mov	r0, r3
 80006ea:	f000 fdc9 	bl	8001280 <LCD_ShowCollisionAlert>
        lastRefresh = HAL_GetTick();
 80006ee:	f003 fc33 	bl	8003f58 <HAL_GetTick>
 80006f2:	4603      	mov	r3, r0
 80006f4:	4a12      	ldr	r2, [pc, #72]	@ (8000740 <ACTION_COMM_Task+0xa4>)
 80006f6:	6013      	str	r3, [r2, #0]
    }

    /* Hold the alert: keep icon on page 23 while collision is active. */
    if(now)
 80006f8:	79fb      	ldrb	r3, [r7, #7]
 80006fa:	2b00      	cmp	r3, #0
 80006fc:	d00f      	beq.n	800071e <ACTION_COMM_Task+0x82>
    {
        if((HAL_GetTick() - lastRefresh) >= COLLISION_REFRESH_MS)
 80006fe:	f003 fc2b 	bl	8003f58 <HAL_GetTick>
 8000702:	4602      	mov	r2, r0
 8000704:	4b0e      	ldr	r3, [pc, #56]	@ (8000740 <ACTION_COMM_Task+0xa4>)
 8000706:	681b      	ldr	r3, [r3, #0]
 8000708:	1ad3      	subs	r3, r2, r3
 800070a:	f5b3 7f96 	cmp.w	r3, #300	@ 0x12c
 800070e:	d306      	bcc.n	800071e <ACTION_COMM_Task+0x82>
        {
            lastRefresh = HAL_GetTick();
 8000710:	f003 fc22 	bl	8003f58 <HAL_GetTick>
 8000714:	4603      	mov	r3, r0
 8000716:	4a0a      	ldr	r2, [pc, #40]	@ (8000740 <ACTION_COMM_Task+0xa4>)
 8000718:	6013      	str	r3, [r2, #0]
            LCD_CollisionAlertRefresh();
 800071a:	f000 fdfb 	bl	8001314 <LCD_CollisionAlertRefresh>
        }
    }
}
 800071e:	bf00      	nop
 8000720:	3708      	adds	r7, #8
 8000722:	46bd      	mov	sp, r7
 8000724:	bd80      	pop	{r7, pc}
 8000726:	bf00      	nop
 8000728:	200000f1 	.word	0x200000f1
 800072c:	200000ef 	.word	0x200000ef
 8000730:	200000f3 	.word	0x200000f3
 8000734:	200000f4 	.word	0x200000f4
 8000738:	20000120 	.word	0x20000120
 800073c:	200000f2 	.word	0x200000f2
 8000740:	20000124 	.word	0x20000124

08000744 <BUTTON_MATRIX_Scan>:
 *   3. Evaluate combo keys FIRST so held pairs don't also fire
 *      as individual presses.
 *   4. Evaluate individual press/hold/release for remaining keys.
 * ====================================================================== */
void BUTTON_MATRIX_Scan(void)
{
 8000744:	b580      	push	{r7, lr}
 8000746:	b088      	sub	sp, #32
 8000748:	af00      	add	r7, sp, #0
    /* ================================================================
     * PHASE 1 — MATRIX SCAN + DEBOUNCE
     * ================================================================ */
    for(int c = 0; c < 7; c++)
 800074a:	2300      	movs	r3, #0
 800074c:	61fb      	str	r3, [r7, #28]
 800074e:	e086      	b.n	800085e <BUTTON_MATRIX_Scan+0x11a>
    {
        /* Assert all columns LOW first, then drive column c HIGH */
        for(int i = 0; i < 7; i++)
 8000750:	2300      	movs	r3, #0
 8000752:	61bb      	str	r3, [r7, #24]
 8000754:	e00e      	b.n	8000774 <BUTTON_MATRIX_Scan+0x30>
            HAL_GPIO_WritePin(col_port[i], col_pin[i], GPIO_PIN_RESET);
 8000756:	4aa7      	ldr	r2, [pc, #668]	@ (80009f4 <BUTTON_MATRIX_Scan+0x2b0>)
 8000758:	69bb      	ldr	r3, [r7, #24]
 800075a:	f852 0023 	ldr.w	r0, [r2, r3, lsl #2]
 800075e:	4aa6      	ldr	r2, [pc, #664]	@ (80009f8 <BUTTON_MATRIX_Scan+0x2b4>)
 8000760:	69bb      	ldr	r3, [r7, #24]
 8000762:	f832 3013 	ldrh.w	r3, [r2, r3, lsl #1]
 8000766:	2200      	movs	r2, #0
 8000768:	4619      	mov	r1, r3
 800076a:	f004 f87a 	bl	8004862 <HAL_GPIO_WritePin>
        for(int i = 0; i < 7; i++)
 800076e:	69bb      	ldr	r3, [r7, #24]
 8000770:	3301      	adds	r3, #1
 8000772:	61bb      	str	r3, [r7, #24]
 8000774:	69bb      	ldr	r3, [r7, #24]
 8000776:	2b06      	cmp	r3, #6
 8000778:	dded      	ble.n	8000756 <BUTTON_MATRIX_Scan+0x12>

        HAL_GPIO_WritePin(col_port[c], col_pin[c], GPIO_PIN_SET);
 800077a:	4a9e      	ldr	r2, [pc, #632]	@ (80009f4 <BUTTON_MATRIX_Scan+0x2b0>)
 800077c:	69fb      	ldr	r3, [r7, #28]
 800077e:	f852 0023 	ldr.w	r0, [r2, r3, lsl #2]
 8000782:	4a9d      	ldr	r2, [pc, #628]	@ (80009f8 <BUTTON_MATRIX_Scan+0x2b4>)
 8000784:	69fb      	ldr	r3, [r7, #28]
 8000786:	f832 3013 	ldrh.w	r3, [r2, r3, lsl #1]
 800078a:	2201      	movs	r2, #1
 800078c:	4619      	mov	r1, r3
 800078e:	f004 f868 	bl	8004862 <HAL_GPIO_WritePin>
        HAL_Delay(1);   /* settling time for RC on row lines */
 8000792:	2001      	movs	r0, #1
 8000794:	f003 fbea 	bl	8003f6c <HAL_Delay>

        for(int r = 0; r < 5; r++)
 8000798:	2300      	movs	r3, #0
 800079a:	617b      	str	r3, [r7, #20]
 800079c:	e059      	b.n	8000852 <BUTTON_MATRIX_Scan+0x10e>
        {
            uint8_t raw =
                (HAL_GPIO_ReadPin(row_port[r], row_pin[r]) == GPIO_PIN_SET) ? 1 : 0;
 800079e:	4a97      	ldr	r2, [pc, #604]	@ (80009fc <BUTTON_MATRIX_Scan+0x2b8>)
 80007a0:	697b      	ldr	r3, [r7, #20]
 80007a2:	f852 2023 	ldr.w	r2, [r2, r3, lsl #2]
 80007a6:	4996      	ldr	r1, [pc, #600]	@ (8000a00 <BUTTON_MATRIX_Scan+0x2bc>)
 80007a8:	697b      	ldr	r3, [r7, #20]
 80007aa:	f831 3013 	ldrh.w	r3, [r1, r3, lsl #1]
 80007ae:	4619      	mov	r1, r3
 80007b0:	4610      	mov	r0, r2
 80007b2:	f004 f83f 	bl	8004834 <HAL_GPIO_ReadPin>
 80007b6:	4603      	mov	r3, r0
 80007b8:	2b01      	cmp	r3, #1
 80007ba:	bf0c      	ite	eq
 80007bc:	2301      	moveq	r3, #1
 80007be:	2300      	movne	r3, #0
 80007c0:	b2db      	uxtb	r3, r3
            uint8_t raw =
 80007c2:	70bb      	strb	r3, [r7, #2]
            if(raw) { if(stableCount[c][r] < DEBOUNCE_MAX) stableCount[c][r]++; }
 80007c4:	78bb      	ldrb	r3, [r7, #2]
 80007c6:	2b00      	cmp	r3, #0
 80007c8:	d020      	beq.n	800080c <BUTTON_MATRIX_Scan+0xc8>
 80007ca:	498e      	ldr	r1, [pc, #568]	@ (8000a04 <BUTTON_MATRIX_Scan+0x2c0>)
 80007cc:	69fa      	ldr	r2, [r7, #28]
 80007ce:	4613      	mov	r3, r2
 80007d0:	009b      	lsls	r3, r3, #2
 80007d2:	4413      	add	r3, r2
 80007d4:	18ca      	adds	r2, r1, r3
 80007d6:	697b      	ldr	r3, [r7, #20]
 80007d8:	4413      	add	r3, r2
 80007da:	781b      	ldrb	r3, [r3, #0]
 80007dc:	2b04      	cmp	r3, #4
 80007de:	d835      	bhi.n	800084c <BUTTON_MATRIX_Scan+0x108>
 80007e0:	4988      	ldr	r1, [pc, #544]	@ (8000a04 <BUTTON_MATRIX_Scan+0x2c0>)
 80007e2:	69fa      	ldr	r2, [r7, #28]
 80007e4:	4613      	mov	r3, r2
 80007e6:	009b      	lsls	r3, r3, #2
 80007e8:	4413      	add	r3, r2
 80007ea:	18ca      	adds	r2, r1, r3
 80007ec:	697b      	ldr	r3, [r7, #20]
 80007ee:	4413      	add	r3, r2
 80007f0:	781b      	ldrb	r3, [r3, #0]
 80007f2:	3301      	adds	r3, #1
 80007f4:	b2d8      	uxtb	r0, r3
 80007f6:	4983      	ldr	r1, [pc, #524]	@ (8000a04 <BUTTON_MATRIX_Scan+0x2c0>)
 80007f8:	69fa      	ldr	r2, [r7, #28]
 80007fa:	4613      	mov	r3, r2
 80007fc:	009b      	lsls	r3, r3, #2
 80007fe:	4413      	add	r3, r2
 8000800:	18ca      	adds	r2, r1, r3
 8000802:	697b      	ldr	r3, [r7, #20]
 8000804:	4413      	add	r3, r2
 8000806:	4602      	mov	r2, r0
 8000808:	701a      	strb	r2, [r3, #0]
 800080a:	e01f      	b.n	800084c <BUTTON_MATRIX_Scan+0x108>
            else    { if(stableCount[c][r] > 0)            stableCount[c][r]--; }
 800080c:	497d      	ldr	r1, [pc, #500]	@ (8000a04 <BUTTON_MATRIX_Scan+0x2c0>)
 800080e:	69fa      	ldr	r2, [r7, #28]
 8000810:	4613      	mov	r3, r2
 8000812:	009b      	lsls	r3, r3, #2
 8000814:	4413      	add	r3, r2
 8000816:	18ca      	adds	r2, r1, r3
 8000818:	697b      	ldr	r3, [r7, #20]
 800081a:	4413      	add	r3, r2
 800081c:	781b      	ldrb	r3, [r3, #0]
 800081e:	2b00      	cmp	r3, #0
 8000820:	d014      	beq.n	800084c <BUTTON_MATRIX_Scan+0x108>
 8000822:	4978      	ldr	r1, [pc, #480]	@ (8000a04 <BUTTON_MATRIX_Scan+0x2c0>)
 8000824:	69fa      	ldr	r2, [r7, #28]
 8000826:	4613      	mov	r3, r2
 8000828:	009b      	lsls	r3, r3, #2
 800082a:	4413      	add	r3, r2
 800082c:	18ca      	adds	r2, r1, r3
 800082e:	697b      	ldr	r3, [r7, #20]
 8000830:	4413      	add	r3, r2
 8000832:	781b      	ldrb	r3, [r3, #0]
 8000834:	3b01      	subs	r3, #1
 8000836:	b2d8      	uxtb	r0, r3
 8000838:	4972      	ldr	r1, [pc, #456]	@ (8000a04 <BUTTON_MATRIX_Scan+0x2c0>)
 800083a:	69fa      	ldr	r2, [r7, #28]
 800083c:	4613      	mov	r3, r2
 800083e:	009b      	lsls	r3, r3, #2
 8000840:	4413      	add	r3, r2
 8000842:	18ca      	adds	r2, r1, r3
 8000844:	697b      	ldr	r3, [r7, #20]
 8000846:	4413      	add	r3, r2
 8000848:	4602      	mov	r2, r0
 800084a:	701a      	strb	r2, [r3, #0]
        for(int r = 0; r < 5; r++)
 800084c:	697b      	ldr	r3, [r7, #20]
 800084e:	3301      	adds	r3, #1
 8000850:	617b      	str	r3, [r7, #20]
 8000852:	697b      	ldr	r3, [r7, #20]
 8000854:	2b04      	cmp	r3, #4
 8000856:	dda2      	ble.n	800079e <BUTTON_MATRIX_Scan+0x5a>
    for(int c = 0; c < 7; c++)
 8000858:	69fb      	ldr	r3, [r7, #28]
 800085a:	3301      	adds	r3, #1
 800085c:	61fb      	str	r3, [r7, #28]
 800085e:	69fb      	ldr	r3, [r7, #28]
 8000860:	2b06      	cmp	r3, #6
 8000862:	f77f af75 	ble.w	8000750 <BUTTON_MATRIX_Scan+0xc>
    /* ================================================================
     * PHASE 2 — COMBO KEYS
     * Evaluated before the single-key loop. Each active combo returns
     * immediately so its component keys don't also fire individually.
     * ================================================================ */
    if(!LCD_IsLocked() && LCD_IsPowerOn())
 8000866:	f000 fba3 	bl	8000fb0 <LCD_IsLocked>
 800086a:	4603      	mov	r3, r0
 800086c:	2b00      	cmp	r3, #0
 800086e:	f040 80bb 	bne.w	80009e8 <BUTTON_MATRIX_Scan+0x2a4>
 8000872:	f000 fba7 	bl	8000fc4 <LCD_IsPowerOn>
 8000876:	4603      	mov	r3, r0
 8000878:	2b00      	cmp	r3, #0
 800087a:	f000 80b5 	beq.w	80009e8 <BUTTON_MATRIX_Scan+0x2a4>
    {
        uint8_t goBack   = (stableCount[1][3] >= DEBOUNCE_TRIGGER);
 800087e:	4b61      	ldr	r3, [pc, #388]	@ (8000a04 <BUTTON_MATRIX_Scan+0x2c0>)
 8000880:	7a1b      	ldrb	r3, [r3, #8]
 8000882:	2b03      	cmp	r3, #3
 8000884:	bf8c      	ite	hi
 8000886:	2301      	movhi	r3, #1
 8000888:	2300      	movls	r3, #0
 800088a:	b2db      	uxtb	r3, r3
 800088c:	72fb      	strb	r3, [r7, #11]
        uint8_t accept   = (stableCount[1][0] >= DEBOUNCE_TRIGGER);
 800088e:	4b5d      	ldr	r3, [pc, #372]	@ (8000a04 <BUTTON_MATRIX_Scan+0x2c0>)
 8000890:	795b      	ldrb	r3, [r3, #5]
 8000892:	2b03      	cmp	r3, #3
 8000894:	bf8c      	ite	hi
 8000896:	2301      	movhi	r3, #1
 8000898:	2300      	movls	r3, #0
 800089a:	b2db      	uxtb	r3, r3
 800089c:	72bb      	strb	r3, [r7, #10]
        uint8_t heightDn = (stableCount[2][1] >= DEBOUNCE_TRIGGER);
 800089e:	4b59      	ldr	r3, [pc, #356]	@ (8000a04 <BUTTON_MATRIX_Scan+0x2c0>)
 80008a0:	7adb      	ldrb	r3, [r3, #11]
 80008a2:	2b03      	cmp	r3, #3
 80008a4:	bf8c      	ite	hi
 80008a6:	2301      	movhi	r3, #1
 80008a8:	2300      	movls	r3, #0
 80008aa:	b2db      	uxtb	r3, r3
 80008ac:	727b      	strb	r3, [r7, #9]
        uint8_t flexUp   = (stableCount[3][3] >= DEBOUNCE_TRIGGER);
 80008ae:	4b55      	ldr	r3, [pc, #340]	@ (8000a04 <BUTTON_MATRIX_Scan+0x2c0>)
 80008b0:	7c9b      	ldrb	r3, [r3, #18]
 80008b2:	2b03      	cmp	r3, #3
 80008b4:	bf8c      	ite	hi
 80008b6:	2301      	movhi	r3, #1
 80008b8:	2300      	movls	r3, #0
 80008ba:	b2db      	uxtb	r3, r3
 80008bc:	723b      	strb	r3, [r7, #8]
        uint8_t slide    = (stableCount[6][2] >= DEBOUNCE_TRIGGER);
 80008be:	4b51      	ldr	r3, [pc, #324]	@ (8000a04 <BUTTON_MATRIX_Scan+0x2c0>)
 80008c0:	f893 3020 	ldrb.w	r3, [r3, #32]
 80008c4:	2b03      	cmp	r3, #3
 80008c6:	bf8c      	ite	hi
 80008c8:	2301      	movhi	r3, #1
 80008ca:	2300      	movls	r3, #0
 80008cc:	b2db      	uxtb	r3, r3
 80008ce:	71fb      	strb	r3, [r7, #7]
        uint8_t level    = (stableCount[5][0] >= DEBOUNCE_TRIGGER);
 80008d0:	4b4c      	ldr	r3, [pc, #304]	@ (8000a04 <BUTTON_MATRIX_Scan+0x2c0>)
 80008d2:	7e5b      	ldrb	r3, [r3, #25]
 80008d4:	2b03      	cmp	r3, #3
 80008d6:	bf8c      	ite	hi
 80008d8:	2301      	movhi	r3, #1
 80008da:	2300      	movls	r3, #0
 80008dc:	b2db      	uxtb	r3, r3
 80008de:	71bb      	strb	r3, [r7, #6]

        /* GoBack + Accept → GOBACK_FLEX (PA=0x0D) */
        if(goBack && accept)
 80008e0:	7afb      	ldrb	r3, [r7, #11]
 80008e2:	2b00      	cmp	r3, #0
 80008e4:	d013      	beq.n	800090e <BUTTON_MATRIX_Scan+0x1ca>
 80008e6:	7abb      	ldrb	r3, [r7, #10]
 80008e8:	2b00      	cmp	r3, #0
 80008ea:	d010      	beq.n	800090e <BUTTON_MATRIX_Scan+0x1ca>
        {
            if(!comboLatch_Flex)
 80008ec:	4b46      	ldr	r3, [pc, #280]	@ (8000a08 <BUTTON_MATRIX_Scan+0x2c4>)
 80008ee:	781b      	ldrb	r3, [r3, #0]
 80008f0:	2b00      	cmp	r3, #0
 80008f2:	f040 8228 	bne.w	8000d46 <BUTTON_MATRIX_Scan+0x602>
            {
                comboLatch_Flex = 1;
 80008f6:	4b44      	ldr	r3, [pc, #272]	@ (8000a08 <BUTTON_MATRIX_Scan+0x2c4>)
 80008f8:	2201      	movs	r2, #1
 80008fa:	701a      	strb	r2, [r3, #0]
                ACTION_SendCommand(0x00);
 80008fc:	2000      	movs	r0, #0
 80008fe:	f7ff fcf9 	bl	80002f4 <ACTION_SendCommand>
                LCD_StopCircularAnim();
 8000902:	f001 fed9 	bl	80026b8 <LCD_StopCircularAnim>
                LCD_ShowSensorPage(GOBACK_FLEX);
 8000906:	200d      	movs	r0, #13
 8000908:	f001 ff62 	bl	80027d0 <LCD_ShowSensorPage>
            }
            return;
 800090c:	e21b      	b.n	8000d46 <BUTTON_MATRIX_Scan+0x602>
        }
        else comboLatch_Flex = 0;
 800090e:	4b3e      	ldr	r3, [pc, #248]	@ (8000a08 <BUTTON_MATRIX_Scan+0x2c4>)
 8000910:	2200      	movs	r2, #0
 8000912:	701a      	strb	r2, [r3, #0]

        /* GoBack + HeightDn → GOBACK_HEIGHT (PA=0x0E) */
        if(goBack && heightDn)
 8000914:	7afb      	ldrb	r3, [r7, #11]
 8000916:	2b00      	cmp	r3, #0
 8000918:	d013      	beq.n	8000942 <BUTTON_MATRIX_Scan+0x1fe>
 800091a:	7a7b      	ldrb	r3, [r7, #9]
 800091c:	2b00      	cmp	r3, #0
 800091e:	d010      	beq.n	8000942 <BUTTON_MATRIX_Scan+0x1fe>
        {
            if(!comboLatch_Height)
 8000920:	4b3a      	ldr	r3, [pc, #232]	@ (8000a0c <BUTTON_MATRIX_Scan+0x2c8>)
 8000922:	781b      	ldrb	r3, [r3, #0]
 8000924:	2b00      	cmp	r3, #0
 8000926:	f040 8210 	bne.w	8000d4a <BUTTON_MATRIX_Scan+0x606>
            {
                comboLatch_Height = 1;
 800092a:	4b38      	ldr	r3, [pc, #224]	@ (8000a0c <BUTTON_MATRIX_Scan+0x2c8>)
 800092c:	2201      	movs	r2, #1
 800092e:	701a      	strb	r2, [r3, #0]
                ACTION_SendCommand(0x00);
 8000930:	2000      	movs	r0, #0
 8000932:	f7ff fcdf 	bl	80002f4 <ACTION_SendCommand>
                LCD_StopCircularAnim();
 8000936:	f001 febf 	bl	80026b8 <LCD_StopCircularAnim>
                LCD_ShowSensorPage(GOBACK_HEIGHT);
 800093a:	200e      	movs	r0, #14
 800093c:	f001 ff48 	bl	80027d0 <LCD_ShowSensorPage>
            }
            return;
 8000940:	e203      	b.n	8000d4a <BUTTON_MATRIX_Scan+0x606>
        }
        else comboLatch_Height = 0;
 8000942:	4b32      	ldr	r3, [pc, #200]	@ (8000a0c <BUTTON_MATRIX_Scan+0x2c8>)
 8000944:	2200      	movs	r2, #0
 8000946:	701a      	strb	r2, [r3, #0]

        /* GoBack + FlexUp → GOBACK_ACCEPT (PA=0x0F) */
        if(goBack && flexUp)
 8000948:	7afb      	ldrb	r3, [r7, #11]
 800094a:	2b00      	cmp	r3, #0
 800094c:	d013      	beq.n	8000976 <BUTTON_MATRIX_Scan+0x232>
 800094e:	7a3b      	ldrb	r3, [r7, #8]
 8000950:	2b00      	cmp	r3, #0
 8000952:	d010      	beq.n	8000976 <BUTTON_MATRIX_Scan+0x232>
        {
            if(!comboLatch_Accept)
 8000954:	4b2e      	ldr	r3, [pc, #184]	@ (8000a10 <BUTTON_MATRIX_Scan+0x2cc>)
 8000956:	781b      	ldrb	r3, [r3, #0]
 8000958:	2b00      	cmp	r3, #0
 800095a:	f040 81f8 	bne.w	8000d4e <BUTTON_MATRIX_Scan+0x60a>
            {
                comboLatch_Accept = 1;
 800095e:	4b2c      	ldr	r3, [pc, #176]	@ (8000a10 <BUTTON_MATRIX_Scan+0x2cc>)
 8000960:	2201      	movs	r2, #1
 8000962:	701a      	strb	r2, [r3, #0]
                ACTION_SendCommand(0x00);
 8000964:	2000      	movs	r0, #0
 8000966:	f7ff fcc5 	bl	80002f4 <ACTION_SendCommand>
                LCD_StopCircularAnim();
 800096a:	f001 fea5 	bl	80026b8 <LCD_StopCircularAnim>
                LCD_ShowSensorPage(GOBACK_ACCEPT);
 800096e:	200f      	movs	r0, #15
 8000970:	f001 ff2e 	bl	80027d0 <LCD_ShowSensorPage>
            }
            return;
 8000974:	e1eb      	b.n	8000d4e <BUTTON_MATRIX_Scan+0x60a>
        }
        else comboLatch_Accept = 0;
 8000976:	4b26      	ldr	r3, [pc, #152]	@ (8000a10 <BUTTON_MATRIX_Scan+0x2cc>)
 8000978:	2200      	movs	r2, #0
 800097a:	701a      	strb	r2, [r3, #0]

        /* GoBack + Slide → GOBACK_HEIGHT (PA=0x0E) */
        if(goBack && slide)
 800097c:	7afb      	ldrb	r3, [r7, #11]
 800097e:	2b00      	cmp	r3, #0
 8000980:	d013      	beq.n	80009aa <BUTTON_MATRIX_Scan+0x266>
 8000982:	79fb      	ldrb	r3, [r7, #7]
 8000984:	2b00      	cmp	r3, #0
 8000986:	d010      	beq.n	80009aa <BUTTON_MATRIX_Scan+0x266>
        {
            if(!comboLatch_Slide)
 8000988:	4b22      	ldr	r3, [pc, #136]	@ (8000a14 <BUTTON_MATRIX_Scan+0x2d0>)
 800098a:	781b      	ldrb	r3, [r3, #0]
 800098c:	2b00      	cmp	r3, #0
 800098e:	f040 81e0 	bne.w	8000d52 <BUTTON_MATRIX_Scan+0x60e>
            {
                comboLatch_Slide = 1;
 8000992:	4b20      	ldr	r3, [pc, #128]	@ (8000a14 <BUTTON_MATRIX_Scan+0x2d0>)
 8000994:	2201      	movs	r2, #1
 8000996:	701a      	strb	r2, [r3, #0]
                ACTION_SendCommand(0x00);
 8000998:	2000      	movs	r0, #0
 800099a:	f7ff fcab 	bl	80002f4 <ACTION_SendCommand>
                LCD_StopCircularAnim();
 800099e:	f001 fe8b 	bl	80026b8 <LCD_StopCircularAnim>
                LCD_ShowSensorPage(GOBACK_HEIGHT);
 80009a2:	200e      	movs	r0, #14
 80009a4:	f001 ff14 	bl	80027d0 <LCD_ShowSensorPage>
            }
            return;
 80009a8:	e1d3      	b.n	8000d52 <BUTTON_MATRIX_Scan+0x60e>
        }
        else comboLatch_Slide = 0;
 80009aa:	4b1a      	ldr	r3, [pc, #104]	@ (8000a14 <BUTTON_MATRIX_Scan+0x2d0>)
 80009ac:	2200      	movs	r2, #0
 80009ae:	701a      	strb	r2, [r3, #0]

        /* GoBack + Level → GoBackLevel BLE packet + Memory SET page */
        if(goBack && level)
 80009b0:	7afb      	ldrb	r3, [r7, #11]
 80009b2:	2b00      	cmp	r3, #0
 80009b4:	d015      	beq.n	80009e2 <BUTTON_MATRIX_Scan+0x29e>
 80009b6:	79bb      	ldrb	r3, [r7, #6]
 80009b8:	2b00      	cmp	r3, #0
 80009ba:	d012      	beq.n	80009e2 <BUTTON_MATRIX_Scan+0x29e>
        {
            if(!comboLatch_Level)
 80009bc:	4b16      	ldr	r3, [pc, #88]	@ (8000a18 <BUTTON_MATRIX_Scan+0x2d4>)
 80009be:	781b      	ldrb	r3, [r3, #0]
 80009c0:	2b00      	cmp	r3, #0
 80009c2:	f040 81c8 	bne.w	8000d56 <BUTTON_MATRIX_Scan+0x612>
            {
                comboLatch_Level = 1;
 80009c6:	4b14      	ldr	r3, [pc, #80]	@ (8000a18 <BUTTON_MATRIX_Scan+0x2d4>)
 80009c8:	2201      	movs	r2, #1
 80009ca:	701a      	strb	r2, [r3, #0]
                ACTION_SendCommand(0x00);
 80009cc:	2000      	movs	r0, #0
 80009ce:	f7ff fc91 	bl	80002f4 <ACTION_SendCommand>
                LCD_StopCircularAnim();
 80009d2:	f001 fe71 	bl	80026b8 <LCD_StopCircularAnim>
                ACTION_SendGoBackLevel();
 80009d6:	f7ff fcdd 	bl	8000394 <ACTION_SendGoBackLevel>
                LCD_ShowMemoryPage(MEM_MODE_SET);
 80009da:	2001      	movs	r0, #1
 80009dc:	f001 ffe0 	bl	80029a0 <LCD_ShowMemoryPage>
            }
            return;
 80009e0:	e1b9      	b.n	8000d56 <BUTTON_MATRIX_Scan+0x612>
        }
        else comboLatch_Level = 0;
 80009e2:	4b0d      	ldr	r3, [pc, #52]	@ (8000a18 <BUTTON_MATRIX_Scan+0x2d4>)
 80009e4:	2200      	movs	r2, #0
 80009e6:	701a      	strb	r2, [r3, #0]
    }

    /* ================================================================
     * PHASE 3 — SINGLE KEY PRESS / HOLD / RELEASE
     * ================================================================ */
    for(int c = 0; c < 7; c++)
 80009e8:	2300      	movs	r3, #0
 80009ea:	613b      	str	r3, [r7, #16]
 80009ec:	e1a6      	b.n	8000d3c <BUTTON_MATRIX_Scan+0x5f8>
    {
        for(int r = 0; r < 5; r++)
 80009ee:	2300      	movs	r3, #0
 80009f0:	60fb      	str	r3, [r7, #12]
 80009f2:	e19c      	b.n	8000d2e <BUTTON_MATRIX_Scan+0x5ea>
 80009f4:	08007074 	.word	0x08007074
 80009f8:	08007090 	.word	0x08007090
 80009fc:	080070a0 	.word	0x080070a0
 8000a00:	080070b4 	.word	0x080070b4
 8000a04:	2000014c 	.word	0x2000014c
 8000a08:	20000220 	.word	0x20000220
 8000a0c:	20000221 	.word	0x20000221
 8000a10:	20000222 	.word	0x20000222
 8000a14:	20000223 	.word	0x20000223
 8000a18:	20000224 	.word	0x20000224
        {
            uint8_t pressed = (stableCount[c][r] >= DEBOUNCE_TRIGGER);
 8000a1c:	49a0      	ldr	r1, [pc, #640]	@ (8000ca0 <BUTTON_MATRIX_Scan+0x55c>)
 8000a1e:	693a      	ldr	r2, [r7, #16]
 8000a20:	4613      	mov	r3, r2
 8000a22:	009b      	lsls	r3, r3, #2
 8000a24:	4413      	add	r3, r2
 8000a26:	18ca      	adds	r2, r1, r3
 8000a28:	68fb      	ldr	r3, [r7, #12]
 8000a2a:	4413      	add	r3, r2
 8000a2c:	781b      	ldrb	r3, [r3, #0]
 8000a2e:	2b03      	cmp	r3, #3
 8000a30:	bf8c      	ite	hi
 8000a32:	2301      	movhi	r3, #1
 8000a34:	2300      	movls	r3, #0
 8000a36:	b2db      	uxtb	r3, r3
 8000a38:	717b      	strb	r3, [r7, #5]

            /* --------------------------------------------------------
             * PRESS EDGE
             * -------------------------------------------------------- */
            if(pressed && !key_matrix[c][r])
 8000a3a:	797b      	ldrb	r3, [r7, #5]
 8000a3c:	2b00      	cmp	r3, #0
 8000a3e:	f000 80e0 	beq.w	8000c02 <BUTTON_MATRIX_Scan+0x4be>
 8000a42:	4998      	ldr	r1, [pc, #608]	@ (8000ca4 <BUTTON_MATRIX_Scan+0x560>)
 8000a44:	693a      	ldr	r2, [r7, #16]
 8000a46:	4613      	mov	r3, r2
 8000a48:	009b      	lsls	r3, r3, #2
 8000a4a:	4413      	add	r3, r2
 8000a4c:	18ca      	adds	r2, r1, r3
 8000a4e:	68fb      	ldr	r3, [r7, #12]
 8000a50:	4413      	add	r3, r2
 8000a52:	781b      	ldrb	r3, [r3, #0]
 8000a54:	2b00      	cmp	r3, #0
 8000a56:	f040 80d4 	bne.w	8000c02 <BUTTON_MATRIX_Scan+0x4be>
            {
                key_matrix[c][r] = 1;
 8000a5a:	4992      	ldr	r1, [pc, #584]	@ (8000ca4 <BUTTON_MATRIX_Scan+0x560>)
 8000a5c:	693a      	ldr	r2, [r7, #16]
 8000a5e:	4613      	mov	r3, r2
 8000a60:	009b      	lsls	r3, r3, #2
 8000a62:	4413      	add	r3, r2
 8000a64:	18ca      	adds	r2, r1, r3
 8000a66:	68fb      	ldr	r3, [r7, #12]
 8000a68:	4413      	add	r3, r2
 8000a6a:	2201      	movs	r2, #1
 8000a6c:	701a      	strb	r2, [r3, #0]
                pressStart[c][r] = HAL_GetTick();
 8000a6e:	f003 fa73 	bl	8003f58 <HAL_GetTick>
 8000a72:	4601      	mov	r1, r0
 8000a74:	488c      	ldr	r0, [pc, #560]	@ (8000ca8 <BUTTON_MATRIX_Scan+0x564>)
 8000a76:	693a      	ldr	r2, [r7, #16]
 8000a78:	4613      	mov	r3, r2
 8000a7a:	009b      	lsls	r3, r3, #2
 8000a7c:	4413      	add	r3, r2
 8000a7e:	68fa      	ldr	r2, [r7, #12]
 8000a80:	4413      	add	r3, r2
 8000a82:	f840 1023 	str.w	r1, [r0, r3, lsl #2]
                longActive[c][r] = 0;
 8000a86:	4989      	ldr	r1, [pc, #548]	@ (8000cac <BUTTON_MATRIX_Scan+0x568>)
 8000a88:	693a      	ldr	r2, [r7, #16]
 8000a8a:	4613      	mov	r3, r2
 8000a8c:	009b      	lsls	r3, r3, #2
 8000a8e:	4413      	add	r3, r2
 8000a90:	18ca      	adds	r2, r1, r3
 8000a92:	68fb      	ldr	r3, [r7, #12]
 8000a94:	4413      	add	r3, r2
 8000a96:	2200      	movs	r2, #0
 8000a98:	701a      	strb	r2, [r3, #0]

                /* Lock / Unlock — always respond, bypass power/lock */
                if(c == 4 && r == 3) { LCD_SetLock(1); continue; }
 8000a9a:	693b      	ldr	r3, [r7, #16]
 8000a9c:	2b04      	cmp	r3, #4
 8000a9e:	d106      	bne.n	8000aae <BUTTON_MATRIX_Scan+0x36a>
 8000aa0:	68fb      	ldr	r3, [r7, #12]
 8000aa2:	2b03      	cmp	r3, #3
 8000aa4:	d103      	bne.n	8000aae <BUTTON_MATRIX_Scan+0x36a>
 8000aa6:	2001      	movs	r0, #1
 8000aa8:	f000 fa46 	bl	8000f38 <LCD_SetLock>
 8000aac:	e13c      	b.n	8000d28 <BUTTON_MATRIX_Scan+0x5e4>
                if(c == 4 && r == 0) { LCD_SetLock(0); continue; }
 8000aae:	693b      	ldr	r3, [r7, #16]
 8000ab0:	2b04      	cmp	r3, #4
 8000ab2:	d106      	bne.n	8000ac2 <BUTTON_MATRIX_Scan+0x37e>
 8000ab4:	68fb      	ldr	r3, [r7, #12]
 8000ab6:	2b00      	cmp	r3, #0
 8000ab8:	d103      	bne.n	8000ac2 <BUTTON_MATRIX_Scan+0x37e>
 8000aba:	2000      	movs	r0, #0
 8000abc:	f000 fa3c 	bl	8000f38 <LCD_SetLock>
 8000ac0:	e132      	b.n	8000d28 <BUTTON_MATRIX_Scan+0x5e4>
                 * LCD_ToggleReverse() flips reverseMode AND pushes the
                 * indicator icon to DWIN IA 0x6A internally, using the same
                 * lcd_set_icon primitive as the proven test packet. The
                 * local mirror g_reverseState is only for Live Expressions.
                 * -------------------------------------------------------- */
                if(c == 6 && r == 3)
 8000ac2:	693b      	ldr	r3, [r7, #16]
 8000ac4:	2b06      	cmp	r3, #6
 8000ac6:	d119      	bne.n	8000afc <BUTTON_MATRIX_Scan+0x3b8>
 8000ac8:	68fb      	ldr	r3, [r7, #12]
 8000aca:	2b03      	cmp	r3, #3
 8000acc:	d116      	bne.n	8000afc <BUTTON_MATRIX_Scan+0x3b8>
                {
                    if(!LCD_IsLocked() && LCD_IsPowerOn())
 8000ace:	f000 fa6f 	bl	8000fb0 <LCD_IsLocked>
 8000ad2:	4603      	mov	r3, r0
 8000ad4:	2b00      	cmp	r3, #0
 8000ad6:	f040 8122 	bne.w	8000d1e <BUTTON_MATRIX_Scan+0x5da>
 8000ada:	f000 fa73 	bl	8000fc4 <LCD_IsPowerOn>
 8000ade:	4603      	mov	r3, r0
 8000ae0:	2b00      	cmp	r3, #0
 8000ae2:	f000 811c 	beq.w	8000d1e <BUTTON_MATRIX_Scan+0x5da>
                    {
                        g_reverseState ^= 1;   /* mirror for Live Expressions */
 8000ae6:	4b72      	ldr	r3, [pc, #456]	@ (8000cb0 <BUTTON_MATRIX_Scan+0x56c>)
 8000ae8:	781b      	ldrb	r3, [r3, #0]
 8000aea:	b2db      	uxtb	r3, r3
 8000aec:	f083 0301 	eor.w	r3, r3, #1
 8000af0:	b2da      	uxtb	r2, r3
 8000af2:	4b6f      	ldr	r3, [pc, #444]	@ (8000cb0 <BUTTON_MATRIX_Scan+0x56c>)
 8000af4:	701a      	strb	r2, [r3, #0]
                        LCD_ToggleReverse();   /* flips reverseMode + icon 0x6A */
 8000af6:	f000 fab3 	bl	8001060 <LCD_ToggleReverse>
                    }
                    continue;
 8000afa:	e110      	b.n	8000d1e <BUTTON_MATRIX_Scan+0x5da>
                }

                /* Power — always respond */
                if(c == 6 && r == 0) { LCD_TogglePower(); continue; }
 8000afc:	693b      	ldr	r3, [r7, #16]
 8000afe:	2b06      	cmp	r3, #6
 8000b00:	d105      	bne.n	8000b0e <BUTTON_MATRIX_Scan+0x3ca>
 8000b02:	68fb      	ldr	r3, [r7, #12]
 8000b04:	2b00      	cmp	r3, #0
 8000b06:	d102      	bne.n	8000b0e <BUTTON_MATRIX_Scan+0x3ca>
 8000b08:	f000 fa66 	bl	8000fd8 <LCD_TogglePower>
 8000b0c:	e10c      	b.n	8000d28 <BUTTON_MATRIX_Scan+0x5e4>

                /* All keys below gated by lock and power state */
                if(LCD_IsLocked() || !LCD_IsPowerOn()) continue;
 8000b0e:	f000 fa4f 	bl	8000fb0 <LCD_IsLocked>
 8000b12:	4603      	mov	r3, r0
 8000b14:	2b00      	cmp	r3, #0
 8000b16:	f040 8104 	bne.w	8000d22 <BUTTON_MATRIX_Scan+0x5de>
 8000b1a:	f000 fa53 	bl	8000fc4 <LCD_IsPowerOn>
 8000b1e:	4603      	mov	r3, r0
 8000b20:	2b00      	cmp	r3, #0
 8000b22:	f000 80fe 	beq.w	8000d22 <BUTTON_MATRIX_Scan+0x5de>

                /* ---- Special / navigation keys (col 1) ---- */
                if(c == 1 && r == 3) { LCD_HandleKey(CMD_GOBACK);  continue; }
 8000b26:	693b      	ldr	r3, [r7, #16]
 8000b28:	2b01      	cmp	r3, #1
 8000b2a:	d106      	bne.n	8000b3a <BUTTON_MATRIX_Scan+0x3f6>
 8000b2c:	68fb      	ldr	r3, [r7, #12]
 8000b2e:	2b03      	cmp	r3, #3
 8000b30:	d103      	bne.n	8000b3a <BUTTON_MATRIX_Scan+0x3f6>
 8000b32:	20f0      	movs	r0, #240	@ 0xf0
 8000b34:	f000 fdfe 	bl	8001734 <LCD_HandleKey>
 8000b38:	e0f6      	b.n	8000d28 <BUTTON_MATRIX_Scan+0x5e4>
                if(c == 1 && r == 0) { LCD_HandleKey(CMD_ACCEPT);  continue; }
 8000b3a:	693b      	ldr	r3, [r7, #16]
 8000b3c:	2b01      	cmp	r3, #1
 8000b3e:	d106      	bne.n	8000b4e <BUTTON_MATRIX_Scan+0x40a>
 8000b40:	68fb      	ldr	r3, [r7, #12]
 8000b42:	2b00      	cmp	r3, #0
 8000b44:	d103      	bne.n	8000b4e <BUTTON_MATRIX_Scan+0x40a>
 8000b46:	20f1      	movs	r0, #241	@ 0xf1
 8000b48:	f000 fdf4 	bl	8001734 <LCD_HandleKey>
 8000b4c:	e0ec      	b.n	8000d28 <BUTTON_MATRIX_Scan+0x5e4>
                if(c == 1 && r == 2) { LCD_HandleKey(CMD_DETAILS); continue; }
 8000b4e:	693b      	ldr	r3, [r7, #16]
 8000b50:	2b01      	cmp	r3, #1
 8000b52:	d106      	bne.n	8000b62 <BUTTON_MATRIX_Scan+0x41e>
 8000b54:	68fb      	ldr	r3, [r7, #12]
 8000b56:	2b02      	cmp	r3, #2
 8000b58:	d103      	bne.n	8000b62 <BUTTON_MATRIX_Scan+0x41e>
 8000b5a:	20f2      	movs	r0, #242	@ 0xf2
 8000b5c:	f000 fdea 	bl	8001734 <LCD_HandleKey>
 8000b60:	e0e2      	b.n	8000d28 <BUTTON_MATRIX_Scan+0x5e4>
                if(c == 1 && r == 1) { LCD_ShowSensorPage(PAGE_SETTING); continue; }
 8000b62:	693b      	ldr	r3, [r7, #16]
 8000b64:	2b01      	cmp	r3, #1
 8000b66:	d106      	bne.n	8000b76 <BUTTON_MATRIX_Scan+0x432>
 8000b68:	68fb      	ldr	r3, [r7, #12]
 8000b6a:	2b01      	cmp	r3, #1
 8000b6c:	d103      	bne.n	8000b76 <BUTTON_MATRIX_Scan+0x432>
 8000b6e:	2015      	movs	r0, #21
 8000b70:	f001 fe2e 	bl	80027d0 <LCD_ShowSensorPage>
 8000b74:	e0d8      	b.n	8000d28 <BUTTON_MATRIX_Scan+0x5e4>

                /* ---- Memory single press → RECALL mode ---- */
                if(c == 5 && r == 3) { LCD_ShowMemoryPage(MEM_MODE_RECALL); continue; }
 8000b76:	693b      	ldr	r3, [r7, #16]
 8000b78:	2b05      	cmp	r3, #5
 8000b7a:	d106      	bne.n	8000b8a <BUTTON_MATRIX_Scan+0x446>
 8000b7c:	68fb      	ldr	r3, [r7, #12]
 8000b7e:	2b03      	cmp	r3, #3
 8000b80:	d103      	bne.n	8000b8a <BUTTON_MATRIX_Scan+0x446>
 8000b82:	2002      	movs	r0, #2
 8000b84:	f001 ff0c 	bl	80029a0 <LCD_ShowMemoryPage>
 8000b88:	e0ce      	b.n	8000d28 <BUTTON_MATRIX_Scan+0x5e4>

                /* ---- Cursor keys (col 0) ---- */
                if(c == 0)
 8000b8a:	693b      	ldr	r3, [r7, #16]
 8000b8c:	2b00      	cmp	r3, #0
 8000b8e:	d119      	bne.n	8000bc4 <BUTTON_MATRIX_Scan+0x480>
                {
                    if(r == 3) LCD_HandleKey(CMD_CURSOR_UP);
 8000b90:	68fb      	ldr	r3, [r7, #12]
 8000b92:	2b03      	cmp	r3, #3
 8000b94:	d102      	bne.n	8000b9c <BUTTON_MATRIX_Scan+0x458>
 8000b96:	20f3      	movs	r0, #243	@ 0xf3
 8000b98:	f000 fdcc 	bl	8001734 <LCD_HandleKey>
                    if(r == 0) LCD_HandleKey(CMD_CURSOR_DOWN);
 8000b9c:	68fb      	ldr	r3, [r7, #12]
 8000b9e:	2b00      	cmp	r3, #0
 8000ba0:	d102      	bne.n	8000ba8 <BUTTON_MATRIX_Scan+0x464>
 8000ba2:	20f4      	movs	r0, #244	@ 0xf4
 8000ba4:	f000 fdc6 	bl	8001734 <LCD_HandleKey>
                    if(r == 1) LCD_HandleKey(CMD_CURSOR_LEFT);
 8000ba8:	68fb      	ldr	r3, [r7, #12]
 8000baa:	2b01      	cmp	r3, #1
 8000bac:	d102      	bne.n	8000bb4 <BUTTON_MATRIX_Scan+0x470>
 8000bae:	20f5      	movs	r0, #245	@ 0xf5
 8000bb0:	f000 fdc0 	bl	8001734 <LCD_HandleKey>
                    if(r == 2) LCD_HandleKey(CMD_CURSOR_RIGHT);
 8000bb4:	68fb      	ldr	r3, [r7, #12]
 8000bb6:	2b02      	cmp	r3, #2
 8000bb8:	f040 80b5 	bne.w	8000d26 <BUTTON_MATRIX_Scan+0x5e2>
 8000bbc:	20f6      	movs	r0, #246	@ 0xf6
 8000bbe:	f000 fdb9 	bl	8001734 <LCD_HandleKey>
                    continue;
 8000bc2:	e0b0      	b.n	8000d26 <BUTTON_MATRIX_Scan+0x5e2>
                }

                /* ---- Motor keys ---- */
                uint8_t cmd = keyCmdCode[c][r];
 8000bc4:	493b      	ldr	r1, [pc, #236]	@ (8000cb4 <BUTTON_MATRIX_Scan+0x570>)
 8000bc6:	693a      	ldr	r2, [r7, #16]
 8000bc8:	4613      	mov	r3, r2
 8000bca:	009b      	lsls	r3, r3, #2
 8000bcc:	4413      	add	r3, r2
 8000bce:	18ca      	adds	r2, r1, r3
 8000bd0:	68fb      	ldr	r3, [r7, #12]
 8000bd2:	4413      	add	r3, r2
 8000bd4:	781b      	ldrb	r3, [r3, #0]
 8000bd6:	713b      	strb	r3, [r7, #4]
                if(cmd)
 8000bd8:	793b      	ldrb	r3, [r7, #4]
 8000bda:	2b00      	cmp	r3, #0
 8000bdc:	d06c      	beq.n	8000cb8 <BUTTON_MATRIX_Scan+0x574>
                {
                    ACTION_SendCommand(cmd);
 8000bde:	793b      	ldrb	r3, [r7, #4]
 8000be0:	4618      	mov	r0, r3
 8000be2:	f7ff fb87 	bl	80002f4 <ACTION_SendCommand>
                    LCD_HandleKey(cmd);
 8000be6:	793b      	ldrb	r3, [r7, #4]
 8000be8:	4618      	mov	r0, r3
 8000bea:	f000 fda3 	bl	8001734 <LCD_HandleKey>
                    if(Sensor_IsActive())
 8000bee:	f002 fcbf 	bl	8003570 <Sensor_IsActive>
 8000bf2:	4603      	mov	r3, r0
 8000bf4:	2b00      	cmp	r3, #0
 8000bf6:	d05f      	beq.n	8000cb8 <BUTTON_MATRIX_Scan+0x574>
                        Sensor_ProcessKeys(cmd);
 8000bf8:	793b      	ldrb	r3, [r7, #4]
 8000bfa:	4618      	mov	r0, r3
 8000bfc:	f002 fd80 	bl	8003700 <Sensor_ProcessKeys>
            {
 8000c00:	e05a      	b.n	8000cb8 <BUTTON_MATRIX_Scan+0x574>
            }

            /* --------------------------------------------------------
             * HELD → start long-press animation for motor keys
             * -------------------------------------------------------- */
            else if(pressed && key_matrix[c][r] && !longActive[c][r])
 8000c02:	797b      	ldrb	r3, [r7, #5]
 8000c04:	2b00      	cmp	r3, #0
 8000c06:	d058      	beq.n	8000cba <BUTTON_MATRIX_Scan+0x576>
 8000c08:	4926      	ldr	r1, [pc, #152]	@ (8000ca4 <BUTTON_MATRIX_Scan+0x560>)
 8000c0a:	693a      	ldr	r2, [r7, #16]
 8000c0c:	4613      	mov	r3, r2
 8000c0e:	009b      	lsls	r3, r3, #2
 8000c10:	4413      	add	r3, r2
 8000c12:	18ca      	adds	r2, r1, r3
 8000c14:	68fb      	ldr	r3, [r7, #12]
 8000c16:	4413      	add	r3, r2
 8000c18:	781b      	ldrb	r3, [r3, #0]
 8000c1a:	2b00      	cmp	r3, #0
 8000c1c:	d04d      	beq.n	8000cba <BUTTON_MATRIX_Scan+0x576>
 8000c1e:	4923      	ldr	r1, [pc, #140]	@ (8000cac <BUTTON_MATRIX_Scan+0x568>)
 8000c20:	693a      	ldr	r2, [r7, #16]
 8000c22:	4613      	mov	r3, r2
 8000c24:	009b      	lsls	r3, r3, #2
 8000c26:	4413      	add	r3, r2
 8000c28:	18ca      	adds	r2, r1, r3
 8000c2a:	68fb      	ldr	r3, [r7, #12]
 8000c2c:	4413      	add	r3, r2
 8000c2e:	781b      	ldrb	r3, [r3, #0]
 8000c30:	2b00      	cmp	r3, #0
 8000c32:	d142      	bne.n	8000cba <BUTTON_MATRIX_Scan+0x576>
            {
                uint8_t cmd = keyCmdCode[c][r];
 8000c34:	491f      	ldr	r1, [pc, #124]	@ (8000cb4 <BUTTON_MATRIX_Scan+0x570>)
 8000c36:	693a      	ldr	r2, [r7, #16]
 8000c38:	4613      	mov	r3, r2
 8000c3a:	009b      	lsls	r3, r3, #2
 8000c3c:	4413      	add	r3, r2
 8000c3e:	18ca      	adds	r2, r1, r3
 8000c40:	68fb      	ldr	r3, [r7, #12]
 8000c42:	4413      	add	r3, r2
 8000c44:	781b      	ldrb	r3, [r3, #0]
 8000c46:	70fb      	strb	r3, [r7, #3]
                if(cmd && !LCD_IsLocked() && LCD_IsPowerOn() &&
 8000c48:	78fb      	ldrb	r3, [r7, #3]
 8000c4a:	2b00      	cmp	r3, #0
 8000c4c:	d035      	beq.n	8000cba <BUTTON_MATRIX_Scan+0x576>
 8000c4e:	f000 f9af 	bl	8000fb0 <LCD_IsLocked>
 8000c52:	4603      	mov	r3, r0
 8000c54:	2b00      	cmp	r3, #0
 8000c56:	d130      	bne.n	8000cba <BUTTON_MATRIX_Scan+0x576>
 8000c58:	f000 f9b4 	bl	8000fc4 <LCD_IsPowerOn>
 8000c5c:	4603      	mov	r3, r0
 8000c5e:	2b00      	cmp	r3, #0
 8000c60:	d02b      	beq.n	8000cba <BUTTON_MATRIX_Scan+0x576>
                   (HAL_GetTick() - pressStart[c][r]) >= LONG_PRESS_TIME)
 8000c62:	f003 f979 	bl	8003f58 <HAL_GetTick>
 8000c66:	4601      	mov	r1, r0
 8000c68:	480f      	ldr	r0, [pc, #60]	@ (8000ca8 <BUTTON_MATRIX_Scan+0x564>)
 8000c6a:	693a      	ldr	r2, [r7, #16]
 8000c6c:	4613      	mov	r3, r2
 8000c6e:	009b      	lsls	r3, r3, #2
 8000c70:	4413      	add	r3, r2
 8000c72:	68fa      	ldr	r2, [r7, #12]
 8000c74:	4413      	add	r3, r2
 8000c76:	f850 3023 	ldr.w	r3, [r0, r3, lsl #2]
 8000c7a:	1acb      	subs	r3, r1, r3
                if(cmd && !LCD_IsLocked() && LCD_IsPowerOn() &&
 8000c7c:	f5b3 7f16 	cmp.w	r3, #600	@ 0x258
 8000c80:	d31b      	bcc.n	8000cba <BUTTON_MATRIX_Scan+0x576>
                {
                    longActive[c][r] = 1;
 8000c82:	490a      	ldr	r1, [pc, #40]	@ (8000cac <BUTTON_MATRIX_Scan+0x568>)
 8000c84:	693a      	ldr	r2, [r7, #16]
 8000c86:	4613      	mov	r3, r2
 8000c88:	009b      	lsls	r3, r3, #2
 8000c8a:	4413      	add	r3, r2
 8000c8c:	18ca      	adds	r2, r1, r3
 8000c8e:	68fb      	ldr	r3, [r7, #12]
 8000c90:	4413      	add	r3, r2
 8000c92:	2201      	movs	r2, #1
 8000c94:	701a      	strb	r2, [r3, #0]
                    LCD_StartCircularAnim(cmd);
 8000c96:	78fb      	ldrb	r3, [r7, #3]
 8000c98:	4618      	mov	r0, r3
 8000c9a:	f001 fce5 	bl	8002668 <LCD_StartCircularAnim>
 8000c9e:	e00c      	b.n	8000cba <BUTTON_MATRIX_Scan+0x576>
 8000ca0:	2000014c 	.word	0x2000014c
 8000ca4:	20000128 	.word	0x20000128
 8000ca8:	20000170 	.word	0x20000170
 8000cac:	200001fc 	.word	0x200001fc
 8000cb0:	2000021f 	.word	0x2000021f
 8000cb4:	08007050 	.word	0x08007050
            {
 8000cb8:	bf00      	nop
            }

            /* --------------------------------------------------------
             * RELEASE EDGE
             * -------------------------------------------------------- */
            if(!pressed && key_matrix[c][r])
 8000cba:	797b      	ldrb	r3, [r7, #5]
 8000cbc:	2b00      	cmp	r3, #0
 8000cbe:	d133      	bne.n	8000d28 <BUTTON_MATRIX_Scan+0x5e4>
 8000cc0:	4927      	ldr	r1, [pc, #156]	@ (8000d60 <BUTTON_MATRIX_Scan+0x61c>)
 8000cc2:	693a      	ldr	r2, [r7, #16]
 8000cc4:	4613      	mov	r3, r2
 8000cc6:	009b      	lsls	r3, r3, #2
 8000cc8:	4413      	add	r3, r2
 8000cca:	18ca      	adds	r2, r1, r3
 8000ccc:	68fb      	ldr	r3, [r7, #12]
 8000cce:	4413      	add	r3, r2
 8000cd0:	781b      	ldrb	r3, [r3, #0]
 8000cd2:	2b00      	cmp	r3, #0
 8000cd4:	d028      	beq.n	8000d28 <BUTTON_MATRIX_Scan+0x5e4>
            {
                key_matrix[c][r] = 0;
 8000cd6:	4922      	ldr	r1, [pc, #136]	@ (8000d60 <BUTTON_MATRIX_Scan+0x61c>)
 8000cd8:	693a      	ldr	r2, [r7, #16]
 8000cda:	4613      	mov	r3, r2
 8000cdc:	009b      	lsls	r3, r3, #2
 8000cde:	4413      	add	r3, r2
 8000ce0:	18ca      	adds	r2, r1, r3
 8000ce2:	68fb      	ldr	r3, [r7, #12]
 8000ce4:	4413      	add	r3, r2
 8000ce6:	2200      	movs	r2, #0
 8000ce8:	701a      	strb	r2, [r3, #0]
                longActive[c][r] = 0;
 8000cea:	491e      	ldr	r1, [pc, #120]	@ (8000d64 <BUTTON_MATRIX_Scan+0x620>)
 8000cec:	693a      	ldr	r2, [r7, #16]
 8000cee:	4613      	mov	r3, r2
 8000cf0:	009b      	lsls	r3, r3, #2
 8000cf2:	4413      	add	r3, r2
 8000cf4:	18ca      	adds	r2, r1, r3
 8000cf6:	68fb      	ldr	r3, [r7, #12]
 8000cf8:	4413      	add	r3, r2
 8000cfa:	2200      	movs	r2, #0
 8000cfc:	701a      	strb	r2, [r3, #0]
                if(!LCD_IsLocked() && LCD_IsPowerOn())
 8000cfe:	f000 f957 	bl	8000fb0 <LCD_IsLocked>
 8000d02:	4603      	mov	r3, r0
 8000d04:	2b00      	cmp	r3, #0
 8000d06:	d10f      	bne.n	8000d28 <BUTTON_MATRIX_Scan+0x5e4>
 8000d08:	f000 f95c 	bl	8000fc4 <LCD_IsPowerOn>
 8000d0c:	4603      	mov	r3, r0
 8000d0e:	2b00      	cmp	r3, #0
 8000d10:	d00a      	beq.n	8000d28 <BUTTON_MATRIX_Scan+0x5e4>
                {
                    ACTION_SendCommand(0x00);   /* stop motor */
 8000d12:	2000      	movs	r0, #0
 8000d14:	f7ff faee 	bl	80002f4 <ACTION_SendCommand>
                    LCD_StopCircularAnim();
 8000d18:	f001 fcce 	bl	80026b8 <LCD_StopCircularAnim>
 8000d1c:	e004      	b.n	8000d28 <BUTTON_MATRIX_Scan+0x5e4>
                    continue;
 8000d1e:	bf00      	nop
 8000d20:	e002      	b.n	8000d28 <BUTTON_MATRIX_Scan+0x5e4>
                if(LCD_IsLocked() || !LCD_IsPowerOn()) continue;
 8000d22:	bf00      	nop
 8000d24:	e000      	b.n	8000d28 <BUTTON_MATRIX_Scan+0x5e4>
                    continue;
 8000d26:	bf00      	nop
        for(int r = 0; r < 5; r++)
 8000d28:	68fb      	ldr	r3, [r7, #12]
 8000d2a:	3301      	adds	r3, #1
 8000d2c:	60fb      	str	r3, [r7, #12]
 8000d2e:	68fb      	ldr	r3, [r7, #12]
 8000d30:	2b04      	cmp	r3, #4
 8000d32:	f77f ae73 	ble.w	8000a1c <BUTTON_MATRIX_Scan+0x2d8>
    for(int c = 0; c < 7; c++)
 8000d36:	693b      	ldr	r3, [r7, #16]
 8000d38:	3301      	adds	r3, #1
 8000d3a:	613b      	str	r3, [r7, #16]
 8000d3c:	693b      	ldr	r3, [r7, #16]
 8000d3e:	2b06      	cmp	r3, #6
 8000d40:	f77f ae55 	ble.w	80009ee <BUTTON_MATRIX_Scan+0x2aa>
 8000d44:	e008      	b.n	8000d58 <BUTTON_MATRIX_Scan+0x614>
            return;
 8000d46:	bf00      	nop
 8000d48:	e006      	b.n	8000d58 <BUTTON_MATRIX_Scan+0x614>
            return;
 8000d4a:	bf00      	nop
 8000d4c:	e004      	b.n	8000d58 <BUTTON_MATRIX_Scan+0x614>
            return;
 8000d4e:	bf00      	nop
 8000d50:	e002      	b.n	8000d58 <BUTTON_MATRIX_Scan+0x614>
            return;
 8000d52:	bf00      	nop
 8000d54:	e000      	b.n	8000d58 <BUTTON_MATRIX_Scan+0x614>
            return;
 8000d56:	bf00      	nop
                }
            }
        }
    }
}
 8000d58:	3720      	adds	r7, #32
 8000d5a:	46bd      	mov	sp, r7
 8000d5c:	bd80      	pop	{r7, pc}
 8000d5e:	bf00      	nop
 8000d60:	20000128 	.word	0x20000128
 8000d64:	200001fc 	.word	0x200001fc

08000d68 <LCD_HMI_Init>:
volatile uint32_t dbg_lcd_anti_page_restored   = 0;
/* ======================================================================
 * Init
 * ====================================================================== */
void LCD_HMI_Init(UART_HandleTypeDef *huart)
{
 8000d68:	b480      	push	{r7}
 8000d6a:	b085      	sub	sp, #20
 8000d6c:	af00      	add	r7, sp, #0
 8000d6e:	6078      	str	r0, [r7, #4]
    lcd_uart    = huart;
 8000d70:	4a15      	ldr	r2, [pc, #84]	@ (8000dc8 <LCD_HMI_Init+0x60>)
 8000d72:	687b      	ldr	r3, [r7, #4]
 8000d74:	6013      	str	r3, [r2, #0]
    currentPage = 0xFF;
 8000d76:	4b15      	ldr	r3, [pc, #84]	@ (8000dcc <LCD_HMI_Init+0x64>)
 8000d78:	22ff      	movs	r2, #255	@ 0xff
 8000d7a:	701a      	strb	r2, [r3, #0]
    uiState     = UI_HOME;
 8000d7c:	4b14      	ldr	r3, [pc, #80]	@ (8000dd0 <LCD_HMI_Init+0x68>)
 8000d7e:	2200      	movs	r2, #0
 8000d80:	701a      	strb	r2, [r3, #0]
    parentState = UI_HOME;
 8000d82:	4b14      	ldr	r3, [pc, #80]	@ (8000dd4 <LCD_HMI_Init+0x6c>)
 8000d84:	2200      	movs	r2, #0
 8000d86:	701a      	strb	r2, [r3, #0]
    lcdLocked   = 0;
 8000d88:	4b13      	ldr	r3, [pc, #76]	@ (8000dd8 <LCD_HMI_Init+0x70>)
 8000d8a:	2200      	movs	r2, #0
 8000d8c:	701a      	strb	r2, [r3, #0]
    lcdPowerOn  = 1;
 8000d8e:	4b13      	ldr	r3, [pc, #76]	@ (8000ddc <LCD_HMI_Init+0x74>)
 8000d90:	2201      	movs	r2, #1
 8000d92:	701a      	strb	r2, [r3, #0]
    homeActive  = 0;
 8000d94:	4b12      	ldr	r3, [pc, #72]	@ (8000de0 <LCD_HMI_Init+0x78>)
 8000d96:	2200      	movs	r2, #0
 8000d98:	701a      	strb	r2, [r3, #0]
    reverseMode = 0;
 8000d9a:	4b12      	ldr	r3, [pc, #72]	@ (8000de4 <LCD_HMI_Init+0x7c>)
 8000d9c:	2200      	movs	r2, #0
 8000d9e:	701a      	strb	r2, [r3, #0]

    /* All feature pages are enabled by default at init.
     * The featureEnable[] array is already initialised to all-1 above,
     * but reset explicitly here in case Init() is called more than once. */
    for(uint8_t i = 0; i < ACCEPT_FIELD_COUNT; i++)
 8000da0:	2300      	movs	r3, #0
 8000da2:	73fb      	strb	r3, [r7, #15]
 8000da4:	e006      	b.n	8000db4 <LCD_HMI_Init+0x4c>
        featureEnable[i] = 1;
 8000da6:	7bfb      	ldrb	r3, [r7, #15]
 8000da8:	4a0f      	ldr	r2, [pc, #60]	@ (8000de8 <LCD_HMI_Init+0x80>)
 8000daa:	2101      	movs	r1, #1
 8000dac:	54d1      	strb	r1, [r2, r3]
    for(uint8_t i = 0; i < ACCEPT_FIELD_COUNT; i++)
 8000dae:	7bfb      	ldrb	r3, [r7, #15]
 8000db0:	3301      	adds	r3, #1
 8000db2:	73fb      	strb	r3, [r7, #15]
 8000db4:	7bfb      	ldrb	r3, [r7, #15]
 8000db6:	2b06      	cmp	r3, #6
 8000db8:	d9f5      	bls.n	8000da6 <LCD_HMI_Init+0x3e>
}
 8000dba:	bf00      	nop
 8000dbc:	bf00      	nop
 8000dbe:	3714      	adds	r7, #20
 8000dc0:	46bd      	mov	sp, r7
 8000dc2:	bc80      	pop	{r7}
 8000dc4:	4770      	bx	lr
 8000dc6:	bf00      	nop
 8000dc8:	20000228 	.word	0x20000228
 8000dcc:	20000000 	.word	0x20000000
 8000dd0:	2000022c 	.word	0x2000022c
 8000dd4:	2000022d 	.word	0x2000022d
 8000dd8:	20000251 	.word	0x20000251
 8000ddc:	20000002 	.word	0x20000002
 8000de0:	20000284 	.word	0x20000284
 8000de4:	20000250 	.word	0x20000250
 8000de8:	20000004 	.word	0x20000004

08000dec <lcd_set_page>:

/* ======================================================================
 * Low-level DWIN primitives
 * ====================================================================== */
void lcd_set_page(uint8_t page)
{
 8000dec:	b580      	push	{r7, lr}
 8000dee:	b086      	sub	sp, #24
 8000df0:	af00      	add	r7, sp, #0
 8000df2:	4603      	mov	r3, r0
 8000df4:	71fb      	strb	r3, [r7, #7]
    if(lcd_uart == NULL)    return;
 8000df6:	4b17      	ldr	r3, [pc, #92]	@ (8000e54 <lcd_set_page+0x68>)
 8000df8:	681b      	ldr	r3, [r3, #0]
 8000dfa:	2b00      	cmp	r3, #0
 8000dfc:	d024      	beq.n	8000e48 <lcd_set_page+0x5c>
    if(page == currentPage) return;
 8000dfe:	4b16      	ldr	r3, [pc, #88]	@ (8000e58 <lcd_set_page+0x6c>)
 8000e00:	781b      	ldrb	r3, [r3, #0]
 8000e02:	79fa      	ldrb	r2, [r7, #7]
 8000e04:	429a      	cmp	r2, r3
 8000e06:	d021      	beq.n	8000e4c <lcd_set_page+0x60>
    uint8_t pkt[10] = {0x5A,0xA5,0x07,0x82,0x00,0x84,0x5A,0x01,0x00,page};
 8000e08:	235a      	movs	r3, #90	@ 0x5a
 8000e0a:	733b      	strb	r3, [r7, #12]
 8000e0c:	23a5      	movs	r3, #165	@ 0xa5
 8000e0e:	737b      	strb	r3, [r7, #13]
 8000e10:	2307      	movs	r3, #7
 8000e12:	73bb      	strb	r3, [r7, #14]
 8000e14:	2382      	movs	r3, #130	@ 0x82
 8000e16:	73fb      	strb	r3, [r7, #15]
 8000e18:	2300      	movs	r3, #0
 8000e1a:	743b      	strb	r3, [r7, #16]
 8000e1c:	2384      	movs	r3, #132	@ 0x84
 8000e1e:	747b      	strb	r3, [r7, #17]
 8000e20:	235a      	movs	r3, #90	@ 0x5a
 8000e22:	74bb      	strb	r3, [r7, #18]
 8000e24:	2301      	movs	r3, #1
 8000e26:	74fb      	strb	r3, [r7, #19]
 8000e28:	2300      	movs	r3, #0
 8000e2a:	753b      	strb	r3, [r7, #20]
 8000e2c:	79fb      	ldrb	r3, [r7, #7]
 8000e2e:	757b      	strb	r3, [r7, #21]
    HAL_UART_Transmit(lcd_uart, pkt, 10, 100);
 8000e30:	4b08      	ldr	r3, [pc, #32]	@ (8000e54 <lcd_set_page+0x68>)
 8000e32:	6818      	ldr	r0, [r3, #0]
 8000e34:	f107 010c 	add.w	r1, r7, #12
 8000e38:	2364      	movs	r3, #100	@ 0x64
 8000e3a:	220a      	movs	r2, #10
 8000e3c:	f004 face 	bl	80053dc <HAL_UART_Transmit>
    currentPage = page;
 8000e40:	4a05      	ldr	r2, [pc, #20]	@ (8000e58 <lcd_set_page+0x6c>)
 8000e42:	79fb      	ldrb	r3, [r7, #7]
 8000e44:	7013      	strb	r3, [r2, #0]
 8000e46:	e002      	b.n	8000e4e <lcd_set_page+0x62>
    if(lcd_uart == NULL)    return;
 8000e48:	bf00      	nop
 8000e4a:	e000      	b.n	8000e4e <lcd_set_page+0x62>
    if(page == currentPage) return;
 8000e4c:	bf00      	nop
}
 8000e4e:	3718      	adds	r7, #24
 8000e50:	46bd      	mov	sp, r7
 8000e52:	bd80      	pop	{r7, pc}
 8000e54:	20000228 	.word	0x20000228
 8000e58:	20000000 	.word	0x20000000

08000e5c <lcd_force_page>:

/* Force a page switch even if currentPage already matches.
 * Used when the DWIN may have been reset (power cycle, startup).        */
static void lcd_force_page(uint8_t page)
{
 8000e5c:	b580      	push	{r7, lr}
 8000e5e:	b082      	sub	sp, #8
 8000e60:	af00      	add	r7, sp, #0
 8000e62:	4603      	mov	r3, r0
 8000e64:	71fb      	strb	r3, [r7, #7]
    currentPage = 0xFF;
 8000e66:	4b05      	ldr	r3, [pc, #20]	@ (8000e7c <lcd_force_page+0x20>)
 8000e68:	22ff      	movs	r2, #255	@ 0xff
 8000e6a:	701a      	strb	r2, [r3, #0]
    lcd_set_page(page);
 8000e6c:	79fb      	ldrb	r3, [r7, #7]
 8000e6e:	4618      	mov	r0, r3
 8000e70:	f7ff ffbc 	bl	8000dec <lcd_set_page>
}
 8000e74:	bf00      	nop
 8000e76:	3708      	adds	r7, #8
 8000e78:	46bd      	mov	sp, r7
 8000e7a:	bd80      	pop	{r7, pc}
 8000e7c:	20000000 	.word	0x20000000

08000e80 <lcd_set_icon>:

void lcd_set_icon(uint8_t vp, uint8_t value)
{
 8000e80:	b580      	push	{r7, lr}
 8000e82:	b084      	sub	sp, #16
 8000e84:	af00      	add	r7, sp, #0
 8000e86:	4603      	mov	r3, r0
 8000e88:	460a      	mov	r2, r1
 8000e8a:	71fb      	strb	r3, [r7, #7]
 8000e8c:	4613      	mov	r3, r2
 8000e8e:	71bb      	strb	r3, [r7, #6]
    if(lcd_uart == NULL) return;
 8000e90:	4b10      	ldr	r3, [pc, #64]	@ (8000ed4 <lcd_set_icon+0x54>)
 8000e92:	681b      	ldr	r3, [r3, #0]
 8000e94:	2b00      	cmp	r3, #0
 8000e96:	d018      	beq.n	8000eca <lcd_set_icon+0x4a>
    uint8_t pkt[8] = {0x5A,0xA5,0x05,0x82,0x00,vp,0x00,value};
 8000e98:	235a      	movs	r3, #90	@ 0x5a
 8000e9a:	723b      	strb	r3, [r7, #8]
 8000e9c:	23a5      	movs	r3, #165	@ 0xa5
 8000e9e:	727b      	strb	r3, [r7, #9]
 8000ea0:	2305      	movs	r3, #5
 8000ea2:	72bb      	strb	r3, [r7, #10]
 8000ea4:	2382      	movs	r3, #130	@ 0x82
 8000ea6:	72fb      	strb	r3, [r7, #11]
 8000ea8:	2300      	movs	r3, #0
 8000eaa:	733b      	strb	r3, [r7, #12]
 8000eac:	79fb      	ldrb	r3, [r7, #7]
 8000eae:	737b      	strb	r3, [r7, #13]
 8000eb0:	2300      	movs	r3, #0
 8000eb2:	73bb      	strb	r3, [r7, #14]
 8000eb4:	79bb      	ldrb	r3, [r7, #6]
 8000eb6:	73fb      	strb	r3, [r7, #15]
    HAL_UART_Transmit(lcd_uart, pkt, 8, 100);
 8000eb8:	4b06      	ldr	r3, [pc, #24]	@ (8000ed4 <lcd_set_icon+0x54>)
 8000eba:	6818      	ldr	r0, [r3, #0]
 8000ebc:	f107 0108 	add.w	r1, r7, #8
 8000ec0:	2364      	movs	r3, #100	@ 0x64
 8000ec2:	2208      	movs	r2, #8
 8000ec4:	f004 fa8a 	bl	80053dc <HAL_UART_Transmit>
 8000ec8:	e000      	b.n	8000ecc <lcd_set_icon+0x4c>
    if(lcd_uart == NULL) return;
 8000eca:	bf00      	nop
}
 8000ecc:	3710      	adds	r7, #16
 8000ece:	46bd      	mov	sp, r7
 8000ed0:	bd80      	pop	{r7, pc}
 8000ed2:	bf00      	nop
 8000ed4:	20000228 	.word	0x20000228

08000ed8 <lcd_set_state_value16>:
{
    lcd_set_icon(vp, value);
}

void lcd_set_state_value16(uint8_t vp, uint16_t value)
{
 8000ed8:	b580      	push	{r7, lr}
 8000eda:	b084      	sub	sp, #16
 8000edc:	af00      	add	r7, sp, #0
 8000ede:	4603      	mov	r3, r0
 8000ee0:	460a      	mov	r2, r1
 8000ee2:	71fb      	strb	r3, [r7, #7]
 8000ee4:	4613      	mov	r3, r2
 8000ee6:	80bb      	strh	r3, [r7, #4]
    if(lcd_uart == NULL) return;
 8000ee8:	4b12      	ldr	r3, [pc, #72]	@ (8000f34 <lcd_set_state_value16+0x5c>)
 8000eea:	681b      	ldr	r3, [r3, #0]
 8000eec:	2b00      	cmp	r3, #0
 8000eee:	d01c      	beq.n	8000f2a <lcd_set_state_value16+0x52>
    uint8_t pkt[8] =
 8000ef0:	235a      	movs	r3, #90	@ 0x5a
 8000ef2:	723b      	strb	r3, [r7, #8]
 8000ef4:	23a5      	movs	r3, #165	@ 0xa5
 8000ef6:	727b      	strb	r3, [r7, #9]
 8000ef8:	2305      	movs	r3, #5
 8000efa:	72bb      	strb	r3, [r7, #10]
 8000efc:	2382      	movs	r3, #130	@ 0x82
 8000efe:	72fb      	strb	r3, [r7, #11]
 8000f00:	2300      	movs	r3, #0
 8000f02:	733b      	strb	r3, [r7, #12]
 8000f04:	79fb      	ldrb	r3, [r7, #7]
 8000f06:	737b      	strb	r3, [r7, #13]
    {
        0x5A, 0xA5, 0x05, 0x82, 0x00, vp,
        (uint8_t)(value >> 8), (uint8_t)(value & 0xFF)
 8000f08:	88bb      	ldrh	r3, [r7, #4]
 8000f0a:	0a1b      	lsrs	r3, r3, #8
 8000f0c:	b29b      	uxth	r3, r3
 8000f0e:	b2db      	uxtb	r3, r3
    uint8_t pkt[8] =
 8000f10:	73bb      	strb	r3, [r7, #14]
        (uint8_t)(value >> 8), (uint8_t)(value & 0xFF)
 8000f12:	88bb      	ldrh	r3, [r7, #4]
 8000f14:	b2db      	uxtb	r3, r3
    uint8_t pkt[8] =
 8000f16:	73fb      	strb	r3, [r7, #15]
    };
    HAL_UART_Transmit(lcd_uart, pkt, 8, 100);
 8000f18:	4b06      	ldr	r3, [pc, #24]	@ (8000f34 <lcd_set_state_value16+0x5c>)
 8000f1a:	6818      	ldr	r0, [r3, #0]
 8000f1c:	f107 0108 	add.w	r1, r7, #8
 8000f20:	2364      	movs	r3, #100	@ 0x64
 8000f22:	2208      	movs	r2, #8
 8000f24:	f004 fa5a 	bl	80053dc <HAL_UART_Transmit>
 8000f28:	e000      	b.n	8000f2c <lcd_set_state_value16+0x54>
    if(lcd_uart == NULL) return;
 8000f2a:	bf00      	nop
}
 8000f2c:	3710      	adds	r7, #16
 8000f2e:	46bd      	mov	sp, r7
 8000f30:	bd80      	pop	{r7, pc}
 8000f32:	bf00      	nop
 8000f34:	20000228 	.word	0x20000228

08000f38 <LCD_SetLock>:

/* ======================================================================
 * Lock / Unlock
 * ====================================================================== */
void LCD_SetLock(uint8_t state)
{
 8000f38:	b580      	push	{r7, lr}
 8000f3a:	b082      	sub	sp, #8
 8000f3c:	af00      	add	r7, sp, #0
 8000f3e:	4603      	mov	r3, r0
 8000f40:	71fb      	strb	r3, [r7, #7]
    if(state)
 8000f42:	79fb      	ldrb	r3, [r7, #7]
 8000f44:	2b00      	cmp	r3, #0
 8000f46:	d010      	beq.n	8000f6a <LCD_SetLock+0x32>
    {
        /* ----- LOCK ----- */
        lcdLocked  = 1;
 8000f48:	4b14      	ldr	r3, [pc, #80]	@ (8000f9c <LCD_SetLock+0x64>)
 8000f4a:	2201      	movs	r2, #1
 8000f4c:	701a      	strb	r2, [r3, #0]
        homeActive = 0;
 8000f4e:	4b14      	ldr	r3, [pc, #80]	@ (8000fa0 <LCD_SetLock+0x68>)
 8000f50:	2200      	movs	r2, #0
 8000f52:	701a      	strb	r2, [r3, #0]
        animActive = 0;
 8000f54:	4b13      	ldr	r3, [pc, #76]	@ (8000fa4 <LCD_SetLock+0x6c>)
 8000f56:	2200      	movs	r2, #0
 8000f58:	701a      	strb	r2, [r3, #0]

        lcd_set_page(PAGE_LOCK);
 8000f5a:	200c      	movs	r0, #12
 8000f5c:	f7ff ff46 	bl	8000dec <lcd_set_page>
        lcd_set_icon(IA_LOCK, IS_LOCKED);
 8000f60:	2101      	movs	r1, #1
 8000f62:	2047      	movs	r0, #71	@ 0x47
 8000f64:	f7ff ff8c 	bl	8000e80 <lcd_set_icon>
        homeActive = 0;
        homeTimer  = HAL_GetTick();

        lcd_set_page(PAGE_HOME);
    }
}
 8000f68:	e014      	b.n	8000f94 <LCD_SetLock+0x5c>
        lcd_set_icon(IA_LOCK, IS_UNLOCKED);
 8000f6a:	2100      	movs	r1, #0
 8000f6c:	2047      	movs	r0, #71	@ 0x47
 8000f6e:	f7ff ff87 	bl	8000e80 <lcd_set_icon>
        lcdLocked  = 0;
 8000f72:	4b0a      	ldr	r3, [pc, #40]	@ (8000f9c <LCD_SetLock+0x64>)
 8000f74:	2200      	movs	r2, #0
 8000f76:	701a      	strb	r2, [r3, #0]
        uiState    = UI_HOME;
 8000f78:	4b0b      	ldr	r3, [pc, #44]	@ (8000fa8 <LCD_SetLock+0x70>)
 8000f7a:	2200      	movs	r2, #0
 8000f7c:	701a      	strb	r2, [r3, #0]
        homeActive = 0;
 8000f7e:	4b08      	ldr	r3, [pc, #32]	@ (8000fa0 <LCD_SetLock+0x68>)
 8000f80:	2200      	movs	r2, #0
 8000f82:	701a      	strb	r2, [r3, #0]
        homeTimer  = HAL_GetTick();
 8000f84:	f002 ffe8 	bl	8003f58 <HAL_GetTick>
 8000f88:	4603      	mov	r3, r0
 8000f8a:	4a08      	ldr	r2, [pc, #32]	@ (8000fac <LCD_SetLock+0x74>)
 8000f8c:	6013      	str	r3, [r2, #0]
        lcd_set_page(PAGE_HOME);
 8000f8e:	2004      	movs	r0, #4
 8000f90:	f7ff ff2c 	bl	8000dec <lcd_set_page>
}
 8000f94:	bf00      	nop
 8000f96:	3708      	adds	r7, #8
 8000f98:	46bd      	mov	sp, r7
 8000f9a:	bd80      	pop	{r7, pc}
 8000f9c:	20000251 	.word	0x20000251
 8000fa0:	20000284 	.word	0x20000284
 8000fa4:	20000248 	.word	0x20000248
 8000fa8:	2000022c 	.word	0x2000022c
 8000fac:	20000280 	.word	0x20000280

08000fb0 <LCD_IsLocked>:

uint8_t LCD_IsLocked(void)  { return lcdLocked;  }
 8000fb0:	b480      	push	{r7}
 8000fb2:	af00      	add	r7, sp, #0
 8000fb4:	4b02      	ldr	r3, [pc, #8]	@ (8000fc0 <LCD_IsLocked+0x10>)
 8000fb6:	781b      	ldrb	r3, [r3, #0]
 8000fb8:	4618      	mov	r0, r3
 8000fba:	46bd      	mov	sp, r7
 8000fbc:	bc80      	pop	{r7}
 8000fbe:	4770      	bx	lr
 8000fc0:	20000251 	.word	0x20000251

08000fc4 <LCD_IsPowerOn>:
uint8_t LCD_IsPowerOn(void) { return lcdPowerOn; }
 8000fc4:	b480      	push	{r7}
 8000fc6:	af00      	add	r7, sp, #0
 8000fc8:	4b02      	ldr	r3, [pc, #8]	@ (8000fd4 <LCD_IsPowerOn+0x10>)
 8000fca:	781b      	ldrb	r3, [r3, #0]
 8000fcc:	4618      	mov	r0, r3
 8000fce:	46bd      	mov	sp, r7
 8000fd0:	bc80      	pop	{r7}
 8000fd2:	4770      	bx	lr
 8000fd4:	20000002 	.word	0x20000002

08000fd8 <LCD_TogglePower>:
 *   2. Show Thank-You page (PAGE_POWER_OFF) for a visible moment.
 *   3. Wait 800 ms so the user actually sees it.
 *   4. Cut relay — DWIN loses power.
 * ====================================================================== */
void LCD_TogglePower(void)
{
 8000fd8:	b580      	push	{r7, lr}
 8000fda:	af00      	add	r7, sp, #0
    lcdPowerOn ^= 1;
 8000fdc:	4b16      	ldr	r3, [pc, #88]	@ (8001038 <LCD_TogglePower+0x60>)
 8000fde:	781b      	ldrb	r3, [r3, #0]
 8000fe0:	f083 0301 	eor.w	r3, r3, #1
 8000fe4:	b2da      	uxtb	r2, r3
 8000fe6:	4b14      	ldr	r3, [pc, #80]	@ (8001038 <LCD_TogglePower+0x60>)
 8000fe8:	701a      	strb	r2, [r3, #0]

    if(lcdPowerOn)
 8000fea:	4b13      	ldr	r3, [pc, #76]	@ (8001038 <LCD_TogglePower+0x60>)
 8000fec:	781b      	ldrb	r3, [r3, #0]
 8000fee:	2b00      	cmp	r3, #0
 8000ff0:	d00b      	beq.n	800100a <LCD_TogglePower+0x32>
    {
        /* ---- POWER ON ---- */
        RELAY_SET(1);
 8000ff2:	2201      	movs	r2, #1
 8000ff4:	2102      	movs	r1, #2
 8000ff6:	4811      	ldr	r0, [pc, #68]	@ (800103c <LCD_TogglePower+0x64>)
 8000ff8:	f003 fc33 	bl	8004862 <HAL_GPIO_WritePin>
        HAL_Delay(1000);          /* let DWIN power rail and UART settle    */
 8000ffc:	f44f 707a 	mov.w	r0, #1000	@ 0x3e8
 8001000:	f002 ffb4 	bl	8003f6c <HAL_Delay>
        LCD_ShowStartupSequence();
 8001004:	f000 f842 	bl	800108c <LCD_ShowStartupSequence>
        lcd_force_page(PAGE_POWER_OFF);
        HAL_Delay(800);                 /* hold long enough to be readable  */

        RELAY_SET(0);                   /* cut power AFTER page is visible  */
    }
}
 8001008:	e014      	b.n	8001034 <LCD_TogglePower+0x5c>
        homeActive = 0;
 800100a:	4b0d      	ldr	r3, [pc, #52]	@ (8001040 <LCD_TogglePower+0x68>)
 800100c:	2200      	movs	r2, #0
 800100e:	701a      	strb	r2, [r3, #0]
        animActive = 0;
 8001010:	4b0c      	ldr	r3, [pc, #48]	@ (8001044 <LCD_TogglePower+0x6c>)
 8001012:	2200      	movs	r2, #0
 8001014:	701a      	strb	r2, [r3, #0]
        ACTION_SendCommand(0x00);       /* stop any active motor            */
 8001016:	2000      	movs	r0, #0
 8001018:	f7ff f96c 	bl	80002f4 <ACTION_SendCommand>
        lcd_force_page(PAGE_POWER_OFF);
 800101c:	2000      	movs	r0, #0
 800101e:	f7ff ff1d 	bl	8000e5c <lcd_force_page>
        HAL_Delay(800);                 /* hold long enough to be readable  */
 8001022:	f44f 7048 	mov.w	r0, #800	@ 0x320
 8001026:	f002 ffa1 	bl	8003f6c <HAL_Delay>
        RELAY_SET(0);                   /* cut power AFTER page is visible  */
 800102a:	2200      	movs	r2, #0
 800102c:	2102      	movs	r1, #2
 800102e:	4803      	ldr	r0, [pc, #12]	@ (800103c <LCD_TogglePower+0x64>)
 8001030:	f003 fc17 	bl	8004862 <HAL_GPIO_WritePin>
}
 8001034:	bf00      	nop
 8001036:	bd80      	pop	{r7, pc}
 8001038:	20000002 	.word	0x20000002
 800103c:	40010800 	.word	0x40010800
 8001040:	20000284 	.word	0x20000284
 8001044:	20000248 	.word	0x20000248

08001048 <LCD_ClearCollisionAlertState>:
 * written, so the button handler only has to call this one function.
 *   press 1 -> reverseMode = 1 -> icon 0x6A = 1 (reversed)
 *   press 2 -> reverseMode = 0 -> icon 0x6A = 0 (normal)
 * ====================================================================== */
static void LCD_ClearCollisionAlertState(void)
{
 8001048:	b480      	push	{r7}
 800104a:	af00      	add	r7, sp, #0
    collisionAlertActive = 0;
 800104c:	4b03      	ldr	r3, [pc, #12]	@ (800105c <LCD_ClearCollisionAlertState+0x14>)
 800104e:	2200      	movs	r2, #0
 8001050:	701a      	strb	r2, [r3, #0]
}
 8001052:	bf00      	nop
 8001054:	46bd      	mov	sp, r7
 8001056:	bc80      	pop	{r7}
 8001058:	4770      	bx	lr
 800105a:	bf00      	nop
 800105c:	20000255 	.word	0x20000255

08001060 <LCD_ToggleReverse>:
void LCD_ToggleReverse(void)
{
 8001060:	b580      	push	{r7, lr}
 8001062:	af00      	add	r7, sp, #0
    reverseMode ^= 1;
 8001064:	4b08      	ldr	r3, [pc, #32]	@ (8001088 <LCD_ToggleReverse+0x28>)
 8001066:	781b      	ldrb	r3, [r3, #0]
 8001068:	b2db      	uxtb	r3, r3
 800106a:	f083 0301 	eor.w	r3, r3, #1
 800106e:	b2da      	uxtb	r2, r3
 8001070:	4b05      	ldr	r3, [pc, #20]	@ (8001088 <LCD_ToggleReverse+0x28>)
 8001072:	701a      	strb	r2, [r3, #0]
    lcd_set_icon(IA_REVERSE, reverseMode);   /* {5A A5 05 82 00 6A 00 IS} */
 8001074:	4b04      	ldr	r3, [pc, #16]	@ (8001088 <LCD_ToggleReverse+0x28>)
 8001076:	781b      	ldrb	r3, [r3, #0]
 8001078:	b2db      	uxtb	r3, r3
 800107a:	4619      	mov	r1, r3
 800107c:	206a      	movs	r0, #106	@ 0x6a
 800107e:	f7ff feff 	bl	8000e80 <lcd_set_icon>
}
 8001082:	bf00      	nop
 8001084:	bd80      	pop	{r7, pc}
 8001086:	bf00      	nop
 8001088:	20000250 	.word	0x20000250

0800108c <LCD_ShowStartupSequence>:
 * Plays logo pages 01 → 02 → 03, then lands on HOME (or LOCK).
 * lcd_force_page() is used throughout so the stale currentPage cache
 * never silently suppresses a UART transmission.
 * ====================================================================== */
void LCD_ShowStartupSequence(void)
{
 800108c:	b580      	push	{r7, lr}
 800108e:	af00      	add	r7, sp, #0
    homeActive = 0;
 8001090:	4b1c      	ldr	r3, [pc, #112]	@ (8001104 <LCD_ShowStartupSequence+0x78>)
 8001092:	2200      	movs	r2, #0
 8001094:	701a      	strb	r2, [r3, #0]
    animActive = 0;
 8001096:	4b1c      	ldr	r3, [pc, #112]	@ (8001108 <LCD_ShowStartupSequence+0x7c>)
 8001098:	2200      	movs	r2, #0
 800109a:	701a      	strb	r2, [r3, #0]

    /* Logo / splash sequence */
    lcd_force_page(0x01); HAL_Delay(300);
 800109c:	2001      	movs	r0, #1
 800109e:	f7ff fedd 	bl	8000e5c <lcd_force_page>
 80010a2:	f44f 7096 	mov.w	r0, #300	@ 0x12c
 80010a6:	f002 ff61 	bl	8003f6c <HAL_Delay>
    lcd_force_page(0x02); HAL_Delay(300);
 80010aa:	2002      	movs	r0, #2
 80010ac:	f7ff fed6 	bl	8000e5c <lcd_force_page>
 80010b0:	f44f 7096 	mov.w	r0, #300	@ 0x12c
 80010b4:	f002 ff5a 	bl	8003f6c <HAL_Delay>
    lcd_force_page(0x03); HAL_Delay(300);
 80010b8:	2003      	movs	r0, #3
 80010ba:	f7ff fecf 	bl	8000e5c <lcd_force_page>
 80010be:	f44f 7096 	mov.w	r0, #300	@ 0x12c
 80010c2:	f002 ff53 	bl	8003f6c <HAL_Delay>

    /* Land on the correct operational page */
    if(lcdLocked)
 80010c6:	4b11      	ldr	r3, [pc, #68]	@ (800110c <LCD_ShowStartupSequence+0x80>)
 80010c8:	781b      	ldrb	r3, [r3, #0]
 80010ca:	2b00      	cmp	r3, #0
 80010cc:	d00a      	beq.n	80010e4 <LCD_ShowStartupSequence+0x58>
    {
        uiState = UI_HOME;
 80010ce:	4b10      	ldr	r3, [pc, #64]	@ (8001110 <LCD_ShowStartupSequence+0x84>)
 80010d0:	2200      	movs	r2, #0
 80010d2:	701a      	strb	r2, [r3, #0]
        lcd_force_page(PAGE_LOCK);
 80010d4:	200c      	movs	r0, #12
 80010d6:	f7ff fec1 	bl	8000e5c <lcd_force_page>
        lcd_set_icon(IA_LOCK, IS_LOCKED);
 80010da:	2101      	movs	r1, #1
 80010dc:	2047      	movs	r0, #71	@ 0x47
 80010de:	f7ff fecf 	bl	8000e80 <lcd_set_icon>
 80010e2:	e005      	b.n	80010f0 <LCD_ShowStartupSequence+0x64>
    }
    else
    {
        uiState = UI_HOME;
 80010e4:	4b0a      	ldr	r3, [pc, #40]	@ (8001110 <LCD_ShowStartupSequence+0x84>)
 80010e6:	2200      	movs	r2, #0
 80010e8:	701a      	strb	r2, [r3, #0]
        lcd_force_page(PAGE_HOME);
 80010ea:	2004      	movs	r0, #4
 80010ec:	f7ff feb6 	bl	8000e5c <lcd_force_page>
    }

    /* Restore the reverse indicator to its current state after the
     * page cache was reset by the splash sequence. */
    lcd_set_icon(IA_REVERSE, reverseMode);
 80010f0:	4b08      	ldr	r3, [pc, #32]	@ (8001114 <LCD_ShowStartupSequence+0x88>)
 80010f2:	781b      	ldrb	r3, [r3, #0]
 80010f4:	b2db      	uxtb	r3, r3
 80010f6:	4619      	mov	r1, r3
 80010f8:	206a      	movs	r0, #106	@ 0x6a
 80010fa:	f7ff fec1 	bl	8000e80 <lcd_set_icon>
}
 80010fe:	bf00      	nop
 8001100:	bd80      	pop	{r7, pc}
 8001102:	bf00      	nop
 8001104:	20000284 	.word	0x20000284
 8001108:	20000248 	.word	0x20000248
 800110c:	20000251 	.word	0x20000251
 8001110:	2000022c 	.word	0x2000022c
 8001114:	20000250 	.word	0x20000250

08001118 <MapReverse>:
 * which gives the intentionally reversed trend direction.
 * Only Trend (0x03) / Reverse-Trend (0x04) are affected — every other
 * motion (height, back, tilt, slide) is left untouched in both modes.
 * ====================================================================== */
static uint8_t MapReverse(uint8_t cmd)
{
 8001118:	b480      	push	{r7}
 800111a:	b083      	sub	sp, #12
 800111c:	af00      	add	r7, sp, #0
 800111e:	4603      	mov	r3, r0
 8001120:	71fb      	strb	r3, [r7, #7]
    if(reverseMode) return cmd;   /* reverse ON  -> reversed trend         */
 8001122:	4b0b      	ldr	r3, [pc, #44]	@ (8001150 <MapReverse+0x38>)
 8001124:	781b      	ldrb	r3, [r3, #0]
 8001126:	b2db      	uxtb	r3, r3
 8001128:	2b00      	cmp	r3, #0
 800112a:	d001      	beq.n	8001130 <MapReverse+0x18>
 800112c:	79fb      	ldrb	r3, [r7, #7]
 800112e:	e00a      	b.n	8001146 <MapReverse+0x2e>
    switch(cmd)                   /* reverse OFF -> corrected (swap 03/04)  */
 8001130:	79fb      	ldrb	r3, [r7, #7]
 8001132:	2b03      	cmp	r3, #3
 8001134:	d002      	beq.n	800113c <MapReverse+0x24>
 8001136:	2b04      	cmp	r3, #4
 8001138:	d002      	beq.n	8001140 <MapReverse+0x28>
 800113a:	e003      	b.n	8001144 <MapReverse+0x2c>
    {
    case 0x03: return 0x04;   /* Trend         -> Reverse Trend */
 800113c:	2304      	movs	r3, #4
 800113e:	e002      	b.n	8001146 <MapReverse+0x2e>
    case 0x04: return 0x03;   /* Reverse Trend -> Trend         */
 8001140:	2303      	movs	r3, #3
 8001142:	e000      	b.n	8001146 <MapReverse+0x2e>
    default:   return cmd;    /* everything else unaffected     */
 8001144:	79fb      	ldrb	r3, [r7, #7]
    }
}
 8001146:	4618      	mov	r0, r3
 8001148:	370c      	adds	r7, #12
 800114a:	46bd      	mov	sp, r7
 800114c:	bc80      	pop	{r7}
 800114e:	4770      	bx	lr
 8001150:	20000250 	.word	0x20000250

08001154 <LCD_ResetHomeTimer>:

/* ======================================================================
 * Private helpers
 * ====================================================================== */
static void LCD_ResetHomeTimer(void)
{
 8001154:	b580      	push	{r7, lr}
 8001156:	af00      	add	r7, sp, #0
    homeActive = 1;
 8001158:	4b04      	ldr	r3, [pc, #16]	@ (800116c <LCD_ResetHomeTimer+0x18>)
 800115a:	2201      	movs	r2, #1
 800115c:	701a      	strb	r2, [r3, #0]
    homeTimer  = HAL_GetTick();
 800115e:	f002 fefb 	bl	8003f58 <HAL_GetTick>
 8001162:	4603      	mov	r3, r0
 8001164:	4a02      	ldr	r2, [pc, #8]	@ (8001170 <LCD_ResetHomeTimer+0x1c>)
 8001166:	6013      	str	r3, [r2, #0]
}
 8001168:	bf00      	nop
 800116a:	bd80      	pop	{r7, pc}
 800116c:	20000284 	.word	0x20000284
 8001170:	20000280 	.word	0x20000280

08001174 <LCD_FeatureEnabled>:
 *   4  Slide position page
 *   5  Flex-floor page
 *   6  Reserved (blocked when off, no additional action)
 * ====================================================================== */
static uint8_t LCD_FeatureEnabled(uint8_t index)
{
 8001174:	b480      	push	{r7}
 8001176:	b083      	sub	sp, #12
 8001178:	af00      	add	r7, sp, #0
 800117a:	4603      	mov	r3, r0
 800117c:	71fb      	strb	r3, [r7, #7]
    if(index >= ACCEPT_FIELD_COUNT) return 0;
 800117e:	79fb      	ldrb	r3, [r7, #7]
 8001180:	2b06      	cmp	r3, #6
 8001182:	d901      	bls.n	8001188 <LCD_FeatureEnabled+0x14>
 8001184:	2300      	movs	r3, #0
 8001186:	e007      	b.n	8001198 <LCD_FeatureEnabled+0x24>
    return featureEnable[index] ? 1u : 0u;
 8001188:	79fb      	ldrb	r3, [r7, #7]
 800118a:	4a06      	ldr	r2, [pc, #24]	@ (80011a4 <LCD_FeatureEnabled+0x30>)
 800118c:	5cd3      	ldrb	r3, [r2, r3]
 800118e:	2b00      	cmp	r3, #0
 8001190:	d001      	beq.n	8001196 <LCD_FeatureEnabled+0x22>
 8001192:	2301      	movs	r3, #1
 8001194:	e000      	b.n	8001198 <LCD_FeatureEnabled+0x24>
 8001196:	2300      	movs	r3, #0
}
 8001198:	4618      	mov	r0, r3
 800119a:	370c      	adds	r7, #12
 800119c:	46bd      	mov	sp, r7
 800119e:	bc80      	pop	{r7}
 80011a0:	4770      	bx	lr
 80011a2:	bf00      	nop
 80011a4:	20000004 	.word	0x20000004

080011a8 <LCD_IsAntiCollisionEnabled>:
uint8_t LCD_IsAntiCollisionEnabled(void)
{
 80011a8:	b580      	push	{r7, lr}
 80011aa:	af00      	add	r7, sp, #0
    return LCD_FeatureEnabled(LCD_FEATURE_COLLISION);
 80011ac:	2003      	movs	r0, #3
 80011ae:	f7ff ffe1 	bl	8001174 <LCD_FeatureEnabled>
 80011b2:	4603      	mov	r3, r0
}
 80011b4:	4618      	mov	r0, r3
 80011b6:	bd80      	pop	{r7, pc}

080011b8 <LCD_OpenAntiCollisionPage>:
uint8_t LCD_IsCollisionAlertActive(void)
{
    return collisionAlertActive ? 1u : 0u;
}
static void LCD_OpenAntiCollisionPage(uint8_t openedByPacket)
{
 80011b8:	b580      	push	{r7, lr}
 80011ba:	b084      	sub	sp, #16
 80011bc:	af00      	add	r7, sp, #0
 80011be:	4603      	mov	r3, r0
 80011c0:	71fb      	strb	r3, [r7, #7]
     * {5A A5 07 82 00 84 5A 01 00 17} is immediately followed by the icon
     * {5A A5 05 82 00 58 00 01}. The icon is then re-asserted a few times
     * across the render window so the DWIN's default redraw (icon=0) can't
     * leave it blank. Main-loop context -> HAL_Delay is safe.
     */
    if (!LCD_PageAllowed(PAGE_SETTING_ANTI))
 80011c2:	2017      	movs	r0, #23
 80011c4:	f000 f940 	bl	8001448 <LCD_PageAllowed>
 80011c8:	4603      	mov	r3, r0
 80011ca:	2b00      	cmp	r3, #0
 80011cc:	d047      	beq.n	800125e <LCD_OpenAntiCollisionPage+0xa6>
        return;

    homeActive = 0;
 80011ce:	4b26      	ldr	r3, [pc, #152]	@ (8001268 <LCD_OpenAntiCollisionPage+0xb0>)
 80011d0:	2200      	movs	r2, #0
 80011d2:	701a      	strb	r2, [r3, #0]
    animActive = 0;
 80011d4:	4b25      	ldr	r3, [pc, #148]	@ (800126c <LCD_OpenAntiCollisionPage+0xb4>)
 80011d6:	2200      	movs	r2, #0
 80011d8:	701a      	strb	r2, [r3, #0]

    selSetting  = 2;                  /* Setting selector item: Anti */
 80011da:	4b25      	ldr	r3, [pc, #148]	@ (8001270 <LCD_OpenAntiCollisionPage+0xb8>)
 80011dc:	2202      	movs	r2, #2
 80011de:	701a      	strb	r2, [r3, #0]
    uiState     = UI_SETTING_ANTI;
 80011e0:	4b24      	ldr	r3, [pc, #144]	@ (8001274 <LCD_OpenAntiCollisionPage+0xbc>)
 80011e2:	2207      	movs	r2, #7
 80011e4:	701a      	strb	r2, [r3, #0]
    parentState = UI_SETTING;
 80011e6:	4b24      	ldr	r3, [pc, #144]	@ (8001278 <LCD_OpenAntiCollisionPage+0xc0>)
 80011e8:	2205      	movs	r2, #5
 80011ea:	701a      	strb	r2, [r3, #0]

    if (openedByPacket)
 80011ec:	79fb      	ldrb	r3, [r7, #7]
 80011ee:	2b00      	cmp	r3, #0
 80011f0:	d01a      	beq.n	8001228 <LCD_OpenAntiCollisionPage+0x70>
    {
        collisionAlertActive = 1;
 80011f2:	4b22      	ldr	r3, [pc, #136]	@ (800127c <LCD_OpenAntiCollisionPage+0xc4>)
 80011f4:	2201      	movs	r2, #1
 80011f6:	701a      	strb	r2, [r3, #0]

        /* --- page + icon, sent together --- */
        lcd_force_page(PAGE_SETTING_ANTI);              /* 5A A5 07 82 00 84 5A 01 00 17 */
 80011f8:	2017      	movs	r0, #23
 80011fa:	f7ff fe2f 	bl	8000e5c <lcd_force_page>
        lcd_set_icon(IA_ANTI_CURSOR, IS_ANTI_COLLISION);/* 5A A5 05 82 00 58 00 01       */
 80011fe:	2101      	movs	r1, #1
 8001200:	2058      	movs	r0, #88	@ 0x58
 8001202:	f7ff fe3d 	bl	8000e80 <lcd_set_icon>

        /* Re-assert the icon across the page-render window so the DWIN's
         * default redraw (icon = 0) cannot blank it. 3 writes over ~150 ms
         * covers the render without a visible reload (no page command). */
        for(uint8_t i = 0; i < 3; i++)
 8001206:	2300      	movs	r3, #0
 8001208:	73fb      	strb	r3, [r7, #15]
 800120a:	e009      	b.n	8001220 <LCD_OpenAntiCollisionPage+0x68>
        {
            HAL_Delay(ANTI_PAGE_SETTLE_MS);
 800120c:	2032      	movs	r0, #50	@ 0x32
 800120e:	f002 fead 	bl	8003f6c <HAL_Delay>
            lcd_set_icon(IA_ANTI_CURSOR, IS_ANTI_COLLISION);
 8001212:	2101      	movs	r1, #1
 8001214:	2058      	movs	r0, #88	@ 0x58
 8001216:	f7ff fe33 	bl	8000e80 <lcd_set_icon>
        for(uint8_t i = 0; i < 3; i++)
 800121a:	7bfb      	ldrb	r3, [r7, #15]
 800121c:	3301      	adds	r3, #1
 800121e:	73fb      	strb	r3, [r7, #15]
 8001220:	7bfb      	ldrb	r3, [r7, #15]
 8001222:	2b02      	cmp	r3, #2
 8001224:	d9f2      	bls.n	800120c <LCD_OpenAntiCollisionPage+0x54>
 8001226:	e01b      	b.n	8001260 <LCD_OpenAntiCollisionPage+0xa8>
        }
    }
    else
    {
        collisionAlertActive = 0;
 8001228:	4b14      	ldr	r3, [pc, #80]	@ (800127c <LCD_OpenAntiCollisionPage+0xc4>)
 800122a:	2200      	movs	r2, #0
 800122c:	701a      	strb	r2, [r3, #0]

        /* Manual open from Setting menu: page + normal icon (0x58 = 0). */
        lcd_force_page(PAGE_SETTING_ANTI);
 800122e:	2017      	movs	r0, #23
 8001230:	f7ff fe14 	bl	8000e5c <lcd_force_page>
        lcd_set_icon(IA_ANTI_CURSOR, IS_ANTI_NORMAL);
 8001234:	2100      	movs	r1, #0
 8001236:	2058      	movs	r0, #88	@ 0x58
 8001238:	f7ff fe22 	bl	8000e80 <lcd_set_icon>

        for(uint8_t i = 0; i < 3; i++)
 800123c:	2300      	movs	r3, #0
 800123e:	73bb      	strb	r3, [r7, #14]
 8001240:	e009      	b.n	8001256 <LCD_OpenAntiCollisionPage+0x9e>
        {
            HAL_Delay(ANTI_PAGE_SETTLE_MS);
 8001242:	2032      	movs	r0, #50	@ 0x32
 8001244:	f002 fe92 	bl	8003f6c <HAL_Delay>
            lcd_set_icon(IA_ANTI_CURSOR, IS_ANTI_NORMAL);
 8001248:	2100      	movs	r1, #0
 800124a:	2058      	movs	r0, #88	@ 0x58
 800124c:	f7ff fe18 	bl	8000e80 <lcd_set_icon>
        for(uint8_t i = 0; i < 3; i++)
 8001250:	7bbb      	ldrb	r3, [r7, #14]
 8001252:	3301      	adds	r3, #1
 8001254:	73bb      	strb	r3, [r7, #14]
 8001256:	7bbb      	ldrb	r3, [r7, #14]
 8001258:	2b02      	cmp	r3, #2
 800125a:	d9f2      	bls.n	8001242 <LCD_OpenAntiCollisionPage+0x8a>
 800125c:	e000      	b.n	8001260 <LCD_OpenAntiCollisionPage+0xa8>
        return;
 800125e:	bf00      	nop
        }
    }
}
 8001260:	3710      	adds	r7, #16
 8001262:	46bd      	mov	sp, r7
 8001264:	bd80      	pop	{r7, pc}
 8001266:	bf00      	nop
 8001268:	20000284 	.word	0x20000284
 800126c:	20000248 	.word	0x20000248
 8001270:	2000023d 	.word	0x2000023d
 8001274:	2000022c 	.word	0x2000022c
 8001278:	2000022d 	.word	0x2000022d
 800127c:	20000255 	.word	0x20000255

08001280 <LCD_ShowCollisionAlert>:


void LCD_ShowCollisionAlert(uint8_t collision)
{
 8001280:	b580      	push	{r7, lr}
 8001282:	b082      	sub	sp, #8
 8001284:	af00      	add	r7, sp, #0
 8001286:	4603      	mov	r3, r0
 8001288:	71fb      	strb	r3, [r7, #7]
    if (!lcdPowerOn || lcdLocked)
 800128a:	4b1b      	ldr	r3, [pc, #108]	@ (80012f8 <LCD_ShowCollisionAlert+0x78>)
 800128c:	781b      	ldrb	r3, [r3, #0]
 800128e:	2b00      	cmp	r3, #0
 8001290:	d02d      	beq.n	80012ee <LCD_ShowCollisionAlert+0x6e>
 8001292:	4b1a      	ldr	r3, [pc, #104]	@ (80012fc <LCD_ShowCollisionAlert+0x7c>)
 8001294:	781b      	ldrb	r3, [r3, #0]
 8001296:	2b00      	cmp	r3, #0
 8001298:	d129      	bne.n	80012ee <LCD_ShowCollisionAlert+0x6e>

    /*
     * Anti Collision is GoBack+Accept feature index 3.
     * If disabled, ignore collision packet and do not disturb UI.
     */
    if (!LCD_FeatureEnabled(LCD_FEATURE_COLLISION))
 800129a:	2003      	movs	r0, #3
 800129c:	f7ff ff6a 	bl	8001174 <LCD_FeatureEnabled>
 80012a0:	4603      	mov	r3, r0
 80012a2:	2b00      	cmp	r3, #0
 80012a4:	d102      	bne.n	80012ac <LCD_ShowCollisionAlert+0x2c>
    {
        LCD_ClearCollisionAlertState();
 80012a6:	f7ff fecf 	bl	8001048 <LCD_ClearCollisionAlertState>
        return;
 80012aa:	e021      	b.n	80012f0 <LCD_ShowCollisionAlert+0x70>
    }

    if (collision)
 80012ac:	79fb      	ldrb	r3, [r7, #7]
 80012ae:	2b00      	cmp	r3, #0
 80012b0:	d003      	beq.n	80012ba <LCD_ShowCollisionAlert+0x3a>
    {
        LCD_OpenAntiCollisionPage(1);
 80012b2:	2001      	movs	r0, #1
 80012b4:	f7ff ff80 	bl	80011b8 <LCD_OpenAntiCollisionPage>
 80012b8:	e01a      	b.n	80012f0 <LCD_ShowCollisionAlert+0x70>
    {
        /*
         * Non-collision packet should clear only packet-opened alert
         * and come back to HOME page.
         */
        if (collisionAlertActive)
 80012ba:	4b11      	ldr	r3, [pc, #68]	@ (8001300 <LCD_ShowCollisionAlert+0x80>)
 80012bc:	781b      	ldrb	r3, [r3, #0]
 80012be:	2b00      	cmp	r3, #0
 80012c0:	d016      	beq.n	80012f0 <LCD_ShowCollisionAlert+0x70>
        {
            LCD_ClearCollisionAlertState();
 80012c2:	f7ff fec1 	bl	8001048 <LCD_ClearCollisionAlertState>
            /*
             * Clear Anti icon before leaving the page.
             * Packet sent:
             * 5A A5 05 82 00 58 00 00
             */
            lcd_set_icon(IA_ANTI_CURSOR, IS_ANTI_NORMAL);
 80012c6:	2100      	movs	r1, #0
 80012c8:	2058      	movs	r0, #88	@ 0x58
 80012ca:	f7ff fdd9 	bl	8000e80 <lcd_set_icon>

            uiState     = UI_HOME;
 80012ce:	4b0d      	ldr	r3, [pc, #52]	@ (8001304 <LCD_ShowCollisionAlert+0x84>)
 80012d0:	2200      	movs	r2, #0
 80012d2:	701a      	strb	r2, [r3, #0]
            parentState = UI_HOME;
 80012d4:	4b0c      	ldr	r3, [pc, #48]	@ (8001308 <LCD_ShowCollisionAlert+0x88>)
 80012d6:	2200      	movs	r2, #0
 80012d8:	701a      	strb	r2, [r3, #0]
            homeActive  = 0;
 80012da:	4b0c      	ldr	r3, [pc, #48]	@ (800130c <LCD_ShowCollisionAlert+0x8c>)
 80012dc:	2200      	movs	r2, #0
 80012de:	701a      	strb	r2, [r3, #0]
            animActive  = 0;
 80012e0:	4b0b      	ldr	r3, [pc, #44]	@ (8001310 <LCD_ShowCollisionAlert+0x90>)
 80012e2:	2200      	movs	r2, #0
 80012e4:	701a      	strb	r2, [r3, #0]

            lcd_force_page(PAGE_HOME);
 80012e6:	2004      	movs	r0, #4
 80012e8:	f7ff fdb8 	bl	8000e5c <lcd_force_page>
 80012ec:	e000      	b.n	80012f0 <LCD_ShowCollisionAlert+0x70>
        return;
 80012ee:	bf00      	nop
        }
    }
}
 80012f0:	3708      	adds	r7, #8
 80012f2:	46bd      	mov	sp, r7
 80012f4:	bd80      	pop	{r7, pc}
 80012f6:	bf00      	nop
 80012f8:	20000002 	.word	0x20000002
 80012fc:	20000251 	.word	0x20000251
 8001300:	20000255 	.word	0x20000255
 8001304:	2000022c 	.word	0x2000022c
 8001308:	2000022d 	.word	0x2000022d
 800130c:	20000284 	.word	0x20000284
 8001310:	20000248 	.word	0x20000248

08001314 <LCD_CollisionAlertRefresh>:

void LCD_CollisionAlertRefresh(void)
{
 8001314:	b580      	push	{r7, lr}
 8001316:	af00      	add	r7, sp, #0
    if(!lcdPowerOn || lcdLocked)                    return;
 8001318:	4b10      	ldr	r3, [pc, #64]	@ (800135c <LCD_CollisionAlertRefresh+0x48>)
 800131a:	781b      	ldrb	r3, [r3, #0]
 800131c:	2b00      	cmp	r3, #0
 800131e:	d017      	beq.n	8001350 <LCD_CollisionAlertRefresh+0x3c>
 8001320:	4b0f      	ldr	r3, [pc, #60]	@ (8001360 <LCD_CollisionAlertRefresh+0x4c>)
 8001322:	781b      	ldrb	r3, [r3, #0]
 8001324:	2b00      	cmp	r3, #0
 8001326:	d113      	bne.n	8001350 <LCD_CollisionAlertRefresh+0x3c>
    if(!collisionAlertActive)                       return;
 8001328:	4b0e      	ldr	r3, [pc, #56]	@ (8001364 <LCD_CollisionAlertRefresh+0x50>)
 800132a:	781b      	ldrb	r3, [r3, #0]
 800132c:	2b00      	cmp	r3, #0
 800132e:	d011      	beq.n	8001354 <LCD_CollisionAlertRefresh+0x40>
    if(!LCD_FeatureEnabled(LCD_FEATURE_COLLISION))  return;
 8001330:	2003      	movs	r0, #3
 8001332:	f7ff ff1f 	bl	8001174 <LCD_FeatureEnabled>
 8001336:	4603      	mov	r3, r0
 8001338:	2b00      	cmp	r3, #0
 800133a:	d00d      	beq.n	8001358 <LCD_CollisionAlertRefresh+0x44>

    /* Icon-only re-assert. NEVER re-force the page here — that is what
     * caused the "icon shows then page reloads" flicker. Re-sending the
     * 0x58 icon packet keeps the collision icon alive against any DWIN
     * redraw (e.g. the 1 Hz RTC write) without reloading the page. */
    dbg_lcd_anti_icon_reasserted++;
 800133c:	4b0a      	ldr	r3, [pc, #40]	@ (8001368 <LCD_CollisionAlertRefresh+0x54>)
 800133e:	681b      	ldr	r3, [r3, #0]
 8001340:	3301      	adds	r3, #1
 8001342:	4a09      	ldr	r2, [pc, #36]	@ (8001368 <LCD_CollisionAlertRefresh+0x54>)
 8001344:	6013      	str	r3, [r2, #0]
    lcd_set_icon(IA_ANTI_CURSOR, IS_ANTI_COLLISION);   /* 5A A5 05 82 00 58 00 01 */
 8001346:	2101      	movs	r1, #1
 8001348:	2058      	movs	r0, #88	@ 0x58
 800134a:	f7ff fd99 	bl	8000e80 <lcd_set_icon>
 800134e:	e004      	b.n	800135a <LCD_CollisionAlertRefresh+0x46>
    if(!lcdPowerOn || lcdLocked)                    return;
 8001350:	bf00      	nop
 8001352:	e002      	b.n	800135a <LCD_CollisionAlertRefresh+0x46>
    if(!collisionAlertActive)                       return;
 8001354:	bf00      	nop
 8001356:	e000      	b.n	800135a <LCD_CollisionAlertRefresh+0x46>
    if(!LCD_FeatureEnabled(LCD_FEATURE_COLLISION))  return;
 8001358:	bf00      	nop
}
 800135a:	bd80      	pop	{r7, pc}
 800135c:	20000002 	.word	0x20000002
 8001360:	20000251 	.word	0x20000251
 8001364:	20000255 	.word	0x20000255
 8001368:	20000288 	.word	0x20000288

0800136c <LCD_DetailsItemAllowed>:
/* Maps a details-page cursor row index to its required feature flag. */
static uint8_t LCD_DetailsItemAllowed(uint8_t item)
{
 800136c:	b580      	push	{r7, lr}
 800136e:	b082      	sub	sp, #8
 8001370:	af00      	add	r7, sp, #0
 8001372:	4603      	mov	r3, r0
 8001374:	71fb      	strb	r3, [r7, #7]
    switch(item)
 8001376:	79fb      	ldrb	r3, [r7, #7]
 8001378:	2b00      	cmp	r3, #0
 800137a:	d002      	beq.n	8001382 <LCD_DetailsItemAllowed+0x16>
 800137c:	2b01      	cmp	r3, #1
 800137e:	d005      	beq.n	800138c <LCD_DetailsItemAllowed+0x20>
 8001380:	e009      	b.n	8001396 <LCD_DetailsItemAllowed+0x2a>
    {
        case 0: return LCD_FeatureEnabled(LCD_FEATURE_REALTIME);
 8001382:	2002      	movs	r0, #2
 8001384:	f7ff fef6 	bl	8001174 <LCD_FeatureEnabled>
 8001388:	4603      	mov	r3, r0
 800138a:	e005      	b.n	8001398 <LCD_DetailsItemAllowed+0x2c>
        case 1: return LCD_FeatureEnabled(LCD_FEATURE_BATTERY);
 800138c:	2000      	movs	r0, #0
 800138e:	f7ff fef1 	bl	8001174 <LCD_FeatureEnabled>
 8001392:	4603      	mov	r3, r0
 8001394:	e000      	b.n	8001398 <LCD_DetailsItemAllowed+0x2c>
        default: return 0;
 8001396:	2300      	movs	r3, #0
    }
}
 8001398:	4618      	mov	r0, r3
 800139a:	3708      	adds	r7, #8
 800139c:	46bd      	mov	sp, r7
 800139e:	bd80      	pop	{r7, pc}

080013a0 <LCD_DetailsHasAnyAllowedItem>:

static uint8_t LCD_DetailsHasAnyAllowedItem(void)
{
 80013a0:	b580      	push	{r7, lr}
 80013a2:	af00      	add	r7, sp, #0
    return (LCD_DetailsItemAllowed(0) || LCD_DetailsItemAllowed(1)) ? 1u : 0u;
 80013a4:	2000      	movs	r0, #0
 80013a6:	f7ff ffe1 	bl	800136c <LCD_DetailsItemAllowed>
 80013aa:	4603      	mov	r3, r0
 80013ac:	2b00      	cmp	r3, #0
 80013ae:	d105      	bne.n	80013bc <LCD_DetailsHasAnyAllowedItem+0x1c>
 80013b0:	2001      	movs	r0, #1
 80013b2:	f7ff ffdb 	bl	800136c <LCD_DetailsItemAllowed>
 80013b6:	4603      	mov	r3, r0
 80013b8:	2b00      	cmp	r3, #0
 80013ba:	d001      	beq.n	80013c0 <LCD_DetailsHasAnyAllowedItem+0x20>
 80013bc:	2301      	movs	r3, #1
 80013be:	e000      	b.n	80013c2 <LCD_DetailsHasAnyAllowedItem+0x22>
 80013c0:	2300      	movs	r3, #0
}
 80013c2:	4618      	mov	r0, r3
 80013c4:	bd80      	pop	{r7, pc}
	...

080013c8 <LCD_DetailsSelectFirstAllowedItem>:

static void LCD_DetailsSelectFirstAllowedItem(void)
{
 80013c8:	b580      	push	{r7, lr}
 80013ca:	af00      	add	r7, sp, #0
    if     (LCD_DetailsItemAllowed(0)) details_cursor = 0;
 80013cc:	2000      	movs	r0, #0
 80013ce:	f7ff ffcd 	bl	800136c <LCD_DetailsItemAllowed>
 80013d2:	4603      	mov	r3, r0
 80013d4:	2b00      	cmp	r3, #0
 80013d6:	d003      	beq.n	80013e0 <LCD_DetailsSelectFirstAllowedItem+0x18>
 80013d8:	4b09      	ldr	r3, [pc, #36]	@ (8001400 <LCD_DetailsSelectFirstAllowedItem+0x38>)
 80013da:	2200      	movs	r2, #0
 80013dc:	701a      	strb	r2, [r3, #0]
    else if(LCD_DetailsItemAllowed(1)) details_cursor = 1;
    else                               details_cursor = 0;   /* fallback */
}
 80013de:	e00c      	b.n	80013fa <LCD_DetailsSelectFirstAllowedItem+0x32>
    else if(LCD_DetailsItemAllowed(1)) details_cursor = 1;
 80013e0:	2001      	movs	r0, #1
 80013e2:	f7ff ffc3 	bl	800136c <LCD_DetailsItemAllowed>
 80013e6:	4603      	mov	r3, r0
 80013e8:	2b00      	cmp	r3, #0
 80013ea:	d003      	beq.n	80013f4 <LCD_DetailsSelectFirstAllowedItem+0x2c>
 80013ec:	4b04      	ldr	r3, [pc, #16]	@ (8001400 <LCD_DetailsSelectFirstAllowedItem+0x38>)
 80013ee:	2201      	movs	r2, #1
 80013f0:	701a      	strb	r2, [r3, #0]
}
 80013f2:	e002      	b.n	80013fa <LCD_DetailsSelectFirstAllowedItem+0x32>
    else                               details_cursor = 0;   /* fallback */
 80013f4:	4b02      	ldr	r3, [pc, #8]	@ (8001400 <LCD_DetailsSelectFirstAllowedItem+0x38>)
 80013f6:	2200      	movs	r2, #0
 80013f8:	701a      	strb	r2, [r3, #0]
}
 80013fa:	bf00      	nop
 80013fc:	bd80      	pop	{r7, pc}
 80013fe:	bf00      	nop
 8001400:	2000022e 	.word	0x2000022e

08001404 <LCD_DetailsMoveCursor>:

/* Move cursor up/down on the Details page, skipping disabled items. */
static void LCD_DetailsMoveCursor(void)
{
 8001404:	b580      	push	{r7, lr}
 8001406:	af00      	add	r7, sp, #0
    if(LCD_DetailsItemAllowed(0) && LCD_DetailsItemAllowed(1))
 8001408:	2000      	movs	r0, #0
 800140a:	f7ff ffaf 	bl	800136c <LCD_DetailsItemAllowed>
 800140e:	4603      	mov	r3, r0
 8001410:	2b00      	cmp	r3, #0
 8001412:	d00d      	beq.n	8001430 <LCD_DetailsMoveCursor+0x2c>
 8001414:	2001      	movs	r0, #1
 8001416:	f7ff ffa9 	bl	800136c <LCD_DetailsItemAllowed>
 800141a:	4603      	mov	r3, r0
 800141c:	2b00      	cmp	r3, #0
 800141e:	d007      	beq.n	8001430 <LCD_DetailsMoveCursor+0x2c>
    {
        details_cursor ^= 1;
 8001420:	4b08      	ldr	r3, [pc, #32]	@ (8001444 <LCD_DetailsMoveCursor+0x40>)
 8001422:	781b      	ldrb	r3, [r3, #0]
 8001424:	f083 0301 	eor.w	r3, r3, #1
 8001428:	b2da      	uxtb	r2, r3
 800142a:	4b06      	ldr	r3, [pc, #24]	@ (8001444 <LCD_DetailsMoveCursor+0x40>)
 800142c:	701a      	strb	r2, [r3, #0]
 800142e:	e001      	b.n	8001434 <LCD_DetailsMoveCursor+0x30>
    }
    else
    {
        /* Only one item available — keep cursor there. */
        LCD_DetailsSelectFirstAllowedItem();
 8001430:	f7ff ffca 	bl	80013c8 <LCD_DetailsSelectFirstAllowedItem>
    }
    lcd_set_icon(IA_DETAILS, details_cursor);
 8001434:	4b03      	ldr	r3, [pc, #12]	@ (8001444 <LCD_DetailsMoveCursor+0x40>)
 8001436:	781b      	ldrb	r3, [r3, #0]
 8001438:	4619      	mov	r1, r3
 800143a:	2052      	movs	r0, #82	@ 0x52
 800143c:	f7ff fd20 	bl	8000e80 <lcd_set_icon>
}
 8001440:	bf00      	nop
 8001442:	bd80      	pop	{r7, pc}
 8001444:	2000022e 	.word	0x2000022e

08001448 <LCD_PageAllowed>:

/* Returns 1 if the given page is currently allowed by the feature flags. */
static uint8_t LCD_PageAllowed(uint8_t page)
{
 8001448:	b580      	push	{r7, lr}
 800144a:	b082      	sub	sp, #8
 800144c:	af00      	add	r7, sp, #0
 800144e:	4603      	mov	r3, r0
 8001450:	71fb      	strb	r3, [r7, #7]
    switch(page)
 8001452:	79fb      	ldrb	r3, [r7, #7]
 8001454:	3b05      	subs	r3, #5
 8001456:	2b12      	cmp	r3, #18
 8001458:	d846      	bhi.n	80014e8 <LCD_PageAllowed+0xa0>
 800145a:	a201      	add	r2, pc, #4	@ (adr r2, 8001460 <LCD_PageAllowed+0x18>)
 800145c:	f852 f023 	ldr.w	pc, [r2, r3, lsl #2]
 8001460:	080014df 	.word	0x080014df
 8001464:	080014e9 	.word	0x080014e9
 8001468:	080014e9 	.word	0x080014e9
 800146c:	080014e9 	.word	0x080014e9
 8001470:	080014e9 	.word	0x080014e9
 8001474:	080014d5 	.word	0x080014d5
 8001478:	080014c1 	.word	0x080014c1
 800147c:	080014e9 	.word	0x080014e9
 8001480:	080014e9 	.word	0x080014e9
 8001484:	080014b7 	.word	0x080014b7
 8001488:	080014e9 	.word	0x080014e9
 800148c:	080014e9 	.word	0x080014e9
 8001490:	080014e9 	.word	0x080014e9
 8001494:	080014b7 	.word	0x080014b7
 8001498:	080014b7 	.word	0x080014b7
 800149c:	080014ad 	.word	0x080014ad
 80014a0:	080014e9 	.word	0x080014e9
 80014a4:	080014e9 	.word	0x080014e9
 80014a8:	080014cb 	.word	0x080014cb
    {
        case PAGE_BATTERY:
            return LCD_FeatureEnabled(LCD_FEATURE_BATTERY);
 80014ac:	2000      	movs	r0, #0
 80014ae:	f7ff fe61 	bl	8001174 <LCD_FeatureEnabled>
 80014b2:	4603      	mov	r3, r0
 80014b4:	e019      	b.n	80014ea <LCD_PageAllowed+0xa2>

        case PAGE_RTP1:
        case PAGE_RTP2:
        case GOBACK_HEIGHT:
            return LCD_FeatureEnabled(LCD_FEATURE_REALTIME);
 80014b6:	2002      	movs	r0, #2
 80014b8:	f7ff fe5c 	bl	8001174 <LCD_FeatureEnabled>
 80014bc:	4603      	mov	r3, r0
 80014be:	e014      	b.n	80014ea <LCD_PageAllowed+0xa2>

        case PAGE_TILT:
            return LCD_FeatureEnabled(LCD_FEATURE_GYRO);
 80014c0:	2001      	movs	r0, #1
 80014c2:	f7ff fe57 	bl	8001174 <LCD_FeatureEnabled>
 80014c6:	4603      	mov	r3, r0
 80014c8:	e00f      	b.n	80014ea <LCD_PageAllowed+0xa2>

        case PAGE_SETTING_ANTI:
            return LCD_FeatureEnabled(LCD_FEATURE_COLLISION);
 80014ca:	2003      	movs	r0, #3
 80014cc:	f7ff fe52 	bl	8001174 <LCD_FeatureEnabled>
 80014d0:	4603      	mov	r3, r0
 80014d2:	e00a      	b.n	80014ea <LCD_PageAllowed+0xa2>

        case PAGE_SLIDE:
            return LCD_FeatureEnabled(LCD_FEATURE_SLIDE);
 80014d4:	2004      	movs	r0, #4
 80014d6:	f7ff fe4d 	bl	8001174 <LCD_FeatureEnabled>
 80014da:	4603      	mov	r3, r0
 80014dc:	e005      	b.n	80014ea <LCD_PageAllowed+0xa2>

        case PAGE_FLEX:
            return LCD_FeatureEnabled(LCD_FEATURE_FLEXFLOOR);
 80014de:	2005      	movs	r0, #5
 80014e0:	f7ff fe48 	bl	8001174 <LCD_FeatureEnabled>
 80014e4:	4603      	mov	r3, r0
 80014e6:	e000      	b.n	80014ea <LCD_PageAllowed+0xa2>

        default:
            return 1;   /* all other pages are always allowed */
 80014e8:	2301      	movs	r3, #1
    }
}
 80014ea:	4618      	mov	r0, r3
 80014ec:	3708      	adds	r7, #8
 80014ee:	46bd      	mov	sp, r7
 80014f0:	bd80      	pop	{r7, pc}
 80014f2:	bf00      	nop

080014f4 <LCD_SetPageIfAllowed>:

/* Attempt to switch to a page; if blocked, return to HOME instead.
 * Returns 1 on success, 0 if the page was blocked.                      */
static uint8_t LCD_SetPageIfAllowed(uint8_t page)
{
 80014f4:	b580      	push	{r7, lr}
 80014f6:	b082      	sub	sp, #8
 80014f8:	af00      	add	r7, sp, #0
 80014fa:	4603      	mov	r3, r0
 80014fc:	71fb      	strb	r3, [r7, #7]
    if(!LCD_PageAllowed(page))
 80014fe:	79fb      	ldrb	r3, [r7, #7]
 8001500:	4618      	mov	r0, r3
 8001502:	f7ff ffa1 	bl	8001448 <LCD_PageAllowed>
 8001506:	4603      	mov	r3, r0
 8001508:	2b00      	cmp	r3, #0
 800150a:	d10d      	bne.n	8001528 <LCD_SetPageIfAllowed+0x34>
    {
        homeActive = 0;
 800150c:	4b0b      	ldr	r3, [pc, #44]	@ (800153c <LCD_SetPageIfAllowed+0x48>)
 800150e:	2200      	movs	r2, #0
 8001510:	701a      	strb	r2, [r3, #0]
        animActive = 0;
 8001512:	4b0b      	ldr	r3, [pc, #44]	@ (8001540 <LCD_SetPageIfAllowed+0x4c>)
 8001514:	2200      	movs	r2, #0
 8001516:	701a      	strb	r2, [r3, #0]
        uiState    = UI_HOME;
 8001518:	4b0a      	ldr	r3, [pc, #40]	@ (8001544 <LCD_SetPageIfAllowed+0x50>)
 800151a:	2200      	movs	r2, #0
 800151c:	701a      	strb	r2, [r3, #0]
        lcd_set_page(PAGE_HOME);
 800151e:	2004      	movs	r0, #4
 8001520:	f7ff fc64 	bl	8000dec <lcd_set_page>
        return 0;
 8001524:	2300      	movs	r3, #0
 8001526:	e004      	b.n	8001532 <LCD_SetPageIfAllowed+0x3e>
    }
    lcd_set_page(page);
 8001528:	79fb      	ldrb	r3, [r7, #7]
 800152a:	4618      	mov	r0, r3
 800152c:	f7ff fc5e 	bl	8000dec <lcd_set_page>
    return 1;
 8001530:	2301      	movs	r3, #1
}
 8001532:	4618      	mov	r0, r3
 8001534:	3708      	adds	r7, #8
 8001536:	46bd      	mov	sp, r7
 8001538:	bd80      	pop	{r7, pc}
 800153a:	bf00      	nop
 800153c:	20000284 	.word	0x20000284
 8001540:	20000248 	.word	0x20000248
 8001544:	2000022c 	.word	0x2000022c

08001548 <LCD_CloseCurrentPageIfDisabled>:

/* If the currently displayed page has just been disabled (e.g. user
 * toggled its feature flag off via the GoBack+Accept menu), kick the
 * UI back to HOME so the user is never stranded on a blocked page.      */
static void LCD_CloseCurrentPageIfDisabled(void)
{
 8001548:	b580      	push	{r7, lr}
 800154a:	af00      	add	r7, sp, #0
    if(LCD_PageAllowed(currentPage)) return;
 800154c:	4b11      	ldr	r3, [pc, #68]	@ (8001594 <LCD_CloseCurrentPageIfDisabled+0x4c>)
 800154e:	781b      	ldrb	r3, [r3, #0]
 8001550:	4618      	mov	r0, r3
 8001552:	f7ff ff79 	bl	8001448 <LCD_PageAllowed>
 8001556:	4603      	mov	r3, r0
 8001558:	2b00      	cmp	r3, #0
 800155a:	d119      	bne.n	8001590 <LCD_CloseCurrentPageIfDisabled+0x48>

    homeActive = 0;
 800155c:	4b0e      	ldr	r3, [pc, #56]	@ (8001598 <LCD_CloseCurrentPageIfDisabled+0x50>)
 800155e:	2200      	movs	r2, #0
 8001560:	701a      	strb	r2, [r3, #0]
    animActive = 0;
 8001562:	4b0e      	ldr	r3, [pc, #56]	@ (800159c <LCD_CloseCurrentPageIfDisabled+0x54>)
 8001564:	2200      	movs	r2, #0
 8001566:	701a      	strb	r2, [r3, #0]

    if(collisionAlertActive)
 8001568:	4b0d      	ldr	r3, [pc, #52]	@ (80015a0 <LCD_CloseCurrentPageIfDisabled+0x58>)
 800156a:	781b      	ldrb	r3, [r3, #0]
 800156c:	2b00      	cmp	r3, #0
 800156e:	d003      	beq.n	8001578 <LCD_CloseCurrentPageIfDisabled+0x30>
        lcd_set_icon(IA_ANTI_CURSOR, IS_ANTI_NORMAL);
 8001570:	2100      	movs	r1, #0
 8001572:	2058      	movs	r0, #88	@ 0x58
 8001574:	f7ff fc84 	bl	8000e80 <lcd_set_icon>

    LCD_ClearCollisionAlertState();
 8001578:	f7ff fd66 	bl	8001048 <LCD_ClearCollisionAlertState>

    uiState     = UI_HOME;
 800157c:	4b09      	ldr	r3, [pc, #36]	@ (80015a4 <LCD_CloseCurrentPageIfDisabled+0x5c>)
 800157e:	2200      	movs	r2, #0
 8001580:	701a      	strb	r2, [r3, #0]
    parentState = UI_HOME;
 8001582:	4b09      	ldr	r3, [pc, #36]	@ (80015a8 <LCD_CloseCurrentPageIfDisabled+0x60>)
 8001584:	2200      	movs	r2, #0
 8001586:	701a      	strb	r2, [r3, #0]

    lcd_force_page(PAGE_HOME);
 8001588:	2004      	movs	r0, #4
 800158a:	f7ff fc67 	bl	8000e5c <lcd_force_page>
 800158e:	e000      	b.n	8001592 <LCD_CloseCurrentPageIfDisabled+0x4a>
    if(LCD_PageAllowed(currentPage)) return;
 8001590:	bf00      	nop
}
 8001592:	bd80      	pop	{r7, pc}
 8001594:	20000000 	.word	0x20000000
 8001598:	20000284 	.word	0x20000284
 800159c:	20000248 	.word	0x20000248
 80015a0:	20000255 	.word	0x20000255
 80015a4:	2000022c 	.word	0x2000022c
 80015a8:	2000022d 	.word	0x2000022d

080015ac <LCD_RTP1_Seed>:
/* ======================================================================
 * Seed helpers
 * ====================================================================== */
static void LCD_RTP1_Seed(void)
{
 80015ac:	b580      	push	{r7, lr}
 80015ae:	b082      	sub	sp, #8
 80015b0:	af00      	add	r7, sp, #0
    for(uint8_t i = 0; i < RTP1_FIELD_COUNT; i++)
 80015b2:	2300      	movs	r3, #0
 80015b4:	71fb      	strb	r3, [r7, #7]
 80015b6:	e00c      	b.n	80015d2 <LCD_RTP1_Seed+0x26>
        lcd_set_state_value16(rtp1VP[i], rtp1Val[i]);
 80015b8:	79fb      	ldrb	r3, [r7, #7]
 80015ba:	4a0a      	ldr	r2, [pc, #40]	@ (80015e4 <LCD_RTP1_Seed+0x38>)
 80015bc:	5cd2      	ldrb	r2, [r2, r3]
 80015be:	79fb      	ldrb	r3, [r7, #7]
 80015c0:	4909      	ldr	r1, [pc, #36]	@ (80015e8 <LCD_RTP1_Seed+0x3c>)
 80015c2:	5ccb      	ldrb	r3, [r1, r3]
 80015c4:	4619      	mov	r1, r3
 80015c6:	4610      	mov	r0, r2
 80015c8:	f7ff fc86 	bl	8000ed8 <lcd_set_state_value16>
    for(uint8_t i = 0; i < RTP1_FIELD_COUNT; i++)
 80015cc:	79fb      	ldrb	r3, [r7, #7]
 80015ce:	3301      	adds	r3, #1
 80015d0:	71fb      	strb	r3, [r7, #7]
 80015d2:	79fb      	ldrb	r3, [r7, #7]
 80015d4:	2b07      	cmp	r3, #7
 80015d6:	d9ef      	bls.n	80015b8 <LCD_RTP1_Seed+0xc>
}
 80015d8:	bf00      	nop
 80015da:	bf00      	nop
 80015dc:	3708      	adds	r7, #8
 80015de:	46bd      	mov	sp, r7
 80015e0:	bd80      	pop	{r7, pc}
 80015e2:	bf00      	nop
 80015e4:	080070e8 	.word	0x080070e8
 80015e8:	20000234 	.word	0x20000234

080015ec <LCD_Clock_Refresh>:
    for(uint8_t i = 0; i < RTP2_FIELD_COUNT; i++)
        lcd_set_state_value16(rtp2VP[i], rtp2Val[i]);
}

static void LCD_Clock_Refresh(void)
{
 80015ec:	b580      	push	{r7, lr}
 80015ee:	af00      	add	r7, sp, #0
    lcd_set_state_value16(VP_CLOCK_HOUR, clockHour);
 80015f0:	4b06      	ldr	r3, [pc, #24]	@ (800160c <LCD_Clock_Refresh+0x20>)
 80015f2:	781b      	ldrb	r3, [r3, #0]
 80015f4:	4619      	mov	r1, r3
 80015f6:	2060      	movs	r0, #96	@ 0x60
 80015f8:	f7ff fc6e 	bl	8000ed8 <lcd_set_state_value16>
    lcd_set_state_value16(VP_CLOCK_MIN,  clockMin);
 80015fc:	4b04      	ldr	r3, [pc, #16]	@ (8001610 <LCD_Clock_Refresh+0x24>)
 80015fe:	781b      	ldrb	r3, [r3, #0]
 8001600:	4619      	mov	r1, r3
 8001602:	2061      	movs	r0, #97	@ 0x61
 8001604:	f7ff fc68 	bl	8000ed8 <lcd_set_state_value16>
}
 8001608:	bf00      	nop
 800160a:	bd80      	pop	{r7, pc}
 800160c:	2000023f 	.word	0x2000023f
 8001610:	20000240 	.word	0x20000240

08001614 <LCD_PushFeatureState>:

static void LCD_PushFeatureState(uint8_t index)
{
 8001614:	b580      	push	{r7, lr}
 8001616:	b082      	sub	sp, #8
 8001618:	af00      	add	r7, sp, #0
 800161a:	4603      	mov	r3, r0
 800161c:	71fb      	strb	r3, [r7, #7]
    if(index >= ACCEPT_FIELD_COUNT) return;
 800161e:	79fb      	ldrb	r3, [r7, #7]
 8001620:	2b06      	cmp	r3, #6
 8001622:	d80f      	bhi.n	8001644 <LCD_PushFeatureState+0x30>
    lcd_set_icon(featureVP[index],
 8001624:	79fb      	ldrb	r3, [r7, #7]
 8001626:	4a09      	ldr	r2, [pc, #36]	@ (800164c <LCD_PushFeatureState+0x38>)
 8001628:	5cd2      	ldrb	r2, [r2, r3]
                 featureEnable[index] ? ACCEPT_EN_ON : ACCEPT_EN_OFF);
 800162a:	79fb      	ldrb	r3, [r7, #7]
 800162c:	4908      	ldr	r1, [pc, #32]	@ (8001650 <LCD_PushFeatureState+0x3c>)
 800162e:	5ccb      	ldrb	r3, [r1, r3]
    lcd_set_icon(featureVP[index],
 8001630:	2b00      	cmp	r3, #0
 8001632:	bf14      	ite	ne
 8001634:	2301      	movne	r3, #1
 8001636:	2300      	moveq	r3, #0
 8001638:	b2db      	uxtb	r3, r3
 800163a:	4619      	mov	r1, r3
 800163c:	4610      	mov	r0, r2
 800163e:	f7ff fc1f 	bl	8000e80 <lcd_set_icon>
 8001642:	e000      	b.n	8001646 <LCD_PushFeatureState+0x32>
    if(index >= ACCEPT_FIELD_COUNT) return;
 8001644:	bf00      	nop
}
 8001646:	3708      	adds	r7, #8
 8001648:	46bd      	mov	sp, r7
 800164a:	bd80      	pop	{r7, pc}
 800164c:	080070d8 	.word	0x080070d8
 8001650:	20000004 	.word	0x20000004

08001654 <LCD_PushEditValue>:

static void LCD_PushEditValue(uint8_t index)
{
 8001654:	b580      	push	{r7, lr}
 8001656:	b082      	sub	sp, #8
 8001658:	af00      	add	r7, sp, #0
 800165a:	4603      	mov	r3, r0
 800165c:	71fb      	strb	r3, [r7, #7]
    if(index >= ACCEPT_EDIT_COUNT) return;
 800165e:	79fb      	ldrb	r3, [r7, #7]
 8001660:	2b07      	cmp	r3, #7
 8001662:	d80b      	bhi.n	800167c <LCD_PushEditValue+0x28>
    lcd_set_state_value16(editVP[index], editVal[index]);
 8001664:	79fb      	ldrb	r3, [r7, #7]
 8001666:	4a07      	ldr	r2, [pc, #28]	@ (8001684 <LCD_PushEditValue+0x30>)
 8001668:	5cd2      	ldrb	r2, [r2, r3]
 800166a:	79fb      	ldrb	r3, [r7, #7]
 800166c:	4906      	ldr	r1, [pc, #24]	@ (8001688 <LCD_PushEditValue+0x34>)
 800166e:	f831 3013 	ldrh.w	r3, [r1, r3, lsl #1]
 8001672:	4619      	mov	r1, r3
 8001674:	4610      	mov	r0, r2
 8001676:	f7ff fc2f 	bl	8000ed8 <lcd_set_state_value16>
 800167a:	e000      	b.n	800167e <LCD_PushEditValue+0x2a>
    if(index >= ACCEPT_EDIT_COUNT) return;
 800167c:	bf00      	nop
}
 800167e:	3708      	adds	r7, #8
 8001680:	46bd      	mov	sp, r7
 8001682:	bd80      	pop	{r7, pc}
 8001684:	080070e0 	.word	0x080070e0
 8001688:	20000270 	.word	0x20000270

0800168c <LCD_Memory_UpdateCursor>:
 * ------------------------------------------------------------------
 * Writes BOTH IA_SEL_MEMORY and IA_MEM_MODE on every call.
 * Uses lcd_force_page() to survive DWIN silent resets.
 * ====================================================================== */
static void LCD_Memory_UpdateCursor(void)
{
 800168c:	b580      	push	{r7, lr}
 800168e:	af00      	add	r7, sp, #0
    lcd_force_page(MOMORY);
 8001690:	2010      	movs	r0, #16
 8001692:	f7ff fbe3 	bl	8000e5c <lcd_force_page>
    lcd_set_icon(IA_SEL_MEMORY, selMemory);
 8001696:	4b09      	ldr	r3, [pc, #36]	@ (80016bc <LCD_Memory_UpdateCursor+0x30>)
 8001698:	781b      	ldrb	r3, [r3, #0]
 800169a:	4619      	mov	r1, r3
 800169c:	204b      	movs	r0, #75	@ 0x4b
 800169e:	f7ff fbef 	bl	8000e80 <lcd_set_icon>
    lcd_set_icon(IA_MEM_MODE,
 80016a2:	4b07      	ldr	r3, [pc, #28]	@ (80016c0 <LCD_Memory_UpdateCursor+0x34>)
 80016a4:	781b      	ldrb	r3, [r3, #0]
 80016a6:	2b01      	cmp	r3, #1
 80016a8:	bf0c      	ite	eq
 80016aa:	2301      	moveq	r3, #1
 80016ac:	2300      	movne	r3, #0
 80016ae:	b2db      	uxtb	r3, r3
 80016b0:	4619      	mov	r1, r3
 80016b2:	2031      	movs	r0, #49	@ 0x31
 80016b4:	f7ff fbe4 	bl	8000e80 <lcd_set_icon>
                 (memoryMode == MEM_MODE_SET) ? IS_MEM_SET : IS_MEM_RECALL);
}
 80016b8:	bf00      	nop
 80016ba:	bd80      	pop	{r7, pc}
 80016bc:	20000256 	.word	0x20000256
 80016c0:	20000003 	.word	0x20000003

080016c4 <LCD_Memory_SeedPage>:
 * Full seed — called ONLY on page open.
 * Also writes IA_MEM_MODE so the mode indicator is correct on open.
 * Uses lcd_force_page() to guarantee the page switch fires.
 * ====================================================================== */
static void LCD_Memory_SeedPage(void)
{
 80016c4:	b580      	push	{r7, lr}
 80016c6:	b082      	sub	sp, #8
 80016c8:	af00      	add	r7, sp, #0
    lcd_force_page(MOMORY);
 80016ca:	2010      	movs	r0, #16
 80016cc:	f7ff fbc6 	bl	8000e5c <lcd_force_page>
    lcd_set_icon(IA_SEL_MEMORY, selMemory);
 80016d0:	4b14      	ldr	r3, [pc, #80]	@ (8001724 <LCD_Memory_SeedPage+0x60>)
 80016d2:	781b      	ldrb	r3, [r3, #0]
 80016d4:	4619      	mov	r1, r3
 80016d6:	204b      	movs	r0, #75	@ 0x4b
 80016d8:	f7ff fbd2 	bl	8000e80 <lcd_set_icon>
    lcd_set_icon(IA_MEM_MODE,
 80016dc:	4b12      	ldr	r3, [pc, #72]	@ (8001728 <LCD_Memory_SeedPage+0x64>)
 80016de:	781b      	ldrb	r3, [r3, #0]
 80016e0:	2b01      	cmp	r3, #1
 80016e2:	bf0c      	ite	eq
 80016e4:	2301      	moveq	r3, #1
 80016e6:	2300      	movne	r3, #0
 80016e8:	b2db      	uxtb	r3, r3
 80016ea:	4619      	mov	r1, r3
 80016ec:	2031      	movs	r0, #49	@ 0x31
 80016ee:	f7ff fbc7 	bl	8000e80 <lcd_set_icon>
                 (memoryMode == MEM_MODE_SET) ? IS_MEM_SET : IS_MEM_RECALL);

    for(uint8_t i = 0; i < MEMORY_SLOT_COUNT; i++)
 80016f2:	2300      	movs	r3, #0
 80016f4:	71fb      	strb	r3, [r7, #7]
 80016f6:	e00c      	b.n	8001712 <LCD_Memory_SeedPage+0x4e>
        lcd_set_icon(memSlotVP[i], memSlotSaved[i]);
 80016f8:	79fb      	ldrb	r3, [r7, #7]
 80016fa:	4a0c      	ldr	r2, [pc, #48]	@ (800172c <LCD_Memory_SeedPage+0x68>)
 80016fc:	5cd2      	ldrb	r2, [r2, r3]
 80016fe:	79fb      	ldrb	r3, [r7, #7]
 8001700:	490b      	ldr	r1, [pc, #44]	@ (8001730 <LCD_Memory_SeedPage+0x6c>)
 8001702:	5ccb      	ldrb	r3, [r1, r3]
 8001704:	4619      	mov	r1, r3
 8001706:	4610      	mov	r0, r2
 8001708:	f7ff fbba 	bl	8000e80 <lcd_set_icon>
    for(uint8_t i = 0; i < MEMORY_SLOT_COUNT; i++)
 800170c:	79fb      	ldrb	r3, [r7, #7]
 800170e:	3301      	adds	r3, #1
 8001710:	71fb      	strb	r3, [r7, #7]
 8001712:	79fb      	ldrb	r3, [r7, #7]
 8001714:	2b04      	cmp	r3, #4
 8001716:	d9ef      	bls.n	80016f8 <LCD_Memory_SeedPage+0x34>
}
 8001718:	bf00      	nop
 800171a:	bf00      	nop
 800171c:	3708      	adds	r7, #8
 800171e:	46bd      	mov	sp, r7
 8001720:	bd80      	pop	{r7, pc}
 8001722:	bf00      	nop
 8001724:	20000256 	.word	0x20000256
 8001728:	20000003 	.word	0x20000003
 800172c:	080070c0 	.word	0x080070c0
 8001730:	20000258 	.word	0x20000258

08001734 <LCD_HandleKey>:

/* ======================================================================
 * Main key handler
 * ====================================================================== */
void LCD_HandleKey(uint8_t cmd)
{
 8001734:	b580      	push	{r7, lr}
 8001736:	b082      	sub	sp, #8
 8001738:	af00      	add	r7, sp, #0
 800173a:	4603      	mov	r3, r0
 800173c:	71fb      	strb	r3, [r7, #7]
    if(!lcdPowerOn || lcdLocked) return;
 800173e:	4bae      	ldr	r3, [pc, #696]	@ (80019f8 <LCD_HandleKey+0x2c4>)
 8001740:	781b      	ldrb	r3, [r3, #0]
 8001742:	2b00      	cmp	r3, #0
 8001744:	f000 8751 	beq.w	80025ea <LCD_HandleKey+0xeb6>
 8001748:	4bac      	ldr	r3, [pc, #688]	@ (80019fc <LCD_HandleKey+0x2c8>)
 800174a:	781b      	ldrb	r3, [r3, #0]
 800174c:	2b00      	cmp	r3, #0
 800174e:	f040 874c 	bne.w	80025ea <LCD_HandleKey+0xeb6>

    cmd = MapReverse(cmd);
 8001752:	79fb      	ldrb	r3, [r7, #7]
 8001754:	4618      	mov	r0, r3
 8001756:	f7ff fcdf 	bl	8001118 <MapReverse>
 800175a:	4603      	mov	r3, r0
 800175c:	71fb      	strb	r3, [r7, #7]
    valueChanged = 0;
 800175e:	4ba8      	ldr	r3, [pc, #672]	@ (8001a00 <LCD_HandleKey+0x2cc>)
 8001760:	2200      	movs	r2, #0
 8001762:	701a      	strb	r2, [r3, #0]

    /* ==================================================================
     * GLOBAL: GO BACK
     * ================================================================== */
    if(cmd == CMD_GOBACK)
 8001764:	79fb      	ldrb	r3, [r7, #7]
 8001766:	2bf0      	cmp	r3, #240	@ 0xf0
 8001768:	f040 8095 	bne.w	8001896 <LCD_HandleKey+0x162>
    {
        homeActive = 0;
 800176c:	4ba5      	ldr	r3, [pc, #660]	@ (8001a04 <LCD_HandleKey+0x2d0>)
 800176e:	2200      	movs	r2, #0
 8001770:	701a      	strb	r2, [r3, #0]
        switch(uiState)
 8001772:	4ba5      	ldr	r3, [pc, #660]	@ (8001a08 <LCD_HandleKey+0x2d4>)
 8001774:	781b      	ldrb	r3, [r3, #0]
 8001776:	3b01      	subs	r3, #1
 8001778:	2b0a      	cmp	r3, #10
 800177a:	f200 8083 	bhi.w	8001884 <LCD_HandleKey+0x150>
 800177e:	a201      	add	r2, pc, #4	@ (adr r2, 8001784 <LCD_HandleKey+0x50>)
 8001780:	f852 f023 	ldr.w	pc, [r2, r3, lsl #2]
 8001784:	080017b1 	.word	0x080017b1
 8001788:	080017bf 	.word	0x080017bf
 800178c:	080017bf 	.word	0x080017bf
 8001790:	080017bf 	.word	0x080017bf
 8001794:	08001869 	.word	0x08001869
 8001798:	080017fb 	.word	0x080017fb
 800179c:	08001815 	.word	0x08001815
 80017a0:	08001877 	.word	0x08001877
 80017a4:	08001877 	.word	0x08001877
 80017a8:	08001877 	.word	0x08001877
 80017ac:	08001877 	.word	0x08001877
        {
            case UI_DETAILS:
                uiState = UI_HOME;
 80017b0:	4b95      	ldr	r3, [pc, #596]	@ (8001a08 <LCD_HandleKey+0x2d4>)
 80017b2:	2200      	movs	r2, #0
 80017b4:	701a      	strb	r2, [r3, #0]
                lcd_set_page(PAGE_HOME);
 80017b6:	2004      	movs	r0, #4
 80017b8:	f7ff fb18 	bl	8000dec <lcd_set_page>
                break;
 80017bc:	e069      	b.n	8001892 <LCD_HandleKey+0x15e>

            case UI_RTP1:
            case UI_RTP2:
            case UI_BATTERY:
                if(parentState == UI_SETTING)
 80017be:	4b93      	ldr	r3, [pc, #588]	@ (8001a0c <LCD_HandleKey+0x2d8>)
 80017c0:	781b      	ldrb	r3, [r3, #0]
 80017c2:	2b05      	cmp	r3, #5
 80017c4:	d10c      	bne.n	80017e0 <LCD_HandleKey+0xac>
                {
                    uiState = UI_SETTING;
 80017c6:	4b90      	ldr	r3, [pc, #576]	@ (8001a08 <LCD_HandleKey+0x2d4>)
 80017c8:	2205      	movs	r2, #5
 80017ca:	701a      	strb	r2, [r3, #0]
                    lcd_set_page(PAGE_SETTING);
 80017cc:	2015      	movs	r0, #21
 80017ce:	f7ff fb0d 	bl	8000dec <lcd_set_page>
                    lcd_set_icon(IA_SETTING, selSetting);
 80017d2:	4b8f      	ldr	r3, [pc, #572]	@ (8001a10 <LCD_HandleKey+0x2dc>)
 80017d4:	781b      	ldrb	r3, [r3, #0]
 80017d6:	4619      	mov	r1, r3
 80017d8:	2056      	movs	r0, #86	@ 0x56
 80017da:	f7ff fb51 	bl	8000e80 <lcd_set_icon>
                {
                    uiState = UI_DETAILS;
                    lcd_set_page(DETAILS);
                    lcd_set_icon(IA_DETAILS, details_cursor);
                }
                break;
 80017de:	e058      	b.n	8001892 <LCD_HandleKey+0x15e>
                    uiState = UI_DETAILS;
 80017e0:	4b89      	ldr	r3, [pc, #548]	@ (8001a08 <LCD_HandleKey+0x2d4>)
 80017e2:	2201      	movs	r2, #1
 80017e4:	701a      	strb	r2, [r3, #0]
                    lcd_set_page(DETAILS);
 80017e6:	2011      	movs	r0, #17
 80017e8:	f7ff fb00 	bl	8000dec <lcd_set_page>
                    lcd_set_icon(IA_DETAILS, details_cursor);
 80017ec:	4b89      	ldr	r3, [pc, #548]	@ (8001a14 <LCD_HandleKey+0x2e0>)
 80017ee:	781b      	ldrb	r3, [r3, #0]
 80017f0:	4619      	mov	r1, r3
 80017f2:	2052      	movs	r0, #82	@ 0x52
 80017f4:	f7ff fb44 	bl	8000e80 <lcd_set_icon>
                break;
 80017f8:	e04b      	b.n	8001892 <LCD_HandleKey+0x15e>

            case UI_SETTING_CLOCK:
                uiState = UI_SETTING;
 80017fa:	4b83      	ldr	r3, [pc, #524]	@ (8001a08 <LCD_HandleKey+0x2d4>)
 80017fc:	2205      	movs	r2, #5
 80017fe:	701a      	strb	r2, [r3, #0]
                lcd_set_page(PAGE_SETTING);
 8001800:	2015      	movs	r0, #21
 8001802:	f7ff faf3 	bl	8000dec <lcd_set_page>
                lcd_set_icon(IA_SETTING, selSetting);
 8001806:	4b82      	ldr	r3, [pc, #520]	@ (8001a10 <LCD_HandleKey+0x2dc>)
 8001808:	781b      	ldrb	r3, [r3, #0]
 800180a:	4619      	mov	r1, r3
 800180c:	2056      	movs	r0, #86	@ 0x56
 800180e:	f7ff fb37 	bl	8000e80 <lcd_set_icon>
                break;
 8001812:	e03e      	b.n	8001892 <LCD_HandleKey+0x15e>
                 * GoBack clears alert and returns HOME.
                 *
                 * If page 23 was opened normally from Setting,
                 * GoBack returns to Setting page.
                 */
                if (collisionAlertActive)
 8001814:	4b80      	ldr	r3, [pc, #512]	@ (8001a18 <LCD_HandleKey+0x2e4>)
 8001816:	781b      	ldrb	r3, [r3, #0]
 8001818:	2b00      	cmp	r3, #0
 800181a:	d015      	beq.n	8001848 <LCD_HandleKey+0x114>
                {
                    LCD_ClearCollisionAlertState();
 800181c:	f7ff fc14 	bl	8001048 <LCD_ClearCollisionAlertState>
                    lcd_set_icon(IA_ANTI_CURSOR, IS_ANTI_NORMAL);
 8001820:	2100      	movs	r1, #0
 8001822:	2058      	movs	r0, #88	@ 0x58
 8001824:	f7ff fb2c 	bl	8000e80 <lcd_set_icon>

                    uiState     = UI_HOME;
 8001828:	4b77      	ldr	r3, [pc, #476]	@ (8001a08 <LCD_HandleKey+0x2d4>)
 800182a:	2200      	movs	r2, #0
 800182c:	701a      	strb	r2, [r3, #0]
                    parentState = UI_HOME;
 800182e:	4b77      	ldr	r3, [pc, #476]	@ (8001a0c <LCD_HandleKey+0x2d8>)
 8001830:	2200      	movs	r2, #0
 8001832:	701a      	strb	r2, [r3, #0]
                    homeActive  = 0;
 8001834:	4b73      	ldr	r3, [pc, #460]	@ (8001a04 <LCD_HandleKey+0x2d0>)
 8001836:	2200      	movs	r2, #0
 8001838:	701a      	strb	r2, [r3, #0]
                    animActive  = 0;
 800183a:	4b78      	ldr	r3, [pc, #480]	@ (8001a1c <LCD_HandleKey+0x2e8>)
 800183c:	2200      	movs	r2, #0
 800183e:	701a      	strb	r2, [r3, #0]

                    lcd_force_page(PAGE_HOME);
 8001840:	2004      	movs	r0, #4
 8001842:	f7ff fb0b 	bl	8000e5c <lcd_force_page>
                    uiState     = UI_SETTING;
                    parentState = UI_HOME;
                    lcd_set_page(PAGE_SETTING);
                    lcd_set_icon(IA_SETTING, selSetting);
                }
                break;
 8001846:	e024      	b.n	8001892 <LCD_HandleKey+0x15e>
                    uiState     = UI_SETTING;
 8001848:	4b6f      	ldr	r3, [pc, #444]	@ (8001a08 <LCD_HandleKey+0x2d4>)
 800184a:	2205      	movs	r2, #5
 800184c:	701a      	strb	r2, [r3, #0]
                    parentState = UI_HOME;
 800184e:	4b6f      	ldr	r3, [pc, #444]	@ (8001a0c <LCD_HandleKey+0x2d8>)
 8001850:	2200      	movs	r2, #0
 8001852:	701a      	strb	r2, [r3, #0]
                    lcd_set_page(PAGE_SETTING);
 8001854:	2015      	movs	r0, #21
 8001856:	f7ff fac9 	bl	8000dec <lcd_set_page>
                    lcd_set_icon(IA_SETTING, selSetting);
 800185a:	4b6d      	ldr	r3, [pc, #436]	@ (8001a10 <LCD_HandleKey+0x2dc>)
 800185c:	781b      	ldrb	r3, [r3, #0]
 800185e:	4619      	mov	r1, r3
 8001860:	2056      	movs	r0, #86	@ 0x56
 8001862:	f7ff fb0d 	bl	8000e80 <lcd_set_icon>
                break;
 8001866:	e014      	b.n	8001892 <LCD_HandleKey+0x15e>

            case UI_SETTING:
                uiState = UI_HOME;
 8001868:	4b67      	ldr	r3, [pc, #412]	@ (8001a08 <LCD_HandleKey+0x2d4>)
 800186a:	2200      	movs	r2, #0
 800186c:	701a      	strb	r2, [r3, #0]
                lcd_set_page(PAGE_HOME);
 800186e:	2004      	movs	r0, #4
 8001870:	f7ff fabc 	bl	8000dec <lcd_set_page>
                break;
 8001874:	e00d      	b.n	8001892 <LCD_HandleKey+0x15e>

            case UI_MEMORY:
            case UI_COMBO_FLEX:
            case UI_COMBO_HEIGHT:
            case UI_COMBO_ACCEPT:
                uiState = UI_HOME;
 8001876:	4b64      	ldr	r3, [pc, #400]	@ (8001a08 <LCD_HandleKey+0x2d4>)
 8001878:	2200      	movs	r2, #0
 800187a:	701a      	strb	r2, [r3, #0]
                lcd_set_page(PAGE_HOME);
 800187c:	2004      	movs	r0, #4
 800187e:	f7ff fab5 	bl	8000dec <lcd_set_page>
                break;
 8001882:	e006      	b.n	8001892 <LCD_HandleKey+0x15e>

            default:
                uiState = UI_HOME;
 8001884:	4b60      	ldr	r3, [pc, #384]	@ (8001a08 <LCD_HandleKey+0x2d4>)
 8001886:	2200      	movs	r2, #0
 8001888:	701a      	strb	r2, [r3, #0]
                lcd_set_page(PAGE_HOME);
 800188a:	2004      	movs	r0, #4
 800188c:	f7ff faae 	bl	8000dec <lcd_set_page>
                break;
 8001890:	bf00      	nop
        }
        return;
 8001892:	f000 bedd 	b.w	8002650 <LCD_HandleKey+0xf1c>
    }

    /* ==================================================================
     * HOME
     * ================================================================== */
    if(uiState == UI_HOME)
 8001896:	4b5c      	ldr	r3, [pc, #368]	@ (8001a08 <LCD_HandleKey+0x2d4>)
 8001898:	781b      	ldrb	r3, [r3, #0]
 800189a:	2b00      	cmp	r3, #0
 800189c:	d118      	bne.n	80018d0 <LCD_HandleKey+0x19c>
    {
        if(cmd == CMD_DETAILS)
 800189e:	79fb      	ldrb	r3, [r7, #7]
 80018a0:	2bf2      	cmp	r3, #242	@ 0xf2
 80018a2:	d115      	bne.n	80018d0 <LCD_HandleKey+0x19c>
        {
            /* Details page only opens if at least one item is enabled. */
            if(!LCD_DetailsHasAnyAllowedItem()) return;
 80018a4:	f7ff fd7c 	bl	80013a0 <LCD_DetailsHasAnyAllowedItem>
 80018a8:	4603      	mov	r3, r0
 80018aa:	2b00      	cmp	r3, #0
 80018ac:	f000 869f 	beq.w	80025ee <LCD_HandleKey+0xeba>

            uiState = UI_DETAILS;
 80018b0:	4b55      	ldr	r3, [pc, #340]	@ (8001a08 <LCD_HandleKey+0x2d4>)
 80018b2:	2201      	movs	r2, #1
 80018b4:	701a      	strb	r2, [r3, #0]
            LCD_DetailsSelectFirstAllowedItem();
 80018b6:	f7ff fd87 	bl	80013c8 <LCD_DetailsSelectFirstAllowedItem>
            lcd_set_page(DETAILS);
 80018ba:	2011      	movs	r0, #17
 80018bc:	f7ff fa96 	bl	8000dec <lcd_set_page>
            lcd_set_icon(IA_DETAILS, details_cursor);
 80018c0:	4b54      	ldr	r3, [pc, #336]	@ (8001a14 <LCD_HandleKey+0x2e0>)
 80018c2:	781b      	ldrb	r3, [r3, #0]
 80018c4:	4619      	mov	r1, r3
 80018c6:	2052      	movs	r0, #82	@ 0x52
 80018c8:	f7ff fada 	bl	8000e80 <lcd_set_icon>
            return;
 80018cc:	f000 bec0 	b.w	8002650 <LCD_HandleKey+0xf1c>
    }

    /* ==================================================================
     * DETAILS — IA=0x52, IS 0=RTP  1=Battery
     * ================================================================== */
    if(uiState == UI_DETAILS)
 80018d0:	4b4d      	ldr	r3, [pc, #308]	@ (8001a08 <LCD_HandleKey+0x2d4>)
 80018d2:	781b      	ldrb	r3, [r3, #0]
 80018d4:	2b01      	cmp	r3, #1
 80018d6:	d149      	bne.n	800196c <LCD_HandleKey+0x238>
    {
        if(cmd == CMD_CURSOR_UP || cmd == CMD_CURSOR_DOWN)
 80018d8:	79fb      	ldrb	r3, [r7, #7]
 80018da:	2bf3      	cmp	r3, #243	@ 0xf3
 80018dc:	d002      	beq.n	80018e4 <LCD_HandleKey+0x1b0>
 80018de:	79fb      	ldrb	r3, [r7, #7]
 80018e0:	2bf4      	cmp	r3, #244	@ 0xf4
 80018e2:	d103      	bne.n	80018ec <LCD_HandleKey+0x1b8>
        {
            LCD_DetailsMoveCursor();
 80018e4:	f7ff fd8e 	bl	8001404 <LCD_DetailsMoveCursor>
                parentState = UI_DETAILS;
                if(!LCD_SetPageIfAllowed(PAGE_BATTERY)) return;
                lcd_set_icon(IA_BATTERY, batteryLevel);
            }
        }
        return;
 80018e8:	f000 be83 	b.w	80025f2 <LCD_HandleKey+0xebe>
        else if(cmd == CMD_ACCEPT)
 80018ec:	79fb      	ldrb	r3, [r7, #7]
 80018ee:	2bf1      	cmp	r3, #241	@ 0xf1
 80018f0:	f040 867f 	bne.w	80025f2 <LCD_HandleKey+0xebe>
            if(!LCD_DetailsItemAllowed(details_cursor)) return;
 80018f4:	4b47      	ldr	r3, [pc, #284]	@ (8001a14 <LCD_HandleKey+0x2e0>)
 80018f6:	781b      	ldrb	r3, [r3, #0]
 80018f8:	4618      	mov	r0, r3
 80018fa:	f7ff fd37 	bl	800136c <LCD_DetailsItemAllowed>
 80018fe:	4603      	mov	r3, r0
 8001900:	2b00      	cmp	r3, #0
 8001902:	f000 8678 	beq.w	80025f6 <LCD_HandleKey+0xec2>
            if(details_cursor == 0)
 8001906:	4b43      	ldr	r3, [pc, #268]	@ (8001a14 <LCD_HandleKey+0x2e0>)
 8001908:	781b      	ldrb	r3, [r3, #0]
 800190a:	2b00      	cmp	r3, #0
 800190c:	d119      	bne.n	8001942 <LCD_HandleKey+0x20e>
                uiState     = UI_RTP1;
 800190e:	4b3e      	ldr	r3, [pc, #248]	@ (8001a08 <LCD_HandleKey+0x2d4>)
 8001910:	2202      	movs	r2, #2
 8001912:	701a      	strb	r2, [r3, #0]
                parentState = UI_DETAILS;
 8001914:	4b3d      	ldr	r3, [pc, #244]	@ (8001a0c <LCD_HandleKey+0x2d8>)
 8001916:	2201      	movs	r2, #1
 8001918:	701a      	strb	r2, [r3, #0]
                selRTP1     = 0;
 800191a:	4b41      	ldr	r3, [pc, #260]	@ (8001a20 <LCD_HandleKey+0x2ec>)
 800191c:	2200      	movs	r2, #0
 800191e:	701a      	strb	r2, [r3, #0]
                if(!LCD_SetPageIfAllowed(PAGE_RTP1)) return;
 8001920:	2012      	movs	r0, #18
 8001922:	f7ff fde7 	bl	80014f4 <LCD_SetPageIfAllowed>
 8001926:	4603      	mov	r3, r0
 8001928:	2b00      	cmp	r3, #0
 800192a:	f000 8666 	beq.w	80025fa <LCD_HandleKey+0xec6>
                lcd_set_icon(IA_RTP1_CURSOR, selRTP1);
 800192e:	4b3c      	ldr	r3, [pc, #240]	@ (8001a20 <LCD_HandleKey+0x2ec>)
 8001930:	781b      	ldrb	r3, [r3, #0]
 8001932:	4619      	mov	r1, r3
 8001934:	2053      	movs	r0, #83	@ 0x53
 8001936:	f7ff faa3 	bl	8000e80 <lcd_set_icon>
                LCD_RTP1_Seed();
 800193a:	f7ff fe37 	bl	80015ac <LCD_RTP1_Seed>
        return;
 800193e:	f000 be58 	b.w	80025f2 <LCD_HandleKey+0xebe>
                uiState     = UI_BATTERY;
 8001942:	4b31      	ldr	r3, [pc, #196]	@ (8001a08 <LCD_HandleKey+0x2d4>)
 8001944:	2204      	movs	r2, #4
 8001946:	701a      	strb	r2, [r3, #0]
                parentState = UI_DETAILS;
 8001948:	4b30      	ldr	r3, [pc, #192]	@ (8001a0c <LCD_HandleKey+0x2d8>)
 800194a:	2201      	movs	r2, #1
 800194c:	701a      	strb	r2, [r3, #0]
                if(!LCD_SetPageIfAllowed(PAGE_BATTERY)) return;
 800194e:	2014      	movs	r0, #20
 8001950:	f7ff fdd0 	bl	80014f4 <LCD_SetPageIfAllowed>
 8001954:	4603      	mov	r3, r0
 8001956:	2b00      	cmp	r3, #0
 8001958:	f000 8651 	beq.w	80025fe <LCD_HandleKey+0xeca>
                lcd_set_icon(IA_BATTERY, batteryLevel);
 800195c:	4b31      	ldr	r3, [pc, #196]	@ (8001a24 <LCD_HandleKey+0x2f0>)
 800195e:	781b      	ldrb	r3, [r3, #0]
 8001960:	4619      	mov	r1, r3
 8001962:	2055      	movs	r0, #85	@ 0x55
 8001964:	f7ff fa8c 	bl	8000e80 <lcd_set_icon>
        return;
 8001968:	f000 be43 	b.w	80025f2 <LCD_HandleKey+0xebe>
    }

    /* ==================================================================
     * RTP PAGE 1 — IA=0x53, IS 0-7
     * ================================================================== */
    if(uiState == UI_RTP1)
 800196c:	4b26      	ldr	r3, [pc, #152]	@ (8001a08 <LCD_HandleKey+0x2d4>)
 800196e:	781b      	ldrb	r3, [r3, #0]
 8001970:	2b02      	cmp	r3, #2
 8001972:	d15b      	bne.n	8001a2c <LCD_HandleKey+0x2f8>
    {
        if(cmd == CMD_CURSOR_UP)
 8001974:	79fb      	ldrb	r3, [r7, #7]
 8001976:	2bf3      	cmp	r3, #243	@ 0xf3
 8001978:	d112      	bne.n	80019a0 <LCD_HandleKey+0x26c>
        {
            if(selRTP1 > 0) { selRTP1--; lcd_set_icon(IA_RTP1_CURSOR, selRTP1); }
 800197a:	4b29      	ldr	r3, [pc, #164]	@ (8001a20 <LCD_HandleKey+0x2ec>)
 800197c:	781b      	ldrb	r3, [r3, #0]
 800197e:	2b00      	cmp	r3, #0
 8001980:	f000 863f 	beq.w	8002602 <LCD_HandleKey+0xece>
 8001984:	4b26      	ldr	r3, [pc, #152]	@ (8001a20 <LCD_HandleKey+0x2ec>)
 8001986:	781b      	ldrb	r3, [r3, #0]
 8001988:	3b01      	subs	r3, #1
 800198a:	b2da      	uxtb	r2, r3
 800198c:	4b24      	ldr	r3, [pc, #144]	@ (8001a20 <LCD_HandleKey+0x2ec>)
 800198e:	701a      	strb	r2, [r3, #0]
 8001990:	4b23      	ldr	r3, [pc, #140]	@ (8001a20 <LCD_HandleKey+0x2ec>)
 8001992:	781b      	ldrb	r3, [r3, #0]
 8001994:	4619      	mov	r1, r3
 8001996:	2053      	movs	r0, #83	@ 0x53
 8001998:	f7ff fa72 	bl	8000e80 <lcd_set_icon>
                uiState = UI_RTP2; selRTP2 = 0;
                if(!LCD_SetPageIfAllowed(PAGE_RTP2)) return;
                lcd_set_icon(IA_RTP2_CURSOR, selRTP2);
            }
        }
        return;
 800199c:	f000 be31 	b.w	8002602 <LCD_HandleKey+0xece>
        else if(cmd == CMD_CURSOR_DOWN)
 80019a0:	79fb      	ldrb	r3, [r7, #7]
 80019a2:	2bf4      	cmp	r3, #244	@ 0xf4
 80019a4:	f040 862d 	bne.w	8002602 <LCD_HandleKey+0xece>
            if(selRTP1 < (RTP1_FIELD_COUNT - 1))
 80019a8:	4b1d      	ldr	r3, [pc, #116]	@ (8001a20 <LCD_HandleKey+0x2ec>)
 80019aa:	781b      	ldrb	r3, [r3, #0]
 80019ac:	2b06      	cmp	r3, #6
 80019ae:	d80d      	bhi.n	80019cc <LCD_HandleKey+0x298>
                selRTP1++;
 80019b0:	4b1b      	ldr	r3, [pc, #108]	@ (8001a20 <LCD_HandleKey+0x2ec>)
 80019b2:	781b      	ldrb	r3, [r3, #0]
 80019b4:	3301      	adds	r3, #1
 80019b6:	b2da      	uxtb	r2, r3
 80019b8:	4b19      	ldr	r3, [pc, #100]	@ (8001a20 <LCD_HandleKey+0x2ec>)
 80019ba:	701a      	strb	r2, [r3, #0]
                lcd_set_icon(IA_RTP1_CURSOR, selRTP1);
 80019bc:	4b18      	ldr	r3, [pc, #96]	@ (8001a20 <LCD_HandleKey+0x2ec>)
 80019be:	781b      	ldrb	r3, [r3, #0]
 80019c0:	4619      	mov	r1, r3
 80019c2:	2053      	movs	r0, #83	@ 0x53
 80019c4:	f7ff fa5c 	bl	8000e80 <lcd_set_icon>
        return;
 80019c8:	f000 be1b 	b.w	8002602 <LCD_HandleKey+0xece>
                uiState = UI_RTP2; selRTP2 = 0;
 80019cc:	4b0e      	ldr	r3, [pc, #56]	@ (8001a08 <LCD_HandleKey+0x2d4>)
 80019ce:	2203      	movs	r2, #3
 80019d0:	701a      	strb	r2, [r3, #0]
 80019d2:	4b15      	ldr	r3, [pc, #84]	@ (8001a28 <LCD_HandleKey+0x2f4>)
 80019d4:	2200      	movs	r2, #0
 80019d6:	701a      	strb	r2, [r3, #0]
                if(!LCD_SetPageIfAllowed(PAGE_RTP2)) return;
 80019d8:	2013      	movs	r0, #19
 80019da:	f7ff fd8b 	bl	80014f4 <LCD_SetPageIfAllowed>
 80019de:	4603      	mov	r3, r0
 80019e0:	2b00      	cmp	r3, #0
 80019e2:	f000 8610 	beq.w	8002606 <LCD_HandleKey+0xed2>
                lcd_set_icon(IA_RTP2_CURSOR, selRTP2);
 80019e6:	4b10      	ldr	r3, [pc, #64]	@ (8001a28 <LCD_HandleKey+0x2f4>)
 80019e8:	781b      	ldrb	r3, [r3, #0]
 80019ea:	4619      	mov	r1, r3
 80019ec:	2054      	movs	r0, #84	@ 0x54
 80019ee:	f7ff fa47 	bl	8000e80 <lcd_set_icon>
        return;
 80019f2:	f000 be06 	b.w	8002602 <LCD_HandleKey+0xece>
 80019f6:	bf00      	nop
 80019f8:	20000002 	.word	0x20000002
 80019fc:	20000251 	.word	0x20000251
 8001a00:	20000246 	.word	0x20000246
 8001a04:	20000284 	.word	0x20000284
 8001a08:	2000022c 	.word	0x2000022c
 8001a0c:	2000022d 	.word	0x2000022d
 8001a10:	2000023d 	.word	0x2000023d
 8001a14:	2000022e 	.word	0x2000022e
 8001a18:	20000255 	.word	0x20000255
 8001a1c:	20000248 	.word	0x20000248
 8001a20:	2000022f 	.word	0x2000022f
 8001a24:	2000023c 	.word	0x2000023c
 8001a28:	20000230 	.word	0x20000230
    }

    /* ==================================================================
     * RTP PAGE 2 — IA=0x54, IS 0-3
     * ================================================================== */
    if(uiState == UI_RTP2)
 8001a2c:	4ba3      	ldr	r3, [pc, #652]	@ (8001cbc <LCD_HandleKey+0x588>)
 8001a2e:	781b      	ldrb	r3, [r3, #0]
 8001a30:	2b03      	cmp	r3, #3
 8001a32:	d142      	bne.n	8001aba <LCD_HandleKey+0x386>
    {
        if(cmd == CMD_CURSOR_UP)
 8001a34:	79fb      	ldrb	r3, [r7, #7]
 8001a36:	2bf3      	cmp	r3, #243	@ 0xf3
 8001a38:	d128      	bne.n	8001a8c <LCD_HandleKey+0x358>
        {
            if(selRTP2 > 0) { selRTP2--; lcd_set_icon(IA_RTP2_CURSOR, selRTP2); }
 8001a3a:	4ba1      	ldr	r3, [pc, #644]	@ (8001cc0 <LCD_HandleKey+0x58c>)
 8001a3c:	781b      	ldrb	r3, [r3, #0]
 8001a3e:	2b00      	cmp	r3, #0
 8001a40:	d00d      	beq.n	8001a5e <LCD_HandleKey+0x32a>
 8001a42:	4b9f      	ldr	r3, [pc, #636]	@ (8001cc0 <LCD_HandleKey+0x58c>)
 8001a44:	781b      	ldrb	r3, [r3, #0]
 8001a46:	3b01      	subs	r3, #1
 8001a48:	b2da      	uxtb	r2, r3
 8001a4a:	4b9d      	ldr	r3, [pc, #628]	@ (8001cc0 <LCD_HandleKey+0x58c>)
 8001a4c:	701a      	strb	r2, [r3, #0]
 8001a4e:	4b9c      	ldr	r3, [pc, #624]	@ (8001cc0 <LCD_HandleKey+0x58c>)
 8001a50:	781b      	ldrb	r3, [r3, #0]
 8001a52:	4619      	mov	r1, r3
 8001a54:	2054      	movs	r0, #84	@ 0x54
 8001a56:	f7ff fa13 	bl	8000e80 <lcd_set_icon>
            {
                selRTP2++;
                lcd_set_icon(IA_RTP2_CURSOR, selRTP2);
            }
        }
        return;
 8001a5a:	f000 bdd8 	b.w	800260e <LCD_HandleKey+0xeda>
                uiState = UI_RTP1; selRTP1 = RTP1_FIELD_COUNT - 1;
 8001a5e:	4b97      	ldr	r3, [pc, #604]	@ (8001cbc <LCD_HandleKey+0x588>)
 8001a60:	2202      	movs	r2, #2
 8001a62:	701a      	strb	r2, [r3, #0]
 8001a64:	4b97      	ldr	r3, [pc, #604]	@ (8001cc4 <LCD_HandleKey+0x590>)
 8001a66:	2207      	movs	r2, #7
 8001a68:	701a      	strb	r2, [r3, #0]
                if(!LCD_SetPageIfAllowed(PAGE_RTP1)) return;
 8001a6a:	2012      	movs	r0, #18
 8001a6c:	f7ff fd42 	bl	80014f4 <LCD_SetPageIfAllowed>
 8001a70:	4603      	mov	r3, r0
 8001a72:	2b00      	cmp	r3, #0
 8001a74:	f000 85c9 	beq.w	800260a <LCD_HandleKey+0xed6>
                lcd_set_icon(IA_RTP1_CURSOR, selRTP1);
 8001a78:	4b92      	ldr	r3, [pc, #584]	@ (8001cc4 <LCD_HandleKey+0x590>)
 8001a7a:	781b      	ldrb	r3, [r3, #0]
 8001a7c:	4619      	mov	r1, r3
 8001a7e:	2053      	movs	r0, #83	@ 0x53
 8001a80:	f7ff f9fe 	bl	8000e80 <lcd_set_icon>
                LCD_RTP1_Seed();
 8001a84:	f7ff fd92 	bl	80015ac <LCD_RTP1_Seed>
        return;
 8001a88:	f000 bdc1 	b.w	800260e <LCD_HandleKey+0xeda>
        else if(cmd == CMD_CURSOR_DOWN)
 8001a8c:	79fb      	ldrb	r3, [r7, #7]
 8001a8e:	2bf4      	cmp	r3, #244	@ 0xf4
 8001a90:	f040 85bd 	bne.w	800260e <LCD_HandleKey+0xeda>
            if(selRTP2 < (RTP2_FIELD_COUNT - 1))
 8001a94:	4b8a      	ldr	r3, [pc, #552]	@ (8001cc0 <LCD_HandleKey+0x58c>)
 8001a96:	781b      	ldrb	r3, [r3, #0]
 8001a98:	2b02      	cmp	r3, #2
 8001a9a:	f200 85b8 	bhi.w	800260e <LCD_HandleKey+0xeda>
                selRTP2++;
 8001a9e:	4b88      	ldr	r3, [pc, #544]	@ (8001cc0 <LCD_HandleKey+0x58c>)
 8001aa0:	781b      	ldrb	r3, [r3, #0]
 8001aa2:	3301      	adds	r3, #1
 8001aa4:	b2da      	uxtb	r2, r3
 8001aa6:	4b86      	ldr	r3, [pc, #536]	@ (8001cc0 <LCD_HandleKey+0x58c>)
 8001aa8:	701a      	strb	r2, [r3, #0]
                lcd_set_icon(IA_RTP2_CURSOR, selRTP2);
 8001aaa:	4b85      	ldr	r3, [pc, #532]	@ (8001cc0 <LCD_HandleKey+0x58c>)
 8001aac:	781b      	ldrb	r3, [r3, #0]
 8001aae:	4619      	mov	r1, r3
 8001ab0:	2054      	movs	r0, #84	@ 0x54
 8001ab2:	f7ff f9e5 	bl	8000e80 <lcd_set_icon>
        return;
 8001ab6:	f000 bdaa 	b.w	800260e <LCD_HandleKey+0xeda>
    }

    /* ==================================================================
     * BATTERY — read-only
     * ================================================================== */
    if(uiState == UI_BATTERY) { return; }
 8001aba:	4b80      	ldr	r3, [pc, #512]	@ (8001cbc <LCD_HandleKey+0x588>)
 8001abc:	781b      	ldrb	r3, [r3, #0]
 8001abe:	2b04      	cmp	r3, #4
 8001ac0:	f000 85a7 	beq.w	8002612 <LCD_HandleKey+0xede>

    /* ==================================================================
     * SETTING SELECTOR — IA=0x56, IS 0-3
     * ================================================================== */
    if(uiState == UI_SETTING)
 8001ac4:	4b7d      	ldr	r3, [pc, #500]	@ (8001cbc <LCD_HandleKey+0x588>)
 8001ac6:	781b      	ldrb	r3, [r3, #0]
 8001ac8:	2b05      	cmp	r3, #5
 8001aca:	d17a      	bne.n	8001bc2 <LCD_HandleKey+0x48e>
    {
        if(cmd == CMD_CURSOR_UP)
 8001acc:	79fb      	ldrb	r3, [r7, #7]
 8001ace:	2bf3      	cmp	r3, #243	@ 0xf3
 8001ad0:	d111      	bne.n	8001af6 <LCD_HandleKey+0x3c2>
        {
            if(selSetting > 0) selSetting--;
 8001ad2:	4b7d      	ldr	r3, [pc, #500]	@ (8001cc8 <LCD_HandleKey+0x594>)
 8001ad4:	781b      	ldrb	r3, [r3, #0]
 8001ad6:	2b00      	cmp	r3, #0
 8001ad8:	d005      	beq.n	8001ae6 <LCD_HandleKey+0x3b2>
 8001ada:	4b7b      	ldr	r3, [pc, #492]	@ (8001cc8 <LCD_HandleKey+0x594>)
 8001adc:	781b      	ldrb	r3, [r3, #0]
 8001ade:	3b01      	subs	r3, #1
 8001ae0:	b2da      	uxtb	r2, r3
 8001ae2:	4b79      	ldr	r3, [pc, #484]	@ (8001cc8 <LCD_HandleKey+0x594>)
 8001ae4:	701a      	strb	r2, [r3, #0]
            lcd_set_icon(IA_SETTING, selSetting);
 8001ae6:	4b78      	ldr	r3, [pc, #480]	@ (8001cc8 <LCD_HandleKey+0x594>)
 8001ae8:	781b      	ldrb	r3, [r3, #0]
 8001aea:	4619      	mov	r1, r3
 8001aec:	2056      	movs	r0, #86	@ 0x56
 8001aee:	f7ff f9c7 	bl	8000e80 <lcd_set_icon>
                    LCD_OpenAntiCollisionPage(0);   /* same page 23 normal flow */
                    break;
                default: break;
            }
        }
        return;
 8001af2:	f000 bd90 	b.w	8002616 <LCD_HandleKey+0xee2>
        else if(cmd == CMD_CURSOR_DOWN)
 8001af6:	79fb      	ldrb	r3, [r7, #7]
 8001af8:	2bf4      	cmp	r3, #244	@ 0xf4
 8001afa:	d111      	bne.n	8001b20 <LCD_HandleKey+0x3ec>
            if(selSetting < (SETTING_ITEM_COUNT - 1)) selSetting++;
 8001afc:	4b72      	ldr	r3, [pc, #456]	@ (8001cc8 <LCD_HandleKey+0x594>)
 8001afe:	781b      	ldrb	r3, [r3, #0]
 8001b00:	2b01      	cmp	r3, #1
 8001b02:	d805      	bhi.n	8001b10 <LCD_HandleKey+0x3dc>
 8001b04:	4b70      	ldr	r3, [pc, #448]	@ (8001cc8 <LCD_HandleKey+0x594>)
 8001b06:	781b      	ldrb	r3, [r3, #0]
 8001b08:	3301      	adds	r3, #1
 8001b0a:	b2da      	uxtb	r2, r3
 8001b0c:	4b6e      	ldr	r3, [pc, #440]	@ (8001cc8 <LCD_HandleKey+0x594>)
 8001b0e:	701a      	strb	r2, [r3, #0]
            lcd_set_icon(IA_SETTING, selSetting);
 8001b10:	4b6d      	ldr	r3, [pc, #436]	@ (8001cc8 <LCD_HandleKey+0x594>)
 8001b12:	781b      	ldrb	r3, [r3, #0]
 8001b14:	4619      	mov	r1, r3
 8001b16:	2056      	movs	r0, #86	@ 0x56
 8001b18:	f7ff f9b2 	bl	8000e80 <lcd_set_icon>
        return;
 8001b1c:	f000 bd7b 	b.w	8002616 <LCD_HandleKey+0xee2>
        else if(cmd == CMD_ACCEPT)
 8001b20:	79fb      	ldrb	r3, [r7, #7]
 8001b22:	2bf1      	cmp	r3, #241	@ 0xf1
 8001b24:	f040 8577 	bne.w	8002616 <LCD_HandleKey+0xee2>
            switch(selSetting)
 8001b28:	4b67      	ldr	r3, [pc, #412]	@ (8001cc8 <LCD_HandleKey+0x594>)
 8001b2a:	781b      	ldrb	r3, [r3, #0]
 8001b2c:	2b02      	cmp	r3, #2
 8001b2e:	d035      	beq.n	8001b9c <LCD_HandleKey+0x468>
 8001b30:	2b02      	cmp	r3, #2
 8001b32:	dc3d      	bgt.n	8001bb0 <LCD_HandleKey+0x47c>
 8001b34:	2b00      	cmp	r3, #0
 8001b36:	d002      	beq.n	8001b3e <LCD_HandleKey+0x40a>
 8001b38:	2b01      	cmp	r3, #1
 8001b3a:	d015      	beq.n	8001b68 <LCD_HandleKey+0x434>
                default: break;
 8001b3c:	e038      	b.n	8001bb0 <LCD_HandleKey+0x47c>
                    uiState = UI_SETTING_CLOCK; parentState = UI_SETTING;
 8001b3e:	4b5f      	ldr	r3, [pc, #380]	@ (8001cbc <LCD_HandleKey+0x588>)
 8001b40:	2206      	movs	r2, #6
 8001b42:	701a      	strb	r2, [r3, #0]
 8001b44:	4b61      	ldr	r3, [pc, #388]	@ (8001ccc <LCD_HandleKey+0x598>)
 8001b46:	2205      	movs	r2, #5
 8001b48:	701a      	strb	r2, [r3, #0]
                    clockCursor = 0;
 8001b4a:	4b61      	ldr	r3, [pc, #388]	@ (8001cd0 <LCD_HandleKey+0x59c>)
 8001b4c:	2200      	movs	r2, #0
 8001b4e:	701a      	strb	r2, [r3, #0]
                    lcd_set_page(PAGE_SETTING_CLOCK);
 8001b50:	2016      	movs	r0, #22
 8001b52:	f7ff f94b 	bl	8000dec <lcd_set_page>
                    lcd_set_icon(IA_CLOCK_CURSOR, clockCursor);
 8001b56:	4b5e      	ldr	r3, [pc, #376]	@ (8001cd0 <LCD_HandleKey+0x59c>)
 8001b58:	781b      	ldrb	r3, [r3, #0]
 8001b5a:	4619      	mov	r1, r3
 8001b5c:	2057      	movs	r0, #87	@ 0x57
 8001b5e:	f7ff f98f 	bl	8000e80 <lcd_set_icon>
                    LCD_Clock_Refresh();
 8001b62:	f7ff fd43 	bl	80015ec <LCD_Clock_Refresh>
                    break;
 8001b66:	e02a      	b.n	8001bbe <LCD_HandleKey+0x48a>
                    if(!LCD_FeatureEnabled(LCD_FEATURE_BATTERY)) break;
 8001b68:	2000      	movs	r0, #0
 8001b6a:	f7ff fb03 	bl	8001174 <LCD_FeatureEnabled>
 8001b6e:	4603      	mov	r3, r0
 8001b70:	2b00      	cmp	r3, #0
 8001b72:	d020      	beq.n	8001bb6 <LCD_HandleKey+0x482>
                    uiState = UI_BATTERY; parentState = UI_SETTING;
 8001b74:	4b51      	ldr	r3, [pc, #324]	@ (8001cbc <LCD_HandleKey+0x588>)
 8001b76:	2204      	movs	r2, #4
 8001b78:	701a      	strb	r2, [r3, #0]
 8001b7a:	4b54      	ldr	r3, [pc, #336]	@ (8001ccc <LCD_HandleKey+0x598>)
 8001b7c:	2205      	movs	r2, #5
 8001b7e:	701a      	strb	r2, [r3, #0]
                    if(!LCD_SetPageIfAllowed(PAGE_BATTERY)) return;
 8001b80:	2014      	movs	r0, #20
 8001b82:	f7ff fcb7 	bl	80014f4 <LCD_SetPageIfAllowed>
 8001b86:	4603      	mov	r3, r0
 8001b88:	2b00      	cmp	r3, #0
 8001b8a:	f000 8546 	beq.w	800261a <LCD_HandleKey+0xee6>
                    lcd_set_icon(IA_BATTERY, batteryLevel);
 8001b8e:	4b51      	ldr	r3, [pc, #324]	@ (8001cd4 <LCD_HandleKey+0x5a0>)
 8001b90:	781b      	ldrb	r3, [r3, #0]
 8001b92:	4619      	mov	r1, r3
 8001b94:	2055      	movs	r0, #85	@ 0x55
 8001b96:	f7ff f973 	bl	8000e80 <lcd_set_icon>
                    break;
 8001b9a:	e010      	b.n	8001bbe <LCD_HandleKey+0x48a>
                    if(!LCD_FeatureEnabled(LCD_FEATURE_COLLISION)) break;
 8001b9c:	2003      	movs	r0, #3
 8001b9e:	f7ff fae9 	bl	8001174 <LCD_FeatureEnabled>
 8001ba2:	4603      	mov	r3, r0
 8001ba4:	2b00      	cmp	r3, #0
 8001ba6:	d009      	beq.n	8001bbc <LCD_HandleKey+0x488>
                    LCD_OpenAntiCollisionPage(0);   /* same page 23 normal flow */
 8001ba8:	2000      	movs	r0, #0
 8001baa:	f7ff fb05 	bl	80011b8 <LCD_OpenAntiCollisionPage>
                    break;
 8001bae:	e006      	b.n	8001bbe <LCD_HandleKey+0x48a>
                default: break;
 8001bb0:	bf00      	nop
 8001bb2:	f000 bd30 	b.w	8002616 <LCD_HandleKey+0xee2>
                    if(!LCD_FeatureEnabled(LCD_FEATURE_BATTERY)) break;
 8001bb6:	bf00      	nop
 8001bb8:	f000 bd2d 	b.w	8002616 <LCD_HandleKey+0xee2>
                    if(!LCD_FeatureEnabled(LCD_FEATURE_COLLISION)) break;
 8001bbc:	bf00      	nop
        return;
 8001bbe:	f000 bd2a 	b.w	8002616 <LCD_HandleKey+0xee2>
    }

    /* ==================================================================
     * SETTING → CLOCK — PA=22, IA=0x57
     * ================================================================== */
    if(uiState == UI_SETTING_CLOCK)
 8001bc2:	4b3e      	ldr	r3, [pc, #248]	@ (8001cbc <LCD_HandleKey+0x588>)
 8001bc4:	781b      	ldrb	r3, [r3, #0]
 8001bc6:	2b06      	cmp	r3, #6
 8001bc8:	d163      	bne.n	8001c92 <LCD_HandleKey+0x55e>
    {
        if(cmd == CMD_CURSOR_UP || cmd == CMD_CURSOR_DOWN)
 8001bca:	79fb      	ldrb	r3, [r7, #7]
 8001bcc:	2bf3      	cmp	r3, #243	@ 0xf3
 8001bce:	d002      	beq.n	8001bd6 <LCD_HandleKey+0x4a2>
 8001bd0:	79fb      	ldrb	r3, [r7, #7]
 8001bd2:	2bf4      	cmp	r3, #244	@ 0xf4
 8001bd4:	d10e      	bne.n	8001bf4 <LCD_HandleKey+0x4c0>
        {
            clockCursor ^= 1;
 8001bd6:	4b3e      	ldr	r3, [pc, #248]	@ (8001cd0 <LCD_HandleKey+0x59c>)
 8001bd8:	781b      	ldrb	r3, [r3, #0]
 8001bda:	f083 0301 	eor.w	r3, r3, #1
 8001bde:	b2da      	uxtb	r2, r3
 8001be0:	4b3b      	ldr	r3, [pc, #236]	@ (8001cd0 <LCD_HandleKey+0x59c>)
 8001be2:	701a      	strb	r2, [r3, #0]
            lcd_set_icon(IA_CLOCK_CURSOR, clockCursor);
 8001be4:	4b3a      	ldr	r3, [pc, #232]	@ (8001cd0 <LCD_HandleKey+0x59c>)
 8001be6:	781b      	ldrb	r3, [r3, #0]
 8001be8:	4619      	mov	r1, r3
 8001bea:	2057      	movs	r0, #87	@ 0x57
 8001bec:	f7ff f948 	bl	8000e80 <lcd_set_icon>
        }
        else if(cmd == CMD_ACCEPT)
        {
            /* TODO: ACTION_SendClock(clockHour, clockMin); */
        }
        return;
 8001bf0:	f000 bd15 	b.w	800261e <LCD_HandleKey+0xeea>
        else if(cmd == CMD_CURSOR_RIGHT)
 8001bf4:	79fb      	ldrb	r3, [r7, #7]
 8001bf6:	2bf6      	cmp	r3, #246	@ 0xf6
 8001bf8:	d122      	bne.n	8001c40 <LCD_HandleKey+0x50c>
            if(clockCursor == 0) { clockHour++; if(clockHour > 23) clockHour = 0; }
 8001bfa:	4b35      	ldr	r3, [pc, #212]	@ (8001cd0 <LCD_HandleKey+0x59c>)
 8001bfc:	781b      	ldrb	r3, [r3, #0]
 8001bfe:	2b00      	cmp	r3, #0
 8001c00:	d10d      	bne.n	8001c1e <LCD_HandleKey+0x4ea>
 8001c02:	4b35      	ldr	r3, [pc, #212]	@ (8001cd8 <LCD_HandleKey+0x5a4>)
 8001c04:	781b      	ldrb	r3, [r3, #0]
 8001c06:	3301      	adds	r3, #1
 8001c08:	b2da      	uxtb	r2, r3
 8001c0a:	4b33      	ldr	r3, [pc, #204]	@ (8001cd8 <LCD_HandleKey+0x5a4>)
 8001c0c:	701a      	strb	r2, [r3, #0]
 8001c0e:	4b32      	ldr	r3, [pc, #200]	@ (8001cd8 <LCD_HandleKey+0x5a4>)
 8001c10:	781b      	ldrb	r3, [r3, #0]
 8001c12:	2b17      	cmp	r3, #23
 8001c14:	d910      	bls.n	8001c38 <LCD_HandleKey+0x504>
 8001c16:	4b30      	ldr	r3, [pc, #192]	@ (8001cd8 <LCD_HandleKey+0x5a4>)
 8001c18:	2200      	movs	r2, #0
 8001c1a:	701a      	strb	r2, [r3, #0]
 8001c1c:	e00c      	b.n	8001c38 <LCD_HandleKey+0x504>
            else                 { clockMin++;  if(clockMin  > 59) clockMin  = 0; }
 8001c1e:	4b2f      	ldr	r3, [pc, #188]	@ (8001cdc <LCD_HandleKey+0x5a8>)
 8001c20:	781b      	ldrb	r3, [r3, #0]
 8001c22:	3301      	adds	r3, #1
 8001c24:	b2da      	uxtb	r2, r3
 8001c26:	4b2d      	ldr	r3, [pc, #180]	@ (8001cdc <LCD_HandleKey+0x5a8>)
 8001c28:	701a      	strb	r2, [r3, #0]
 8001c2a:	4b2c      	ldr	r3, [pc, #176]	@ (8001cdc <LCD_HandleKey+0x5a8>)
 8001c2c:	781b      	ldrb	r3, [r3, #0]
 8001c2e:	2b3b      	cmp	r3, #59	@ 0x3b
 8001c30:	d902      	bls.n	8001c38 <LCD_HandleKey+0x504>
 8001c32:	4b2a      	ldr	r3, [pc, #168]	@ (8001cdc <LCD_HandleKey+0x5a8>)
 8001c34:	2200      	movs	r2, #0
 8001c36:	701a      	strb	r2, [r3, #0]
            LCD_Clock_Refresh();
 8001c38:	f7ff fcd8 	bl	80015ec <LCD_Clock_Refresh>
        return;
 8001c3c:	f000 bcef 	b.w	800261e <LCD_HandleKey+0xeea>
        else if(cmd == CMD_CURSOR_LEFT)
 8001c40:	79fb      	ldrb	r3, [r7, #7]
 8001c42:	2bf5      	cmp	r3, #245	@ 0xf5
 8001c44:	f040 84eb 	bne.w	800261e <LCD_HandleKey+0xeea>
            if(clockCursor == 0) { if(clockHour == 0) clockHour = 23; else clockHour--; }
 8001c48:	4b21      	ldr	r3, [pc, #132]	@ (8001cd0 <LCD_HandleKey+0x59c>)
 8001c4a:	781b      	ldrb	r3, [r3, #0]
 8001c4c:	2b00      	cmp	r3, #0
 8001c4e:	d10e      	bne.n	8001c6e <LCD_HandleKey+0x53a>
 8001c50:	4b21      	ldr	r3, [pc, #132]	@ (8001cd8 <LCD_HandleKey+0x5a4>)
 8001c52:	781b      	ldrb	r3, [r3, #0]
 8001c54:	2b00      	cmp	r3, #0
 8001c56:	d103      	bne.n	8001c60 <LCD_HandleKey+0x52c>
 8001c58:	4b1f      	ldr	r3, [pc, #124]	@ (8001cd8 <LCD_HandleKey+0x5a4>)
 8001c5a:	2217      	movs	r2, #23
 8001c5c:	701a      	strb	r2, [r3, #0]
 8001c5e:	e014      	b.n	8001c8a <LCD_HandleKey+0x556>
 8001c60:	4b1d      	ldr	r3, [pc, #116]	@ (8001cd8 <LCD_HandleKey+0x5a4>)
 8001c62:	781b      	ldrb	r3, [r3, #0]
 8001c64:	3b01      	subs	r3, #1
 8001c66:	b2da      	uxtb	r2, r3
 8001c68:	4b1b      	ldr	r3, [pc, #108]	@ (8001cd8 <LCD_HandleKey+0x5a4>)
 8001c6a:	701a      	strb	r2, [r3, #0]
 8001c6c:	e00d      	b.n	8001c8a <LCD_HandleKey+0x556>
            else                 { if(clockMin  == 0) clockMin  = 59; else clockMin--;  }
 8001c6e:	4b1b      	ldr	r3, [pc, #108]	@ (8001cdc <LCD_HandleKey+0x5a8>)
 8001c70:	781b      	ldrb	r3, [r3, #0]
 8001c72:	2b00      	cmp	r3, #0
 8001c74:	d103      	bne.n	8001c7e <LCD_HandleKey+0x54a>
 8001c76:	4b19      	ldr	r3, [pc, #100]	@ (8001cdc <LCD_HandleKey+0x5a8>)
 8001c78:	223b      	movs	r2, #59	@ 0x3b
 8001c7a:	701a      	strb	r2, [r3, #0]
 8001c7c:	e005      	b.n	8001c8a <LCD_HandleKey+0x556>
 8001c7e:	4b17      	ldr	r3, [pc, #92]	@ (8001cdc <LCD_HandleKey+0x5a8>)
 8001c80:	781b      	ldrb	r3, [r3, #0]
 8001c82:	3b01      	subs	r3, #1
 8001c84:	b2da      	uxtb	r2, r3
 8001c86:	4b15      	ldr	r3, [pc, #84]	@ (8001cdc <LCD_HandleKey+0x5a8>)
 8001c88:	701a      	strb	r2, [r3, #0]
            LCD_Clock_Refresh();
 8001c8a:	f7ff fcaf 	bl	80015ec <LCD_Clock_Refresh>
        return;
 8001c8e:	f000 bcc6 	b.w	800261e <LCD_HandleKey+0xeea>
    }

    /* ==================================================================
     * SETTING → ANTI — PA=23, IA=0x58
     * ================================================================== */
    if(uiState == UI_SETTING_ANTI) { (void)cmd; return; }
 8001c92:	4b0a      	ldr	r3, [pc, #40]	@ (8001cbc <LCD_HandleKey+0x588>)
 8001c94:	781b      	ldrb	r3, [r3, #0]
 8001c96:	2b07      	cmp	r3, #7
 8001c98:	f000 84c3 	beq.w	8002622 <LCD_HandleKey+0xeee>
     * User can toggle any feature ON (right/accept) or OFF (left).
     * After each toggle LCD_CloseCurrentPageIfDisabled() is called so
     * if the user disables the page they are currently on, the HMI
     * immediately returns to HOME.
     * ================================================================== */
    if(uiState == UI_COMBO_FLEX)
 8001c9c:	4b07      	ldr	r3, [pc, #28]	@ (8001cbc <LCD_HandleKey+0x588>)
 8001c9e:	781b      	ldrb	r3, [r3, #0]
 8001ca0:	2b08      	cmp	r3, #8
 8001ca2:	d173      	bne.n	8001d8c <LCD_HandleKey+0x658>
    {
        if(cmd == CMD_CURSOR_UP)
 8001ca4:	79fb      	ldrb	r3, [r7, #7]
 8001ca6:	2bf3      	cmp	r3, #243	@ 0xf3
 8001ca8:	d12a      	bne.n	8001d00 <LCD_HandleKey+0x5cc>
        {
            CIRC_DEC(selFeature, ACCEPT_FIELD_COUNT - 1);
 8001caa:	4b0d      	ldr	r3, [pc, #52]	@ (8001ce0 <LCD_HandleKey+0x5ac>)
 8001cac:	781b      	ldrb	r3, [r3, #0]
 8001cae:	2b00      	cmp	r3, #0
 8001cb0:	d118      	bne.n	8001ce4 <LCD_HandleKey+0x5b0>
 8001cb2:	4b0b      	ldr	r3, [pc, #44]	@ (8001ce0 <LCD_HandleKey+0x5ac>)
 8001cb4:	2206      	movs	r2, #6
 8001cb6:	701a      	strb	r2, [r3, #0]
 8001cb8:	e01a      	b.n	8001cf0 <LCD_HandleKey+0x5bc>
 8001cba:	bf00      	nop
 8001cbc:	2000022c 	.word	0x2000022c
 8001cc0:	20000230 	.word	0x20000230
 8001cc4:	2000022f 	.word	0x2000022f
 8001cc8:	2000023d 	.word	0x2000023d
 8001ccc:	2000022d 	.word	0x2000022d
 8001cd0:	2000023e 	.word	0x2000023e
 8001cd4:	2000023c 	.word	0x2000023c
 8001cd8:	2000023f 	.word	0x2000023f
 8001cdc:	20000240 	.word	0x20000240
 8001ce0:	20000252 	.word	0x20000252
 8001ce4:	4b9e      	ldr	r3, [pc, #632]	@ (8001f60 <LCD_HandleKey+0x82c>)
 8001ce6:	781b      	ldrb	r3, [r3, #0]
 8001ce8:	3b01      	subs	r3, #1
 8001cea:	b2da      	uxtb	r2, r3
 8001cec:	4b9c      	ldr	r3, [pc, #624]	@ (8001f60 <LCD_HandleKey+0x82c>)
 8001cee:	701a      	strb	r2, [r3, #0]
            lcd_set_icon(IA_SEL_COMBO_FLEX, selFeature);
 8001cf0:	4b9b      	ldr	r3, [pc, #620]	@ (8001f60 <LCD_HandleKey+0x82c>)
 8001cf2:	781b      	ldrb	r3, [r3, #0]
 8001cf4:	4619      	mov	r1, r3
 8001cf6:	2048      	movs	r0, #72	@ 0x48
 8001cf8:	f7ff f8c2 	bl	8000e80 <lcd_set_icon>
        {
            featureEnable[selFeature] = 0;
            LCD_PushFeatureState(selFeature);
            LCD_CloseCurrentPageIfDisabled();
        }
        return;
 8001cfc:	f000 bc93 	b.w	8002626 <LCD_HandleKey+0xef2>
        else if(cmd == CMD_CURSOR_DOWN)
 8001d00:	79fb      	ldrb	r3, [r7, #7]
 8001d02:	2bf4      	cmp	r3, #244	@ 0xf4
 8001d04:	d114      	bne.n	8001d30 <LCD_HandleKey+0x5fc>
            CIRC_INC(selFeature, ACCEPT_FIELD_COUNT - 1);
 8001d06:	4b96      	ldr	r3, [pc, #600]	@ (8001f60 <LCD_HandleKey+0x82c>)
 8001d08:	781b      	ldrb	r3, [r3, #0]
 8001d0a:	3301      	adds	r3, #1
 8001d0c:	b2da      	uxtb	r2, r3
 8001d0e:	4b94      	ldr	r3, [pc, #592]	@ (8001f60 <LCD_HandleKey+0x82c>)
 8001d10:	701a      	strb	r2, [r3, #0]
 8001d12:	4b93      	ldr	r3, [pc, #588]	@ (8001f60 <LCD_HandleKey+0x82c>)
 8001d14:	781b      	ldrb	r3, [r3, #0]
 8001d16:	2b06      	cmp	r3, #6
 8001d18:	d902      	bls.n	8001d20 <LCD_HandleKey+0x5ec>
 8001d1a:	4b91      	ldr	r3, [pc, #580]	@ (8001f60 <LCD_HandleKey+0x82c>)
 8001d1c:	2200      	movs	r2, #0
 8001d1e:	701a      	strb	r2, [r3, #0]
            lcd_set_icon(IA_SEL_COMBO_FLEX, selFeature);
 8001d20:	4b8f      	ldr	r3, [pc, #572]	@ (8001f60 <LCD_HandleKey+0x82c>)
 8001d22:	781b      	ldrb	r3, [r3, #0]
 8001d24:	4619      	mov	r1, r3
 8001d26:	2048      	movs	r0, #72	@ 0x48
 8001d28:	f7ff f8aa 	bl	8000e80 <lcd_set_icon>
        return;
 8001d2c:	f000 bc7b 	b.w	8002626 <LCD_HandleKey+0xef2>
        else if(cmd == CMD_CURSOR_RIGHT || cmd == CMD_ACCEPT)
 8001d30:	79fb      	ldrb	r3, [r7, #7]
 8001d32:	2bf6      	cmp	r3, #246	@ 0xf6
 8001d34:	d002      	beq.n	8001d3c <LCD_HandleKey+0x608>
 8001d36:	79fb      	ldrb	r3, [r7, #7]
 8001d38:	2bf1      	cmp	r3, #241	@ 0xf1
 8001d3a:	d114      	bne.n	8001d66 <LCD_HandleKey+0x632>
            featureEnable[selFeature] ^= 1;
 8001d3c:	4b88      	ldr	r3, [pc, #544]	@ (8001f60 <LCD_HandleKey+0x82c>)
 8001d3e:	781b      	ldrb	r3, [r3, #0]
 8001d40:	461a      	mov	r2, r3
 8001d42:	4b88      	ldr	r3, [pc, #544]	@ (8001f64 <LCD_HandleKey+0x830>)
 8001d44:	5c9b      	ldrb	r3, [r3, r2]
 8001d46:	4a86      	ldr	r2, [pc, #536]	@ (8001f60 <LCD_HandleKey+0x82c>)
 8001d48:	7812      	ldrb	r2, [r2, #0]
 8001d4a:	f083 0301 	eor.w	r3, r3, #1
 8001d4e:	b2d9      	uxtb	r1, r3
 8001d50:	4b84      	ldr	r3, [pc, #528]	@ (8001f64 <LCD_HandleKey+0x830>)
 8001d52:	5499      	strb	r1, [r3, r2]
            LCD_PushFeatureState(selFeature);
 8001d54:	4b82      	ldr	r3, [pc, #520]	@ (8001f60 <LCD_HandleKey+0x82c>)
 8001d56:	781b      	ldrb	r3, [r3, #0]
 8001d58:	4618      	mov	r0, r3
 8001d5a:	f7ff fc5b 	bl	8001614 <LCD_PushFeatureState>
            LCD_CloseCurrentPageIfDisabled();
 8001d5e:	f7ff fbf3 	bl	8001548 <LCD_CloseCurrentPageIfDisabled>
        return;
 8001d62:	f000 bc60 	b.w	8002626 <LCD_HandleKey+0xef2>
        else if(cmd == CMD_CURSOR_LEFT)
 8001d66:	79fb      	ldrb	r3, [r7, #7]
 8001d68:	2bf5      	cmp	r3, #245	@ 0xf5
 8001d6a:	f040 845c 	bne.w	8002626 <LCD_HandleKey+0xef2>
            featureEnable[selFeature] = 0;
 8001d6e:	4b7c      	ldr	r3, [pc, #496]	@ (8001f60 <LCD_HandleKey+0x82c>)
 8001d70:	781b      	ldrb	r3, [r3, #0]
 8001d72:	461a      	mov	r2, r3
 8001d74:	4b7b      	ldr	r3, [pc, #492]	@ (8001f64 <LCD_HandleKey+0x830>)
 8001d76:	2100      	movs	r1, #0
 8001d78:	5499      	strb	r1, [r3, r2]
            LCD_PushFeatureState(selFeature);
 8001d7a:	4b79      	ldr	r3, [pc, #484]	@ (8001f60 <LCD_HandleKey+0x82c>)
 8001d7c:	781b      	ldrb	r3, [r3, #0]
 8001d7e:	4618      	mov	r0, r3
 8001d80:	f7ff fc48 	bl	8001614 <LCD_PushFeatureState>
            LCD_CloseCurrentPageIfDisabled();
 8001d84:	f7ff fbe0 	bl	8001548 <LCD_CloseCurrentPageIfDisabled>
        return;
 8001d88:	f000 bc4d 	b.w	8002626 <LCD_HandleKey+0xef2>
    }

    /* ==================================================================
     * COMBO: GoBack+HeightDn — PA=14, IA=0x49, IS 0-6
     * ================================================================== */
    if(uiState == UI_COMBO_HEIGHT)
 8001d8c:	4b76      	ldr	r3, [pc, #472]	@ (8001f68 <LCD_HandleKey+0x834>)
 8001d8e:	781b      	ldrb	r3, [r3, #0]
 8001d90:	2b09      	cmp	r3, #9
 8001d92:	f040 809b 	bne.w	8001ecc <LCD_HandleKey+0x798>
    {
        if(cmd == CMD_CURSOR_UP)
 8001d96:	79fb      	ldrb	r3, [r7, #7]
 8001d98:	2bf3      	cmp	r3, #243	@ 0xf3
 8001d9a:	d111      	bne.n	8001dc0 <LCD_HandleKey+0x68c>
        {
            if(selComboHeight > 0) selComboHeight--;
 8001d9c:	4b73      	ldr	r3, [pc, #460]	@ (8001f6c <LCD_HandleKey+0x838>)
 8001d9e:	781b      	ldrb	r3, [r3, #0]
 8001da0:	2b00      	cmp	r3, #0
 8001da2:	d005      	beq.n	8001db0 <LCD_HandleKey+0x67c>
 8001da4:	4b71      	ldr	r3, [pc, #452]	@ (8001f6c <LCD_HandleKey+0x838>)
 8001da6:	781b      	ldrb	r3, [r3, #0]
 8001da8:	3b01      	subs	r3, #1
 8001daa:	b2da      	uxtb	r2, r3
 8001dac:	4b6f      	ldr	r3, [pc, #444]	@ (8001f6c <LCD_HandleKey+0x838>)
 8001dae:	701a      	strb	r2, [r3, #0]
            lcd_set_icon(IA_SEL_COMBO_HEIGHT, selComboHeight);
 8001db0:	4b6e      	ldr	r3, [pc, #440]	@ (8001f6c <LCD_HandleKey+0x838>)
 8001db2:	781b      	ldrb	r3, [r3, #0]
 8001db4:	4619      	mov	r1, r3
 8001db6:	2049      	movs	r0, #73	@ 0x49
 8001db8:	f7ff f862 	bl	8000e80 <lcd_set_icon>
            {
                comboHeightVal[5] = comboHeightVal[3] + comboHeightVal[4];
                lcd_set_state_value16(comboHeightVP[5], comboHeightVal[5]);
            }
        }
        return;
 8001dbc:	f000 bc35 	b.w	800262a <LCD_HandleKey+0xef6>
        else if(cmd == CMD_CURSOR_DOWN)
 8001dc0:	79fb      	ldrb	r3, [r7, #7]
 8001dc2:	2bf4      	cmp	r3, #244	@ 0xf4
 8001dc4:	d111      	bne.n	8001dea <LCD_HandleKey+0x6b6>
            if(selComboHeight < 6) selComboHeight++;
 8001dc6:	4b69      	ldr	r3, [pc, #420]	@ (8001f6c <LCD_HandleKey+0x838>)
 8001dc8:	781b      	ldrb	r3, [r3, #0]
 8001dca:	2b05      	cmp	r3, #5
 8001dcc:	d805      	bhi.n	8001dda <LCD_HandleKey+0x6a6>
 8001dce:	4b67      	ldr	r3, [pc, #412]	@ (8001f6c <LCD_HandleKey+0x838>)
 8001dd0:	781b      	ldrb	r3, [r3, #0]
 8001dd2:	3301      	adds	r3, #1
 8001dd4:	b2da      	uxtb	r2, r3
 8001dd6:	4b65      	ldr	r3, [pc, #404]	@ (8001f6c <LCD_HandleKey+0x838>)
 8001dd8:	701a      	strb	r2, [r3, #0]
            lcd_set_icon(IA_SEL_COMBO_HEIGHT, selComboHeight);
 8001dda:	4b64      	ldr	r3, [pc, #400]	@ (8001f6c <LCD_HandleKey+0x838>)
 8001ddc:	781b      	ldrb	r3, [r3, #0]
 8001dde:	4619      	mov	r1, r3
 8001de0:	2049      	movs	r0, #73	@ 0x49
 8001de2:	f7ff f84d 	bl	8000e80 <lcd_set_icon>
        return;
 8001de6:	f000 bc20 	b.w	800262a <LCD_HandleKey+0xef6>
        else if((cmd == CMD_CURSOR_RIGHT || cmd == CMD_CURSOR_LEFT)
 8001dea:	79fb      	ldrb	r3, [r7, #7]
 8001dec:	2bf6      	cmp	r3, #246	@ 0xf6
 8001dee:	d003      	beq.n	8001df8 <LCD_HandleKey+0x6c4>
 8001df0:	79fb      	ldrb	r3, [r7, #7]
 8001df2:	2bf5      	cmp	r3, #245	@ 0xf5
 8001df4:	f040 8419 	bne.w	800262a <LCD_HandleKey+0xef6>
                 && comboHeightEdit[selComboHeight])
 8001df8:	4b5c      	ldr	r3, [pc, #368]	@ (8001f6c <LCD_HandleKey+0x838>)
 8001dfa:	781b      	ldrb	r3, [r3, #0]
 8001dfc:	461a      	mov	r2, r3
 8001dfe:	4b5c      	ldr	r3, [pc, #368]	@ (8001f70 <LCD_HandleKey+0x83c>)
 8001e00:	5c9b      	ldrb	r3, [r3, r2]
 8001e02:	2b00      	cmp	r3, #0
 8001e04:	f000 8411 	beq.w	800262a <LCD_HandleKey+0xef6>
            if(cmd == CMD_CURSOR_RIGHT)
 8001e08:	79fb      	ldrb	r3, [r7, #7]
 8001e0a:	2bf6      	cmp	r3, #246	@ 0xf6
 8001e0c:	d114      	bne.n	8001e38 <LCD_HandleKey+0x704>
                { if(comboHeightVal[selComboHeight] < 2500) comboHeightVal[selComboHeight]++; }
 8001e0e:	4b57      	ldr	r3, [pc, #348]	@ (8001f6c <LCD_HandleKey+0x838>)
 8001e10:	781b      	ldrb	r3, [r3, #0]
 8001e12:	461a      	mov	r2, r3
 8001e14:	4b57      	ldr	r3, [pc, #348]	@ (8001f74 <LCD_HandleKey+0x840>)
 8001e16:	f833 3012 	ldrh.w	r3, [r3, r2, lsl #1]
 8001e1a:	f640 12c3 	movw	r2, #2499	@ 0x9c3
 8001e1e:	4293      	cmp	r3, r2
 8001e20:	d81c      	bhi.n	8001e5c <LCD_HandleKey+0x728>
 8001e22:	4b52      	ldr	r3, [pc, #328]	@ (8001f6c <LCD_HandleKey+0x838>)
 8001e24:	781b      	ldrb	r3, [r3, #0]
 8001e26:	4a53      	ldr	r2, [pc, #332]	@ (8001f74 <LCD_HandleKey+0x840>)
 8001e28:	f832 2013 	ldrh.w	r2, [r2, r3, lsl #1]
 8001e2c:	3201      	adds	r2, #1
 8001e2e:	b291      	uxth	r1, r2
 8001e30:	4a50      	ldr	r2, [pc, #320]	@ (8001f74 <LCD_HandleKey+0x840>)
 8001e32:	f822 1013 	strh.w	r1, [r2, r3, lsl #1]
 8001e36:	e011      	b.n	8001e5c <LCD_HandleKey+0x728>
                { if(comboHeightVal[selComboHeight] > 0)    comboHeightVal[selComboHeight]--; }
 8001e38:	4b4c      	ldr	r3, [pc, #304]	@ (8001f6c <LCD_HandleKey+0x838>)
 8001e3a:	781b      	ldrb	r3, [r3, #0]
 8001e3c:	461a      	mov	r2, r3
 8001e3e:	4b4d      	ldr	r3, [pc, #308]	@ (8001f74 <LCD_HandleKey+0x840>)
 8001e40:	f833 3012 	ldrh.w	r3, [r3, r2, lsl #1]
 8001e44:	2b00      	cmp	r3, #0
 8001e46:	d009      	beq.n	8001e5c <LCD_HandleKey+0x728>
 8001e48:	4b48      	ldr	r3, [pc, #288]	@ (8001f6c <LCD_HandleKey+0x838>)
 8001e4a:	781b      	ldrb	r3, [r3, #0]
 8001e4c:	4a49      	ldr	r2, [pc, #292]	@ (8001f74 <LCD_HandleKey+0x840>)
 8001e4e:	f832 2013 	ldrh.w	r2, [r2, r3, lsl #1]
 8001e52:	3a01      	subs	r2, #1
 8001e54:	b291      	uxth	r1, r2
 8001e56:	4a47      	ldr	r2, [pc, #284]	@ (8001f74 <LCD_HandleKey+0x840>)
 8001e58:	f822 1013 	strh.w	r1, [r2, r3, lsl #1]
            lcd_set_state_value16(comboHeightVP[selComboHeight],
 8001e5c:	4b43      	ldr	r3, [pc, #268]	@ (8001f6c <LCD_HandleKey+0x838>)
 8001e5e:	781b      	ldrb	r3, [r3, #0]
 8001e60:	461a      	mov	r2, r3
 8001e62:	4b45      	ldr	r3, [pc, #276]	@ (8001f78 <LCD_HandleKey+0x844>)
 8001e64:	5c9b      	ldrb	r3, [r3, r2]
 8001e66:	4a41      	ldr	r2, [pc, #260]	@ (8001f6c <LCD_HandleKey+0x838>)
 8001e68:	7812      	ldrb	r2, [r2, #0]
 8001e6a:	4611      	mov	r1, r2
 8001e6c:	4a41      	ldr	r2, [pc, #260]	@ (8001f74 <LCD_HandleKey+0x840>)
 8001e6e:	f832 2011 	ldrh.w	r2, [r2, r1, lsl #1]
 8001e72:	4611      	mov	r1, r2
 8001e74:	4618      	mov	r0, r3
 8001e76:	f7ff f82f 	bl	8000ed8 <lcd_set_state_value16>
            if(selComboHeight == 1)
 8001e7a:	4b3c      	ldr	r3, [pc, #240]	@ (8001f6c <LCD_HandleKey+0x838>)
 8001e7c:	781b      	ldrb	r3, [r3, #0]
 8001e7e:	2b01      	cmp	r3, #1
 8001e80:	d10f      	bne.n	8001ea2 <LCD_HandleKey+0x76e>
                comboHeightVal[2] = comboHeightVal[0] + comboHeightVal[1];
 8001e82:	4b3c      	ldr	r3, [pc, #240]	@ (8001f74 <LCD_HandleKey+0x840>)
 8001e84:	881a      	ldrh	r2, [r3, #0]
 8001e86:	4b3b      	ldr	r3, [pc, #236]	@ (8001f74 <LCD_HandleKey+0x840>)
 8001e88:	885b      	ldrh	r3, [r3, #2]
 8001e8a:	4413      	add	r3, r2
 8001e8c:	b29a      	uxth	r2, r3
 8001e8e:	4b39      	ldr	r3, [pc, #228]	@ (8001f74 <LCD_HandleKey+0x840>)
 8001e90:	809a      	strh	r2, [r3, #4]
                lcd_set_state_value16(comboHeightVP[2], comboHeightVal[2]);
 8001e92:	226c      	movs	r2, #108	@ 0x6c
 8001e94:	4b37      	ldr	r3, [pc, #220]	@ (8001f74 <LCD_HandleKey+0x840>)
 8001e96:	889b      	ldrh	r3, [r3, #4]
 8001e98:	4619      	mov	r1, r3
 8001e9a:	4610      	mov	r0, r2
 8001e9c:	f7ff f81c 	bl	8000ed8 <lcd_set_state_value16>
        return;
 8001ea0:	e3c3      	b.n	800262a <LCD_HandleKey+0xef6>
            else if(selComboHeight == 4)
 8001ea2:	4b32      	ldr	r3, [pc, #200]	@ (8001f6c <LCD_HandleKey+0x838>)
 8001ea4:	781b      	ldrb	r3, [r3, #0]
 8001ea6:	2b04      	cmp	r3, #4
 8001ea8:	f040 83bf 	bne.w	800262a <LCD_HandleKey+0xef6>
                comboHeightVal[5] = comboHeightVal[3] + comboHeightVal[4];
 8001eac:	4b31      	ldr	r3, [pc, #196]	@ (8001f74 <LCD_HandleKey+0x840>)
 8001eae:	88da      	ldrh	r2, [r3, #6]
 8001eb0:	4b30      	ldr	r3, [pc, #192]	@ (8001f74 <LCD_HandleKey+0x840>)
 8001eb2:	891b      	ldrh	r3, [r3, #8]
 8001eb4:	4413      	add	r3, r2
 8001eb6:	b29a      	uxth	r2, r3
 8001eb8:	4b2e      	ldr	r3, [pc, #184]	@ (8001f74 <LCD_HandleKey+0x840>)
 8001eba:	815a      	strh	r2, [r3, #10]
                lcd_set_state_value16(comboHeightVP[5], comboHeightVal[5]);
 8001ebc:	226f      	movs	r2, #111	@ 0x6f
 8001ebe:	4b2d      	ldr	r3, [pc, #180]	@ (8001f74 <LCD_HandleKey+0x840>)
 8001ec0:	895b      	ldrh	r3, [r3, #10]
 8001ec2:	4619      	mov	r1, r3
 8001ec4:	4610      	mov	r0, r2
 8001ec6:	f7ff f807 	bl	8000ed8 <lcd_set_state_value16>
        return;
 8001eca:	e3ae      	b.n	800262a <LCD_HandleKey+0xef6>
    }

    /* ==================================================================
     * COMBO: GoBack+FlexUp — PA=15, IA=0x4A, IS 0-7
     * ================================================================== */
    if(uiState == UI_COMBO_ACCEPT)
 8001ecc:	4b26      	ldr	r3, [pc, #152]	@ (8001f68 <LCD_HandleKey+0x834>)
 8001ece:	781b      	ldrb	r3, [r3, #0]
 8001ed0:	2b0a      	cmp	r3, #10
 8001ed2:	d173      	bne.n	8001fbc <LCD_HandleKey+0x888>
    {
        if(cmd == CMD_CURSOR_UP)
 8001ed4:	79fb      	ldrb	r3, [r7, #7]
 8001ed6:	2bf3      	cmp	r3, #243	@ 0xf3
 8001ed8:	d110      	bne.n	8001efc <LCD_HandleKey+0x7c8>
        {
            if(selComboAccept > 0) selComboAccept--;
 8001eda:	4b28      	ldr	r3, [pc, #160]	@ (8001f7c <LCD_HandleKey+0x848>)
 8001edc:	781b      	ldrb	r3, [r3, #0]
 8001ede:	2b00      	cmp	r3, #0
 8001ee0:	d005      	beq.n	8001eee <LCD_HandleKey+0x7ba>
 8001ee2:	4b26      	ldr	r3, [pc, #152]	@ (8001f7c <LCD_HandleKey+0x848>)
 8001ee4:	781b      	ldrb	r3, [r3, #0]
 8001ee6:	3b01      	subs	r3, #1
 8001ee8:	b2da      	uxtb	r2, r3
 8001eea:	4b24      	ldr	r3, [pc, #144]	@ (8001f7c <LCD_HandleKey+0x848>)
 8001eec:	701a      	strb	r2, [r3, #0]
            lcd_set_icon(IA_SEL_COMBO_ACCEPT, selComboAccept);
 8001eee:	4b23      	ldr	r3, [pc, #140]	@ (8001f7c <LCD_HandleKey+0x848>)
 8001ef0:	781b      	ldrb	r3, [r3, #0]
 8001ef2:	4619      	mov	r1, r3
 8001ef4:	204a      	movs	r0, #74	@ 0x4a
 8001ef6:	f7fe ffc3 	bl	8000e80 <lcd_set_icon>
        {
            if(editVal[selComboAccept] > 0)
                editVal[selComboAccept]--;
            LCD_PushEditValue(selComboAccept);
        }
        return;
 8001efa:	e398      	b.n	800262e <LCD_HandleKey+0xefa>
        else if(cmd == CMD_CURSOR_DOWN)
 8001efc:	79fb      	ldrb	r3, [r7, #7]
 8001efe:	2bf4      	cmp	r3, #244	@ 0xf4
 8001f00:	d110      	bne.n	8001f24 <LCD_HandleKey+0x7f0>
            if(selComboAccept < (ACCEPT_EDIT_COUNT - 1)) selComboAccept++;
 8001f02:	4b1e      	ldr	r3, [pc, #120]	@ (8001f7c <LCD_HandleKey+0x848>)
 8001f04:	781b      	ldrb	r3, [r3, #0]
 8001f06:	2b06      	cmp	r3, #6
 8001f08:	d805      	bhi.n	8001f16 <LCD_HandleKey+0x7e2>
 8001f0a:	4b1c      	ldr	r3, [pc, #112]	@ (8001f7c <LCD_HandleKey+0x848>)
 8001f0c:	781b      	ldrb	r3, [r3, #0]
 8001f0e:	3301      	adds	r3, #1
 8001f10:	b2da      	uxtb	r2, r3
 8001f12:	4b1a      	ldr	r3, [pc, #104]	@ (8001f7c <LCD_HandleKey+0x848>)
 8001f14:	701a      	strb	r2, [r3, #0]
            lcd_set_icon(IA_SEL_COMBO_ACCEPT, selComboAccept);
 8001f16:	4b19      	ldr	r3, [pc, #100]	@ (8001f7c <LCD_HandleKey+0x848>)
 8001f18:	781b      	ldrb	r3, [r3, #0]
 8001f1a:	4619      	mov	r1, r3
 8001f1c:	204a      	movs	r0, #74	@ 0x4a
 8001f1e:	f7fe ffaf 	bl	8000e80 <lcd_set_icon>
        return;
 8001f22:	e384      	b.n	800262e <LCD_HandleKey+0xefa>
        else if(cmd == CMD_CURSOR_RIGHT)
 8001f24:	79fb      	ldrb	r3, [r7, #7]
 8001f26:	2bf6      	cmp	r3, #246	@ 0xf6
 8001f28:	d12c      	bne.n	8001f84 <LCD_HandleKey+0x850>
            if(editVal[selComboAccept] < ACCEPT_EDIT_MAX)
 8001f2a:	4b14      	ldr	r3, [pc, #80]	@ (8001f7c <LCD_HandleKey+0x848>)
 8001f2c:	781b      	ldrb	r3, [r3, #0]
 8001f2e:	461a      	mov	r2, r3
 8001f30:	4b13      	ldr	r3, [pc, #76]	@ (8001f80 <LCD_HandleKey+0x84c>)
 8001f32:	f833 3012 	ldrh.w	r3, [r3, r2, lsl #1]
 8001f36:	f640 12c3 	movw	r2, #2499	@ 0x9c3
 8001f3a:	4293      	cmp	r3, r2
 8001f3c:	d809      	bhi.n	8001f52 <LCD_HandleKey+0x81e>
                editVal[selComboAccept]++;
 8001f3e:	4b0f      	ldr	r3, [pc, #60]	@ (8001f7c <LCD_HandleKey+0x848>)
 8001f40:	781b      	ldrb	r3, [r3, #0]
 8001f42:	4a0f      	ldr	r2, [pc, #60]	@ (8001f80 <LCD_HandleKey+0x84c>)
 8001f44:	f832 2013 	ldrh.w	r2, [r2, r3, lsl #1]
 8001f48:	3201      	adds	r2, #1
 8001f4a:	b291      	uxth	r1, r2
 8001f4c:	4a0c      	ldr	r2, [pc, #48]	@ (8001f80 <LCD_HandleKey+0x84c>)
 8001f4e:	f822 1013 	strh.w	r1, [r2, r3, lsl #1]
            LCD_PushEditValue(selComboAccept);
 8001f52:	4b0a      	ldr	r3, [pc, #40]	@ (8001f7c <LCD_HandleKey+0x848>)
 8001f54:	781b      	ldrb	r3, [r3, #0]
 8001f56:	4618      	mov	r0, r3
 8001f58:	f7ff fb7c 	bl	8001654 <LCD_PushEditValue>
        return;
 8001f5c:	e367      	b.n	800262e <LCD_HandleKey+0xefa>
 8001f5e:	bf00      	nop
 8001f60:	20000252 	.word	0x20000252
 8001f64:	20000004 	.word	0x20000004
 8001f68:	2000022c 	.word	0x2000022c
 8001f6c:	20000253 	.word	0x20000253
 8001f70:	080070d0 	.word	0x080070d0
 8001f74:	20000260 	.word	0x20000260
 8001f78:	080070c8 	.word	0x080070c8
 8001f7c:	20000254 	.word	0x20000254
 8001f80:	20000270 	.word	0x20000270
        else if(cmd == CMD_CURSOR_LEFT)
 8001f84:	79fb      	ldrb	r3, [r7, #7]
 8001f86:	2bf5      	cmp	r3, #245	@ 0xf5
 8001f88:	f040 8351 	bne.w	800262e <LCD_HandleKey+0xefa>
            if(editVal[selComboAccept] > 0)
 8001f8c:	4b9e      	ldr	r3, [pc, #632]	@ (8002208 <LCD_HandleKey+0xad4>)
 8001f8e:	781b      	ldrb	r3, [r3, #0]
 8001f90:	461a      	mov	r2, r3
 8001f92:	4b9e      	ldr	r3, [pc, #632]	@ (800220c <LCD_HandleKey+0xad8>)
 8001f94:	f833 3012 	ldrh.w	r3, [r3, r2, lsl #1]
 8001f98:	2b00      	cmp	r3, #0
 8001f9a:	d009      	beq.n	8001fb0 <LCD_HandleKey+0x87c>
                editVal[selComboAccept]--;
 8001f9c:	4b9a      	ldr	r3, [pc, #616]	@ (8002208 <LCD_HandleKey+0xad4>)
 8001f9e:	781b      	ldrb	r3, [r3, #0]
 8001fa0:	4a9a      	ldr	r2, [pc, #616]	@ (800220c <LCD_HandleKey+0xad8>)
 8001fa2:	f832 2013 	ldrh.w	r2, [r2, r3, lsl #1]
 8001fa6:	3a01      	subs	r2, #1
 8001fa8:	b291      	uxth	r1, r2
 8001faa:	4a98      	ldr	r2, [pc, #608]	@ (800220c <LCD_HandleKey+0xad8>)
 8001fac:	f822 1013 	strh.w	r1, [r2, r3, lsl #1]
            LCD_PushEditValue(selComboAccept);
 8001fb0:	4b95      	ldr	r3, [pc, #596]	@ (8002208 <LCD_HandleKey+0xad4>)
 8001fb2:	781b      	ldrb	r3, [r3, #0]
 8001fb4:	4618      	mov	r0, r3
 8001fb6:	f7ff fb4d 	bl	8001654 <LCD_PushEditValue>
        return;
 8001fba:	e338      	b.n	800262e <LCD_HandleKey+0xefa>
    }

    /* ==================================================================
     * MEMORY PAGE — PA=16 (0x10), IA=0x30, IS 0-4
     * ================================================================== */
    if(uiState == UI_MEMORY)
 8001fbc:	4b94      	ldr	r3, [pc, #592]	@ (8002210 <LCD_HandleKey+0xadc>)
 8001fbe:	781b      	ldrb	r3, [r3, #0]
 8001fc0:	2b0b      	cmp	r3, #11
 8001fc2:	d161      	bne.n	8002088 <LCD_HandleKey+0x954>
    {
        if(cmd == CMD_CURSOR_UP)
 8001fc4:	79fb      	ldrb	r3, [r7, #7]
 8001fc6:	2bf3      	cmp	r3, #243	@ 0xf3
 8001fc8:	d110      	bne.n	8001fec <LCD_HandleKey+0x8b8>
        {
            CIRC_DEC(selMemory, MEMORY_SLOT_COUNT - 1);
 8001fca:	4b92      	ldr	r3, [pc, #584]	@ (8002214 <LCD_HandleKey+0xae0>)
 8001fcc:	781b      	ldrb	r3, [r3, #0]
 8001fce:	2b00      	cmp	r3, #0
 8001fd0:	d103      	bne.n	8001fda <LCD_HandleKey+0x8a6>
 8001fd2:	4b90      	ldr	r3, [pc, #576]	@ (8002214 <LCD_HandleKey+0xae0>)
 8001fd4:	2204      	movs	r2, #4
 8001fd6:	701a      	strb	r2, [r3, #0]
 8001fd8:	e005      	b.n	8001fe6 <LCD_HandleKey+0x8b2>
 8001fda:	4b8e      	ldr	r3, [pc, #568]	@ (8002214 <LCD_HandleKey+0xae0>)
 8001fdc:	781b      	ldrb	r3, [r3, #0]
 8001fde:	3b01      	subs	r3, #1
 8001fe0:	b2da      	uxtb	r2, r3
 8001fe2:	4b8c      	ldr	r3, [pc, #560]	@ (8002214 <LCD_HandleKey+0xae0>)
 8001fe4:	701a      	strb	r2, [r3, #0]
            LCD_Memory_UpdateCursor();
 8001fe6:	f7ff fb51 	bl	800168c <LCD_Memory_UpdateCursor>
        {
            memSlotSaved[selMemory] ^= 1;
            lcd_set_icon(memSlotVP[selMemory], memSlotSaved[selMemory]);
            ACTION_SendMemory(selMemory + 1, memoryMode);
        }
        return;
 8001fea:	e322      	b.n	8002632 <LCD_HandleKey+0xefe>
        else if(cmd == CMD_CURSOR_DOWN)
 8001fec:	79fb      	ldrb	r3, [r7, #7]
 8001fee:	2bf4      	cmp	r3, #244	@ 0xf4
 8001ff0:	d10f      	bne.n	8002012 <LCD_HandleKey+0x8de>
            CIRC_INC(selMemory, MEMORY_SLOT_COUNT - 1);
 8001ff2:	4b88      	ldr	r3, [pc, #544]	@ (8002214 <LCD_HandleKey+0xae0>)
 8001ff4:	781b      	ldrb	r3, [r3, #0]
 8001ff6:	3301      	adds	r3, #1
 8001ff8:	b2da      	uxtb	r2, r3
 8001ffa:	4b86      	ldr	r3, [pc, #536]	@ (8002214 <LCD_HandleKey+0xae0>)
 8001ffc:	701a      	strb	r2, [r3, #0]
 8001ffe:	4b85      	ldr	r3, [pc, #532]	@ (8002214 <LCD_HandleKey+0xae0>)
 8002000:	781b      	ldrb	r3, [r3, #0]
 8002002:	2b04      	cmp	r3, #4
 8002004:	d902      	bls.n	800200c <LCD_HandleKey+0x8d8>
 8002006:	4b83      	ldr	r3, [pc, #524]	@ (8002214 <LCD_HandleKey+0xae0>)
 8002008:	2200      	movs	r2, #0
 800200a:	701a      	strb	r2, [r3, #0]
            LCD_Memory_UpdateCursor();
 800200c:	f7ff fb3e 	bl	800168c <LCD_Memory_UpdateCursor>
        return;
 8002010:	e30f      	b.n	8002632 <LCD_HandleKey+0xefe>
        else if(cmd == CMD_CURSOR_RIGHT)
 8002012:	79fb      	ldrb	r3, [r7, #7]
 8002014:	2bf6      	cmp	r3, #246	@ 0xf6
 8002016:	d105      	bne.n	8002024 <LCD_HandleKey+0x8f0>
            memoryMode = MEM_MODE_SET;
 8002018:	4b7f      	ldr	r3, [pc, #508]	@ (8002218 <LCD_HandleKey+0xae4>)
 800201a:	2201      	movs	r2, #1
 800201c:	701a      	strb	r2, [r3, #0]
            LCD_Memory_UpdateCursor();
 800201e:	f7ff fb35 	bl	800168c <LCD_Memory_UpdateCursor>
        return;
 8002022:	e306      	b.n	8002632 <LCD_HandleKey+0xefe>
        else if(cmd == CMD_CURSOR_LEFT)
 8002024:	79fb      	ldrb	r3, [r7, #7]
 8002026:	2bf5      	cmp	r3, #245	@ 0xf5
 8002028:	d105      	bne.n	8002036 <LCD_HandleKey+0x902>
            memoryMode = MEM_MODE_RECALL;
 800202a:	4b7b      	ldr	r3, [pc, #492]	@ (8002218 <LCD_HandleKey+0xae4>)
 800202c:	2202      	movs	r2, #2
 800202e:	701a      	strb	r2, [r3, #0]
            LCD_Memory_UpdateCursor();
 8002030:	f7ff fb2c 	bl	800168c <LCD_Memory_UpdateCursor>
        return;
 8002034:	e2fd      	b.n	8002632 <LCD_HandleKey+0xefe>
        else if(cmd == CMD_ACCEPT)
 8002036:	79fb      	ldrb	r3, [r7, #7]
 8002038:	2bf1      	cmp	r3, #241	@ 0xf1
 800203a:	f040 82fa 	bne.w	8002632 <LCD_HandleKey+0xefe>
            memSlotSaved[selMemory] ^= 1;
 800203e:	4b75      	ldr	r3, [pc, #468]	@ (8002214 <LCD_HandleKey+0xae0>)
 8002040:	781b      	ldrb	r3, [r3, #0]
 8002042:	461a      	mov	r2, r3
 8002044:	4b75      	ldr	r3, [pc, #468]	@ (800221c <LCD_HandleKey+0xae8>)
 8002046:	5c9b      	ldrb	r3, [r3, r2]
 8002048:	4a72      	ldr	r2, [pc, #456]	@ (8002214 <LCD_HandleKey+0xae0>)
 800204a:	7812      	ldrb	r2, [r2, #0]
 800204c:	f083 0301 	eor.w	r3, r3, #1
 8002050:	b2d9      	uxtb	r1, r3
 8002052:	4b72      	ldr	r3, [pc, #456]	@ (800221c <LCD_HandleKey+0xae8>)
 8002054:	5499      	strb	r1, [r3, r2]
            lcd_set_icon(memSlotVP[selMemory], memSlotSaved[selMemory]);
 8002056:	4b6f      	ldr	r3, [pc, #444]	@ (8002214 <LCD_HandleKey+0xae0>)
 8002058:	781b      	ldrb	r3, [r3, #0]
 800205a:	461a      	mov	r2, r3
 800205c:	4b70      	ldr	r3, [pc, #448]	@ (8002220 <LCD_HandleKey+0xaec>)
 800205e:	5c9b      	ldrb	r3, [r3, r2]
 8002060:	4a6c      	ldr	r2, [pc, #432]	@ (8002214 <LCD_HandleKey+0xae0>)
 8002062:	7812      	ldrb	r2, [r2, #0]
 8002064:	4611      	mov	r1, r2
 8002066:	4a6d      	ldr	r2, [pc, #436]	@ (800221c <LCD_HandleKey+0xae8>)
 8002068:	5c52      	ldrb	r2, [r2, r1]
 800206a:	4611      	mov	r1, r2
 800206c:	4618      	mov	r0, r3
 800206e:	f7fe ff07 	bl	8000e80 <lcd_set_icon>
            ACTION_SendMemory(selMemory + 1, memoryMode);
 8002072:	4b68      	ldr	r3, [pc, #416]	@ (8002214 <LCD_HandleKey+0xae0>)
 8002074:	781b      	ldrb	r3, [r3, #0]
 8002076:	3301      	adds	r3, #1
 8002078:	b2db      	uxtb	r3, r3
 800207a:	4a67      	ldr	r2, [pc, #412]	@ (8002218 <LCD_HandleKey+0xae4>)
 800207c:	7812      	ldrb	r2, [r2, #0]
 800207e:	4611      	mov	r1, r2
 8002080:	4618      	mov	r0, r3
 8002082:	f7fe f94f 	bl	8000324 <ACTION_SendMemory>
        return;
 8002086:	e2d4      	b.n	8002632 <LCD_HandleKey+0xefe>
    }

    /* ==================================================================
     * MOTOR COMMANDS
     * ================================================================== */
    switch(cmd)
 8002088:	79fb      	ldrb	r3, [r7, #7]
 800208a:	3b01      	subs	r3, #1
 800208c:	2b11      	cmp	r3, #17
 800208e:	f200 82d2 	bhi.w	8002636 <LCD_HandleKey+0xf02>
 8002092:	a201      	add	r2, pc, #4	@ (adr r2, 8002098 <LCD_HandleKey+0x964>)
 8002094:	f852 f023 	ldr.w	pc, [r2, r3, lsl #2]
 8002098:	080020e1 	.word	0x080020e1
 800209c:	08002143 	.word	0x08002143
 80020a0:	080021a5 	.word	0x080021a5
 80020a4:	08002235 	.word	0x08002235
 80020a8:	08002297 	.word	0x08002297
 80020ac:	080022f9 	.word	0x080022f9
 80020b0:	0800235b 	.word	0x0800235b
 80020b4:	080023c5 	.word	0x080023c5
 80020b8:	0800242f 	.word	0x0800242f
 80020bc:	08002637 	.word	0x08002637
 80020c0:	08002637 	.word	0x08002637
 80020c4:	08002637 	.word	0x08002637
 80020c8:	08002637 	.word	0x08002637
 80020cc:	08002637 	.word	0x08002637
 80020d0:	08002637 	.word	0x08002637
 80020d4:	080024b1 	.word	0x080024b1
 80020d8:	0800251b 	.word	0x0800251b
 80020dc:	08002583 	.word	0x08002583
    {
        case 0x01:
            STEP_INC(heightState, 4); lcd_set_page(PAGE_HEIGHT);
 80020e0:	4b50      	ldr	r3, [pc, #320]	@ (8002224 <LCD_HandleKey+0xaf0>)
 80020e2:	781b      	ldrb	r3, [r3, #0]
 80020e4:	2b00      	cmp	r3, #0
 80020e6:	d00f      	beq.n	8002108 <LCD_HandleKey+0x9d4>
 80020e8:	4b4f      	ldr	r3, [pc, #316]	@ (8002228 <LCD_HandleKey+0xaf4>)
 80020ea:	781b      	ldrb	r3, [r3, #0]
 80020ec:	2b03      	cmp	r3, #3
 80020ee:	d804      	bhi.n	80020fa <LCD_HandleKey+0x9c6>
 80020f0:	4b4d      	ldr	r3, [pc, #308]	@ (8002228 <LCD_HandleKey+0xaf4>)
 80020f2:	781b      	ldrb	r3, [r3, #0]
 80020f4:	3301      	adds	r3, #1
 80020f6:	b2db      	uxtb	r3, r3
 80020f8:	e000      	b.n	80020fc <LCD_HandleKey+0x9c8>
 80020fa:	2300      	movs	r3, #0
 80020fc:	4a4a      	ldr	r2, [pc, #296]	@ (8002228 <LCD_HandleKey+0xaf4>)
 80020fe:	7013      	strb	r3, [r2, #0]
 8002100:	4b4a      	ldr	r3, [pc, #296]	@ (800222c <LCD_HandleKey+0xaf8>)
 8002102:	2201      	movs	r2, #1
 8002104:	701a      	strb	r2, [r3, #0]
 8002106:	e00c      	b.n	8002122 <LCD_HandleKey+0x9ee>
 8002108:	4b47      	ldr	r3, [pc, #284]	@ (8002228 <LCD_HandleKey+0xaf4>)
 800210a:	781b      	ldrb	r3, [r3, #0]
 800210c:	2b03      	cmp	r3, #3
 800210e:	d808      	bhi.n	8002122 <LCD_HandleKey+0x9ee>
 8002110:	4b45      	ldr	r3, [pc, #276]	@ (8002228 <LCD_HandleKey+0xaf4>)
 8002112:	781b      	ldrb	r3, [r3, #0]
 8002114:	3301      	adds	r3, #1
 8002116:	b2da      	uxtb	r2, r3
 8002118:	4b43      	ldr	r3, [pc, #268]	@ (8002228 <LCD_HandleKey+0xaf4>)
 800211a:	701a      	strb	r2, [r3, #0]
 800211c:	4b43      	ldr	r3, [pc, #268]	@ (800222c <LCD_HandleKey+0xaf8>)
 800211e:	2201      	movs	r2, #1
 8002120:	701a      	strb	r2, [r3, #0]
 8002122:	2007      	movs	r0, #7
 8002124:	f7fe fe62 	bl	8000dec <lcd_set_page>
            if(valueChanged) lcd_set_icon(IA_HEIGHT, heightState);
 8002128:	4b40      	ldr	r3, [pc, #256]	@ (800222c <LCD_HandleKey+0xaf8>)
 800212a:	781b      	ldrb	r3, [r3, #0]
 800212c:	2b00      	cmp	r3, #0
 800212e:	d005      	beq.n	800213c <LCD_HandleKey+0xa08>
 8002130:	4b3d      	ldr	r3, [pc, #244]	@ (8002228 <LCD_HandleKey+0xaf4>)
 8002132:	781b      	ldrb	r3, [r3, #0]
 8002134:	4619      	mov	r1, r3
 8002136:	2042      	movs	r0, #66	@ 0x42
 8002138:	f7fe fea2 	bl	8000e80 <lcd_set_icon>
            LCD_ResetHomeTimer(); break;
 800213c:	f7ff f80a 	bl	8001154 <LCD_ResetHomeTimer>
 8002140:	e286      	b.n	8002650 <LCD_HandleKey+0xf1c>
        case 0x02:
            STEP_DEC(heightState, 4); lcd_set_page(PAGE_HEIGHT);
 8002142:	4b38      	ldr	r3, [pc, #224]	@ (8002224 <LCD_HandleKey+0xaf0>)
 8002144:	781b      	ldrb	r3, [r3, #0]
 8002146:	2b00      	cmp	r3, #0
 8002148:	d00f      	beq.n	800216a <LCD_HandleKey+0xa36>
 800214a:	4b37      	ldr	r3, [pc, #220]	@ (8002228 <LCD_HandleKey+0xaf4>)
 800214c:	781b      	ldrb	r3, [r3, #0]
 800214e:	2b00      	cmp	r3, #0
 8002150:	d004      	beq.n	800215c <LCD_HandleKey+0xa28>
 8002152:	4b35      	ldr	r3, [pc, #212]	@ (8002228 <LCD_HandleKey+0xaf4>)
 8002154:	781b      	ldrb	r3, [r3, #0]
 8002156:	3b01      	subs	r3, #1
 8002158:	b2db      	uxtb	r3, r3
 800215a:	e000      	b.n	800215e <LCD_HandleKey+0xa2a>
 800215c:	2304      	movs	r3, #4
 800215e:	4a32      	ldr	r2, [pc, #200]	@ (8002228 <LCD_HandleKey+0xaf4>)
 8002160:	7013      	strb	r3, [r2, #0]
 8002162:	4b32      	ldr	r3, [pc, #200]	@ (800222c <LCD_HandleKey+0xaf8>)
 8002164:	2201      	movs	r2, #1
 8002166:	701a      	strb	r2, [r3, #0]
 8002168:	e00c      	b.n	8002184 <LCD_HandleKey+0xa50>
 800216a:	4b2f      	ldr	r3, [pc, #188]	@ (8002228 <LCD_HandleKey+0xaf4>)
 800216c:	781b      	ldrb	r3, [r3, #0]
 800216e:	2b00      	cmp	r3, #0
 8002170:	d008      	beq.n	8002184 <LCD_HandleKey+0xa50>
 8002172:	4b2d      	ldr	r3, [pc, #180]	@ (8002228 <LCD_HandleKey+0xaf4>)
 8002174:	781b      	ldrb	r3, [r3, #0]
 8002176:	3b01      	subs	r3, #1
 8002178:	b2da      	uxtb	r2, r3
 800217a:	4b2b      	ldr	r3, [pc, #172]	@ (8002228 <LCD_HandleKey+0xaf4>)
 800217c:	701a      	strb	r2, [r3, #0]
 800217e:	4b2b      	ldr	r3, [pc, #172]	@ (800222c <LCD_HandleKey+0xaf8>)
 8002180:	2201      	movs	r2, #1
 8002182:	701a      	strb	r2, [r3, #0]
 8002184:	2007      	movs	r0, #7
 8002186:	f7fe fe31 	bl	8000dec <lcd_set_page>
            if(valueChanged) lcd_set_icon(IA_HEIGHT, heightState);
 800218a:	4b28      	ldr	r3, [pc, #160]	@ (800222c <LCD_HandleKey+0xaf8>)
 800218c:	781b      	ldrb	r3, [r3, #0]
 800218e:	2b00      	cmp	r3, #0
 8002190:	d005      	beq.n	800219e <LCD_HandleKey+0xa6a>
 8002192:	4b25      	ldr	r3, [pc, #148]	@ (8002228 <LCD_HandleKey+0xaf4>)
 8002194:	781b      	ldrb	r3, [r3, #0]
 8002196:	4619      	mov	r1, r3
 8002198:	2042      	movs	r0, #66	@ 0x42
 800219a:	f7fe fe71 	bl	8000e80 <lcd_set_icon>
            LCD_ResetHomeTimer(); break;
 800219e:	f7fe ffd9 	bl	8001154 <LCD_ResetHomeTimer>
 80021a2:	e255      	b.n	8002650 <LCD_HandleKey+0xf1c>
        case 0x03:
            STEP_INC(trendState, 4); lcd_set_page(PAGE_TREND);
 80021a4:	4b1f      	ldr	r3, [pc, #124]	@ (8002224 <LCD_HandleKey+0xaf0>)
 80021a6:	781b      	ldrb	r3, [r3, #0]
 80021a8:	2b00      	cmp	r3, #0
 80021aa:	d00f      	beq.n	80021cc <LCD_HandleKey+0xa98>
 80021ac:	4b20      	ldr	r3, [pc, #128]	@ (8002230 <LCD_HandleKey+0xafc>)
 80021ae:	781b      	ldrb	r3, [r3, #0]
 80021b0:	2b03      	cmp	r3, #3
 80021b2:	d804      	bhi.n	80021be <LCD_HandleKey+0xa8a>
 80021b4:	4b1e      	ldr	r3, [pc, #120]	@ (8002230 <LCD_HandleKey+0xafc>)
 80021b6:	781b      	ldrb	r3, [r3, #0]
 80021b8:	3301      	adds	r3, #1
 80021ba:	b2db      	uxtb	r3, r3
 80021bc:	e000      	b.n	80021c0 <LCD_HandleKey+0xa8c>
 80021be:	2300      	movs	r3, #0
 80021c0:	4a1b      	ldr	r2, [pc, #108]	@ (8002230 <LCD_HandleKey+0xafc>)
 80021c2:	7013      	strb	r3, [r2, #0]
 80021c4:	4b19      	ldr	r3, [pc, #100]	@ (800222c <LCD_HandleKey+0xaf8>)
 80021c6:	2201      	movs	r2, #1
 80021c8:	701a      	strb	r2, [r3, #0]
 80021ca:	e00c      	b.n	80021e6 <LCD_HandleKey+0xab2>
 80021cc:	4b18      	ldr	r3, [pc, #96]	@ (8002230 <LCD_HandleKey+0xafc>)
 80021ce:	781b      	ldrb	r3, [r3, #0]
 80021d0:	2b03      	cmp	r3, #3
 80021d2:	d808      	bhi.n	80021e6 <LCD_HandleKey+0xab2>
 80021d4:	4b16      	ldr	r3, [pc, #88]	@ (8002230 <LCD_HandleKey+0xafc>)
 80021d6:	781b      	ldrb	r3, [r3, #0]
 80021d8:	3301      	adds	r3, #1
 80021da:	b2da      	uxtb	r2, r3
 80021dc:	4b14      	ldr	r3, [pc, #80]	@ (8002230 <LCD_HandleKey+0xafc>)
 80021de:	701a      	strb	r2, [r3, #0]
 80021e0:	4b12      	ldr	r3, [pc, #72]	@ (800222c <LCD_HandleKey+0xaf8>)
 80021e2:	2201      	movs	r2, #1
 80021e4:	701a      	strb	r2, [r3, #0]
 80021e6:	2008      	movs	r0, #8
 80021e8:	f7fe fe00 	bl	8000dec <lcd_set_page>
            if(valueChanged) lcd_set_icon(IA_TREND, trendState);
 80021ec:	4b0f      	ldr	r3, [pc, #60]	@ (800222c <LCD_HandleKey+0xaf8>)
 80021ee:	781b      	ldrb	r3, [r3, #0]
 80021f0:	2b00      	cmp	r3, #0
 80021f2:	d005      	beq.n	8002200 <LCD_HandleKey+0xacc>
 80021f4:	4b0e      	ldr	r3, [pc, #56]	@ (8002230 <LCD_HandleKey+0xafc>)
 80021f6:	781b      	ldrb	r3, [r3, #0]
 80021f8:	4619      	mov	r1, r3
 80021fa:	2043      	movs	r0, #67	@ 0x43
 80021fc:	f7fe fe40 	bl	8000e80 <lcd_set_icon>
            LCD_ResetHomeTimer(); break;
 8002200:	f7fe ffa8 	bl	8001154 <LCD_ResetHomeTimer>
 8002204:	e224      	b.n	8002650 <LCD_HandleKey+0xf1c>
 8002206:	bf00      	nop
 8002208:	20000254 	.word	0x20000254
 800220c:	20000270 	.word	0x20000270
 8002210:	2000022c 	.word	0x2000022c
 8002214:	20000256 	.word	0x20000256
 8002218:	20000003 	.word	0x20000003
 800221c:	20000258 	.word	0x20000258
 8002220:	080070c0 	.word	0x080070c0
 8002224:	20000247 	.word	0x20000247
 8002228:	20000241 	.word	0x20000241
 800222c:	20000246 	.word	0x20000246
 8002230:	20000242 	.word	0x20000242
        case 0x04:
            STEP_DEC(trendState, 4); lcd_set_page(PAGE_TREND);
 8002234:	4b98      	ldr	r3, [pc, #608]	@ (8002498 <LCD_HandleKey+0xd64>)
 8002236:	781b      	ldrb	r3, [r3, #0]
 8002238:	2b00      	cmp	r3, #0
 800223a:	d00f      	beq.n	800225c <LCD_HandleKey+0xb28>
 800223c:	4b97      	ldr	r3, [pc, #604]	@ (800249c <LCD_HandleKey+0xd68>)
 800223e:	781b      	ldrb	r3, [r3, #0]
 8002240:	2b00      	cmp	r3, #0
 8002242:	d004      	beq.n	800224e <LCD_HandleKey+0xb1a>
 8002244:	4b95      	ldr	r3, [pc, #596]	@ (800249c <LCD_HandleKey+0xd68>)
 8002246:	781b      	ldrb	r3, [r3, #0]
 8002248:	3b01      	subs	r3, #1
 800224a:	b2db      	uxtb	r3, r3
 800224c:	e000      	b.n	8002250 <LCD_HandleKey+0xb1c>
 800224e:	2304      	movs	r3, #4
 8002250:	4a92      	ldr	r2, [pc, #584]	@ (800249c <LCD_HandleKey+0xd68>)
 8002252:	7013      	strb	r3, [r2, #0]
 8002254:	4b92      	ldr	r3, [pc, #584]	@ (80024a0 <LCD_HandleKey+0xd6c>)
 8002256:	2201      	movs	r2, #1
 8002258:	701a      	strb	r2, [r3, #0]
 800225a:	e00c      	b.n	8002276 <LCD_HandleKey+0xb42>
 800225c:	4b8f      	ldr	r3, [pc, #572]	@ (800249c <LCD_HandleKey+0xd68>)
 800225e:	781b      	ldrb	r3, [r3, #0]
 8002260:	2b00      	cmp	r3, #0
 8002262:	d008      	beq.n	8002276 <LCD_HandleKey+0xb42>
 8002264:	4b8d      	ldr	r3, [pc, #564]	@ (800249c <LCD_HandleKey+0xd68>)
 8002266:	781b      	ldrb	r3, [r3, #0]
 8002268:	3b01      	subs	r3, #1
 800226a:	b2da      	uxtb	r2, r3
 800226c:	4b8b      	ldr	r3, [pc, #556]	@ (800249c <LCD_HandleKey+0xd68>)
 800226e:	701a      	strb	r2, [r3, #0]
 8002270:	4b8b      	ldr	r3, [pc, #556]	@ (80024a0 <LCD_HandleKey+0xd6c>)
 8002272:	2201      	movs	r2, #1
 8002274:	701a      	strb	r2, [r3, #0]
 8002276:	2008      	movs	r0, #8
 8002278:	f7fe fdb8 	bl	8000dec <lcd_set_page>
            if(valueChanged) lcd_set_icon(IA_TREND, trendState);
 800227c:	4b88      	ldr	r3, [pc, #544]	@ (80024a0 <LCD_HandleKey+0xd6c>)
 800227e:	781b      	ldrb	r3, [r3, #0]
 8002280:	2b00      	cmp	r3, #0
 8002282:	d005      	beq.n	8002290 <LCD_HandleKey+0xb5c>
 8002284:	4b85      	ldr	r3, [pc, #532]	@ (800249c <LCD_HandleKey+0xd68>)
 8002286:	781b      	ldrb	r3, [r3, #0]
 8002288:	4619      	mov	r1, r3
 800228a:	2043      	movs	r0, #67	@ 0x43
 800228c:	f7fe fdf8 	bl	8000e80 <lcd_set_icon>
            LCD_ResetHomeTimer(); break;
 8002290:	f7fe ff60 	bl	8001154 <LCD_ResetHomeTimer>
 8002294:	e1dc      	b.n	8002650 <LCD_HandleKey+0xf1c>
        case 0x05:
            STEP_INC(backState, 4); lcd_set_page(PAGE_BACK);
 8002296:	4b80      	ldr	r3, [pc, #512]	@ (8002498 <LCD_HandleKey+0xd64>)
 8002298:	781b      	ldrb	r3, [r3, #0]
 800229a:	2b00      	cmp	r3, #0
 800229c:	d00f      	beq.n	80022be <LCD_HandleKey+0xb8a>
 800229e:	4b81      	ldr	r3, [pc, #516]	@ (80024a4 <LCD_HandleKey+0xd70>)
 80022a0:	781b      	ldrb	r3, [r3, #0]
 80022a2:	2b03      	cmp	r3, #3
 80022a4:	d804      	bhi.n	80022b0 <LCD_HandleKey+0xb7c>
 80022a6:	4b7f      	ldr	r3, [pc, #508]	@ (80024a4 <LCD_HandleKey+0xd70>)
 80022a8:	781b      	ldrb	r3, [r3, #0]
 80022aa:	3301      	adds	r3, #1
 80022ac:	b2db      	uxtb	r3, r3
 80022ae:	e000      	b.n	80022b2 <LCD_HandleKey+0xb7e>
 80022b0:	2300      	movs	r3, #0
 80022b2:	4a7c      	ldr	r2, [pc, #496]	@ (80024a4 <LCD_HandleKey+0xd70>)
 80022b4:	7013      	strb	r3, [r2, #0]
 80022b6:	4b7a      	ldr	r3, [pc, #488]	@ (80024a0 <LCD_HandleKey+0xd6c>)
 80022b8:	2201      	movs	r2, #1
 80022ba:	701a      	strb	r2, [r3, #0]
 80022bc:	e00c      	b.n	80022d8 <LCD_HandleKey+0xba4>
 80022be:	4b79      	ldr	r3, [pc, #484]	@ (80024a4 <LCD_HandleKey+0xd70>)
 80022c0:	781b      	ldrb	r3, [r3, #0]
 80022c2:	2b03      	cmp	r3, #3
 80022c4:	d808      	bhi.n	80022d8 <LCD_HandleKey+0xba4>
 80022c6:	4b77      	ldr	r3, [pc, #476]	@ (80024a4 <LCD_HandleKey+0xd70>)
 80022c8:	781b      	ldrb	r3, [r3, #0]
 80022ca:	3301      	adds	r3, #1
 80022cc:	b2da      	uxtb	r2, r3
 80022ce:	4b75      	ldr	r3, [pc, #468]	@ (80024a4 <LCD_HandleKey+0xd70>)
 80022d0:	701a      	strb	r2, [r3, #0]
 80022d2:	4b73      	ldr	r3, [pc, #460]	@ (80024a0 <LCD_HandleKey+0xd6c>)
 80022d4:	2201      	movs	r2, #1
 80022d6:	701a      	strb	r2, [r3, #0]
 80022d8:	2009      	movs	r0, #9
 80022da:	f7fe fd87 	bl	8000dec <lcd_set_page>
            if(valueChanged) lcd_set_icon(IA_BACK, backState);
 80022de:	4b70      	ldr	r3, [pc, #448]	@ (80024a0 <LCD_HandleKey+0xd6c>)
 80022e0:	781b      	ldrb	r3, [r3, #0]
 80022e2:	2b00      	cmp	r3, #0
 80022e4:	d005      	beq.n	80022f2 <LCD_HandleKey+0xbbe>
 80022e6:	4b6f      	ldr	r3, [pc, #444]	@ (80024a4 <LCD_HandleKey+0xd70>)
 80022e8:	781b      	ldrb	r3, [r3, #0]
 80022ea:	4619      	mov	r1, r3
 80022ec:	2044      	movs	r0, #68	@ 0x44
 80022ee:	f7fe fdc7 	bl	8000e80 <lcd_set_icon>
            LCD_ResetHomeTimer(); break;
 80022f2:	f7fe ff2f 	bl	8001154 <LCD_ResetHomeTimer>
 80022f6:	e1ab      	b.n	8002650 <LCD_HandleKey+0xf1c>
        case 0x06:
            STEP_DEC(backState, 4); lcd_set_page(PAGE_BACK);
 80022f8:	4b67      	ldr	r3, [pc, #412]	@ (8002498 <LCD_HandleKey+0xd64>)
 80022fa:	781b      	ldrb	r3, [r3, #0]
 80022fc:	2b00      	cmp	r3, #0
 80022fe:	d00f      	beq.n	8002320 <LCD_HandleKey+0xbec>
 8002300:	4b68      	ldr	r3, [pc, #416]	@ (80024a4 <LCD_HandleKey+0xd70>)
 8002302:	781b      	ldrb	r3, [r3, #0]
 8002304:	2b00      	cmp	r3, #0
 8002306:	d004      	beq.n	8002312 <LCD_HandleKey+0xbde>
 8002308:	4b66      	ldr	r3, [pc, #408]	@ (80024a4 <LCD_HandleKey+0xd70>)
 800230a:	781b      	ldrb	r3, [r3, #0]
 800230c:	3b01      	subs	r3, #1
 800230e:	b2db      	uxtb	r3, r3
 8002310:	e000      	b.n	8002314 <LCD_HandleKey+0xbe0>
 8002312:	2304      	movs	r3, #4
 8002314:	4a63      	ldr	r2, [pc, #396]	@ (80024a4 <LCD_HandleKey+0xd70>)
 8002316:	7013      	strb	r3, [r2, #0]
 8002318:	4b61      	ldr	r3, [pc, #388]	@ (80024a0 <LCD_HandleKey+0xd6c>)
 800231a:	2201      	movs	r2, #1
 800231c:	701a      	strb	r2, [r3, #0]
 800231e:	e00c      	b.n	800233a <LCD_HandleKey+0xc06>
 8002320:	4b60      	ldr	r3, [pc, #384]	@ (80024a4 <LCD_HandleKey+0xd70>)
 8002322:	781b      	ldrb	r3, [r3, #0]
 8002324:	2b00      	cmp	r3, #0
 8002326:	d008      	beq.n	800233a <LCD_HandleKey+0xc06>
 8002328:	4b5e      	ldr	r3, [pc, #376]	@ (80024a4 <LCD_HandleKey+0xd70>)
 800232a:	781b      	ldrb	r3, [r3, #0]
 800232c:	3b01      	subs	r3, #1
 800232e:	b2da      	uxtb	r2, r3
 8002330:	4b5c      	ldr	r3, [pc, #368]	@ (80024a4 <LCD_HandleKey+0xd70>)
 8002332:	701a      	strb	r2, [r3, #0]
 8002334:	4b5a      	ldr	r3, [pc, #360]	@ (80024a0 <LCD_HandleKey+0xd6c>)
 8002336:	2201      	movs	r2, #1
 8002338:	701a      	strb	r2, [r3, #0]
 800233a:	2009      	movs	r0, #9
 800233c:	f7fe fd56 	bl	8000dec <lcd_set_page>
            if(valueChanged) lcd_set_icon(IA_BACK, backState);
 8002340:	4b57      	ldr	r3, [pc, #348]	@ (80024a0 <LCD_HandleKey+0xd6c>)
 8002342:	781b      	ldrb	r3, [r3, #0]
 8002344:	2b00      	cmp	r3, #0
 8002346:	d005      	beq.n	8002354 <LCD_HandleKey+0xc20>
 8002348:	4b56      	ldr	r3, [pc, #344]	@ (80024a4 <LCD_HandleKey+0xd70>)
 800234a:	781b      	ldrb	r3, [r3, #0]
 800234c:	4619      	mov	r1, r3
 800234e:	2044      	movs	r0, #68	@ 0x44
 8002350:	f7fe fd96 	bl	8000e80 <lcd_set_icon>
            LCD_ResetHomeTimer(); break;
 8002354:	f7fe fefe 	bl	8001154 <LCD_ResetHomeTimer>
 8002358:	e17a      	b.n	8002650 <LCD_HandleKey+0xf1c>
        case 0x07:
            STEP_DEC(tiltState, 4);
 800235a:	4b4f      	ldr	r3, [pc, #316]	@ (8002498 <LCD_HandleKey+0xd64>)
 800235c:	781b      	ldrb	r3, [r3, #0]
 800235e:	2b00      	cmp	r3, #0
 8002360:	d00f      	beq.n	8002382 <LCD_HandleKey+0xc4e>
 8002362:	4b51      	ldr	r3, [pc, #324]	@ (80024a8 <LCD_HandleKey+0xd74>)
 8002364:	781b      	ldrb	r3, [r3, #0]
 8002366:	2b00      	cmp	r3, #0
 8002368:	d004      	beq.n	8002374 <LCD_HandleKey+0xc40>
 800236a:	4b4f      	ldr	r3, [pc, #316]	@ (80024a8 <LCD_HandleKey+0xd74>)
 800236c:	781b      	ldrb	r3, [r3, #0]
 800236e:	3b01      	subs	r3, #1
 8002370:	b2db      	uxtb	r3, r3
 8002372:	e000      	b.n	8002376 <LCD_HandleKey+0xc42>
 8002374:	2304      	movs	r3, #4
 8002376:	4a4c      	ldr	r2, [pc, #304]	@ (80024a8 <LCD_HandleKey+0xd74>)
 8002378:	7013      	strb	r3, [r2, #0]
 800237a:	4b49      	ldr	r3, [pc, #292]	@ (80024a0 <LCD_HandleKey+0xd6c>)
 800237c:	2201      	movs	r2, #1
 800237e:	701a      	strb	r2, [r3, #0]
 8002380:	e00c      	b.n	800239c <LCD_HandleKey+0xc68>
 8002382:	4b49      	ldr	r3, [pc, #292]	@ (80024a8 <LCD_HandleKey+0xd74>)
 8002384:	781b      	ldrb	r3, [r3, #0]
 8002386:	2b00      	cmp	r3, #0
 8002388:	d008      	beq.n	800239c <LCD_HandleKey+0xc68>
 800238a:	4b47      	ldr	r3, [pc, #284]	@ (80024a8 <LCD_HandleKey+0xd74>)
 800238c:	781b      	ldrb	r3, [r3, #0]
 800238e:	3b01      	subs	r3, #1
 8002390:	b2da      	uxtb	r2, r3
 8002392:	4b45      	ldr	r3, [pc, #276]	@ (80024a8 <LCD_HandleKey+0xd74>)
 8002394:	701a      	strb	r2, [r3, #0]
 8002396:	4b42      	ldr	r3, [pc, #264]	@ (80024a0 <LCD_HandleKey+0xd6c>)
 8002398:	2201      	movs	r2, #1
 800239a:	701a      	strb	r2, [r3, #0]
            if(!LCD_SetPageIfAllowed(PAGE_TILT)) break;
 800239c:	200b      	movs	r0, #11
 800239e:	f7ff f8a9 	bl	80014f4 <LCD_SetPageIfAllowed>
 80023a2:	4603      	mov	r3, r0
 80023a4:	2b00      	cmp	r3, #0
 80023a6:	f000 8148 	beq.w	800263a <LCD_HandleKey+0xf06>
            if(valueChanged) lcd_set_icon(IA_TILT, tiltState);
 80023aa:	4b3d      	ldr	r3, [pc, #244]	@ (80024a0 <LCD_HandleKey+0xd6c>)
 80023ac:	781b      	ldrb	r3, [r3, #0]
 80023ae:	2b00      	cmp	r3, #0
 80023b0:	d005      	beq.n	80023be <LCD_HandleKey+0xc8a>
 80023b2:	4b3d      	ldr	r3, [pc, #244]	@ (80024a8 <LCD_HandleKey+0xd74>)
 80023b4:	781b      	ldrb	r3, [r3, #0]
 80023b6:	4619      	mov	r1, r3
 80023b8:	2046      	movs	r0, #70	@ 0x46
 80023ba:	f7fe fd61 	bl	8000e80 <lcd_set_icon>
            LCD_ResetHomeTimer(); break;
 80023be:	f7fe fec9 	bl	8001154 <LCD_ResetHomeTimer>
 80023c2:	e145      	b.n	8002650 <LCD_HandleKey+0xf1c>
        case 0x08:
            STEP_INC(tiltState, 4);
 80023c4:	4b34      	ldr	r3, [pc, #208]	@ (8002498 <LCD_HandleKey+0xd64>)
 80023c6:	781b      	ldrb	r3, [r3, #0]
 80023c8:	2b00      	cmp	r3, #0
 80023ca:	d00f      	beq.n	80023ec <LCD_HandleKey+0xcb8>
 80023cc:	4b36      	ldr	r3, [pc, #216]	@ (80024a8 <LCD_HandleKey+0xd74>)
 80023ce:	781b      	ldrb	r3, [r3, #0]
 80023d0:	2b03      	cmp	r3, #3
 80023d2:	d804      	bhi.n	80023de <LCD_HandleKey+0xcaa>
 80023d4:	4b34      	ldr	r3, [pc, #208]	@ (80024a8 <LCD_HandleKey+0xd74>)
 80023d6:	781b      	ldrb	r3, [r3, #0]
 80023d8:	3301      	adds	r3, #1
 80023da:	b2db      	uxtb	r3, r3
 80023dc:	e000      	b.n	80023e0 <LCD_HandleKey+0xcac>
 80023de:	2300      	movs	r3, #0
 80023e0:	4a31      	ldr	r2, [pc, #196]	@ (80024a8 <LCD_HandleKey+0xd74>)
 80023e2:	7013      	strb	r3, [r2, #0]
 80023e4:	4b2e      	ldr	r3, [pc, #184]	@ (80024a0 <LCD_HandleKey+0xd6c>)
 80023e6:	2201      	movs	r2, #1
 80023e8:	701a      	strb	r2, [r3, #0]
 80023ea:	e00c      	b.n	8002406 <LCD_HandleKey+0xcd2>
 80023ec:	4b2e      	ldr	r3, [pc, #184]	@ (80024a8 <LCD_HandleKey+0xd74>)
 80023ee:	781b      	ldrb	r3, [r3, #0]
 80023f0:	2b03      	cmp	r3, #3
 80023f2:	d808      	bhi.n	8002406 <LCD_HandleKey+0xcd2>
 80023f4:	4b2c      	ldr	r3, [pc, #176]	@ (80024a8 <LCD_HandleKey+0xd74>)
 80023f6:	781b      	ldrb	r3, [r3, #0]
 80023f8:	3301      	adds	r3, #1
 80023fa:	b2da      	uxtb	r2, r3
 80023fc:	4b2a      	ldr	r3, [pc, #168]	@ (80024a8 <LCD_HandleKey+0xd74>)
 80023fe:	701a      	strb	r2, [r3, #0]
 8002400:	4b27      	ldr	r3, [pc, #156]	@ (80024a0 <LCD_HandleKey+0xd6c>)
 8002402:	2201      	movs	r2, #1
 8002404:	701a      	strb	r2, [r3, #0]
            if(!LCD_SetPageIfAllowed(PAGE_TILT)) break;
 8002406:	200b      	movs	r0, #11
 8002408:	f7ff f874 	bl	80014f4 <LCD_SetPageIfAllowed>
 800240c:	4603      	mov	r3, r0
 800240e:	2b00      	cmp	r3, #0
 8002410:	f000 8115 	beq.w	800263e <LCD_HandleKey+0xf0a>
            if(valueChanged) lcd_set_icon(IA_TILT, tiltState);
 8002414:	4b22      	ldr	r3, [pc, #136]	@ (80024a0 <LCD_HandleKey+0xd6c>)
 8002416:	781b      	ldrb	r3, [r3, #0]
 8002418:	2b00      	cmp	r3, #0
 800241a:	d005      	beq.n	8002428 <LCD_HandleKey+0xcf4>
 800241c:	4b22      	ldr	r3, [pc, #136]	@ (80024a8 <LCD_HandleKey+0xd74>)
 800241e:	781b      	ldrb	r3, [r3, #0]
 8002420:	4619      	mov	r1, r3
 8002422:	2046      	movs	r0, #70	@ 0x46
 8002424:	f7fe fd2c 	bl	8000e80 <lcd_set_icon>
            LCD_ResetHomeTimer(); break;
 8002428:	f7fe fe94 	bl	8001154 <LCD_ResetHomeTimer>
 800242c:	e110      	b.n	8002650 <LCD_HandleKey+0xf1c>
        case 0x09:
            STEP_INC(slideState, 2);
 800242e:	4b1a      	ldr	r3, [pc, #104]	@ (8002498 <LCD_HandleKey+0xd64>)
 8002430:	781b      	ldrb	r3, [r3, #0]
 8002432:	2b00      	cmp	r3, #0
 8002434:	d00f      	beq.n	8002456 <LCD_HandleKey+0xd22>
 8002436:	4b1d      	ldr	r3, [pc, #116]	@ (80024ac <LCD_HandleKey+0xd78>)
 8002438:	781b      	ldrb	r3, [r3, #0]
 800243a:	2b01      	cmp	r3, #1
 800243c:	d804      	bhi.n	8002448 <LCD_HandleKey+0xd14>
 800243e:	4b1b      	ldr	r3, [pc, #108]	@ (80024ac <LCD_HandleKey+0xd78>)
 8002440:	781b      	ldrb	r3, [r3, #0]
 8002442:	3301      	adds	r3, #1
 8002444:	b2db      	uxtb	r3, r3
 8002446:	e000      	b.n	800244a <LCD_HandleKey+0xd16>
 8002448:	2300      	movs	r3, #0
 800244a:	4a18      	ldr	r2, [pc, #96]	@ (80024ac <LCD_HandleKey+0xd78>)
 800244c:	7013      	strb	r3, [r2, #0]
 800244e:	4b14      	ldr	r3, [pc, #80]	@ (80024a0 <LCD_HandleKey+0xd6c>)
 8002450:	2201      	movs	r2, #1
 8002452:	701a      	strb	r2, [r3, #0]
 8002454:	e00c      	b.n	8002470 <LCD_HandleKey+0xd3c>
 8002456:	4b15      	ldr	r3, [pc, #84]	@ (80024ac <LCD_HandleKey+0xd78>)
 8002458:	781b      	ldrb	r3, [r3, #0]
 800245a:	2b01      	cmp	r3, #1
 800245c:	d808      	bhi.n	8002470 <LCD_HandleKey+0xd3c>
 800245e:	4b13      	ldr	r3, [pc, #76]	@ (80024ac <LCD_HandleKey+0xd78>)
 8002460:	781b      	ldrb	r3, [r3, #0]
 8002462:	3301      	adds	r3, #1
 8002464:	b2da      	uxtb	r2, r3
 8002466:	4b11      	ldr	r3, [pc, #68]	@ (80024ac <LCD_HandleKey+0xd78>)
 8002468:	701a      	strb	r2, [r3, #0]
 800246a:	4b0d      	ldr	r3, [pc, #52]	@ (80024a0 <LCD_HandleKey+0xd6c>)
 800246c:	2201      	movs	r2, #1
 800246e:	701a      	strb	r2, [r3, #0]
            if(!LCD_SetPageIfAllowed(PAGE_SLIDE)) break;
 8002470:	200a      	movs	r0, #10
 8002472:	f7ff f83f 	bl	80014f4 <LCD_SetPageIfAllowed>
 8002476:	4603      	mov	r3, r0
 8002478:	2b00      	cmp	r3, #0
 800247a:	f000 80e2 	beq.w	8002642 <LCD_HandleKey+0xf0e>
            if(valueChanged) lcd_set_icon(IA_SLIDE, slideState);
 800247e:	4b08      	ldr	r3, [pc, #32]	@ (80024a0 <LCD_HandleKey+0xd6c>)
 8002480:	781b      	ldrb	r3, [r3, #0]
 8002482:	2b00      	cmp	r3, #0
 8002484:	d005      	beq.n	8002492 <LCD_HandleKey+0xd5e>
 8002486:	4b09      	ldr	r3, [pc, #36]	@ (80024ac <LCD_HandleKey+0xd78>)
 8002488:	781b      	ldrb	r3, [r3, #0]
 800248a:	4619      	mov	r1, r3
 800248c:	2045      	movs	r0, #69	@ 0x45
 800248e:	f7fe fcf7 	bl	8000e80 <lcd_set_icon>
            LCD_ResetHomeTimer(); break;
 8002492:	f7fe fe5f 	bl	8001154 <LCD_ResetHomeTimer>
 8002496:	e0db      	b.n	8002650 <LCD_HandleKey+0xf1c>
 8002498:	20000247 	.word	0x20000247
 800249c:	20000242 	.word	0x20000242
 80024a0:	20000246 	.word	0x20000246
 80024a4:	20000243 	.word	0x20000243
 80024a8:	20000001 	.word	0x20000001
 80024ac:	20000244 	.word	0x20000244
        case 0x10:
            STEP_DEC(slideState, 2);
 80024b0:	4b69      	ldr	r3, [pc, #420]	@ (8002658 <LCD_HandleKey+0xf24>)
 80024b2:	781b      	ldrb	r3, [r3, #0]
 80024b4:	2b00      	cmp	r3, #0
 80024b6:	d00f      	beq.n	80024d8 <LCD_HandleKey+0xda4>
 80024b8:	4b68      	ldr	r3, [pc, #416]	@ (800265c <LCD_HandleKey+0xf28>)
 80024ba:	781b      	ldrb	r3, [r3, #0]
 80024bc:	2b00      	cmp	r3, #0
 80024be:	d004      	beq.n	80024ca <LCD_HandleKey+0xd96>
 80024c0:	4b66      	ldr	r3, [pc, #408]	@ (800265c <LCD_HandleKey+0xf28>)
 80024c2:	781b      	ldrb	r3, [r3, #0]
 80024c4:	3b01      	subs	r3, #1
 80024c6:	b2db      	uxtb	r3, r3
 80024c8:	e000      	b.n	80024cc <LCD_HandleKey+0xd98>
 80024ca:	2302      	movs	r3, #2
 80024cc:	4a63      	ldr	r2, [pc, #396]	@ (800265c <LCD_HandleKey+0xf28>)
 80024ce:	7013      	strb	r3, [r2, #0]
 80024d0:	4b63      	ldr	r3, [pc, #396]	@ (8002660 <LCD_HandleKey+0xf2c>)
 80024d2:	2201      	movs	r2, #1
 80024d4:	701a      	strb	r2, [r3, #0]
 80024d6:	e00c      	b.n	80024f2 <LCD_HandleKey+0xdbe>
 80024d8:	4b60      	ldr	r3, [pc, #384]	@ (800265c <LCD_HandleKey+0xf28>)
 80024da:	781b      	ldrb	r3, [r3, #0]
 80024dc:	2b00      	cmp	r3, #0
 80024de:	d008      	beq.n	80024f2 <LCD_HandleKey+0xdbe>
 80024e0:	4b5e      	ldr	r3, [pc, #376]	@ (800265c <LCD_HandleKey+0xf28>)
 80024e2:	781b      	ldrb	r3, [r3, #0]
 80024e4:	3b01      	subs	r3, #1
 80024e6:	b2da      	uxtb	r2, r3
 80024e8:	4b5c      	ldr	r3, [pc, #368]	@ (800265c <LCD_HandleKey+0xf28>)
 80024ea:	701a      	strb	r2, [r3, #0]
 80024ec:	4b5c      	ldr	r3, [pc, #368]	@ (8002660 <LCD_HandleKey+0xf2c>)
 80024ee:	2201      	movs	r2, #1
 80024f0:	701a      	strb	r2, [r3, #0]
            if(!LCD_SetPageIfAllowed(PAGE_SLIDE)) break;
 80024f2:	200a      	movs	r0, #10
 80024f4:	f7fe fffe 	bl	80014f4 <LCD_SetPageIfAllowed>
 80024f8:	4603      	mov	r3, r0
 80024fa:	2b00      	cmp	r3, #0
 80024fc:	f000 80a3 	beq.w	8002646 <LCD_HandleKey+0xf12>
            if(valueChanged) lcd_set_icon(IA_SLIDE, slideState);
 8002500:	4b57      	ldr	r3, [pc, #348]	@ (8002660 <LCD_HandleKey+0xf2c>)
 8002502:	781b      	ldrb	r3, [r3, #0]
 8002504:	2b00      	cmp	r3, #0
 8002506:	d005      	beq.n	8002514 <LCD_HandleKey+0xde0>
 8002508:	4b54      	ldr	r3, [pc, #336]	@ (800265c <LCD_HandleKey+0xf28>)
 800250a:	781b      	ldrb	r3, [r3, #0]
 800250c:	4619      	mov	r1, r3
 800250e:	2045      	movs	r0, #69	@ 0x45
 8002510:	f7fe fcb6 	bl	8000e80 <lcd_set_icon>
            LCD_ResetHomeTimer(); break;
 8002514:	f7fe fe1e 	bl	8001154 <LCD_ResetHomeTimer>
 8002518:	e09a      	b.n	8002650 <LCD_HandleKey+0xf1c>
        case 0x11:
            STEP_DEC(flexState, 1);
 800251a:	4b4f      	ldr	r3, [pc, #316]	@ (8002658 <LCD_HandleKey+0xf24>)
 800251c:	781b      	ldrb	r3, [r3, #0]
 800251e:	2b00      	cmp	r3, #0
 8002520:	d00f      	beq.n	8002542 <LCD_HandleKey+0xe0e>
 8002522:	4b50      	ldr	r3, [pc, #320]	@ (8002664 <LCD_HandleKey+0xf30>)
 8002524:	781b      	ldrb	r3, [r3, #0]
 8002526:	2b00      	cmp	r3, #0
 8002528:	d004      	beq.n	8002534 <LCD_HandleKey+0xe00>
 800252a:	4b4e      	ldr	r3, [pc, #312]	@ (8002664 <LCD_HandleKey+0xf30>)
 800252c:	781b      	ldrb	r3, [r3, #0]
 800252e:	3b01      	subs	r3, #1
 8002530:	b2db      	uxtb	r3, r3
 8002532:	e000      	b.n	8002536 <LCD_HandleKey+0xe02>
 8002534:	2301      	movs	r3, #1
 8002536:	4a4b      	ldr	r2, [pc, #300]	@ (8002664 <LCD_HandleKey+0xf30>)
 8002538:	7013      	strb	r3, [r2, #0]
 800253a:	4b49      	ldr	r3, [pc, #292]	@ (8002660 <LCD_HandleKey+0xf2c>)
 800253c:	2201      	movs	r2, #1
 800253e:	701a      	strb	r2, [r3, #0]
 8002540:	e00c      	b.n	800255c <LCD_HandleKey+0xe28>
 8002542:	4b48      	ldr	r3, [pc, #288]	@ (8002664 <LCD_HandleKey+0xf30>)
 8002544:	781b      	ldrb	r3, [r3, #0]
 8002546:	2b00      	cmp	r3, #0
 8002548:	d008      	beq.n	800255c <LCD_HandleKey+0xe28>
 800254a:	4b46      	ldr	r3, [pc, #280]	@ (8002664 <LCD_HandleKey+0xf30>)
 800254c:	781b      	ldrb	r3, [r3, #0]
 800254e:	3b01      	subs	r3, #1
 8002550:	b2da      	uxtb	r2, r3
 8002552:	4b44      	ldr	r3, [pc, #272]	@ (8002664 <LCD_HandleKey+0xf30>)
 8002554:	701a      	strb	r2, [r3, #0]
 8002556:	4b42      	ldr	r3, [pc, #264]	@ (8002660 <LCD_HandleKey+0xf2c>)
 8002558:	2201      	movs	r2, #1
 800255a:	701a      	strb	r2, [r3, #0]
            if(!LCD_SetPageIfAllowed(PAGE_FLEX)) break;
 800255c:	2005      	movs	r0, #5
 800255e:	f7fe ffc9 	bl	80014f4 <LCD_SetPageIfAllowed>
 8002562:	4603      	mov	r3, r0
 8002564:	2b00      	cmp	r3, #0
 8002566:	d070      	beq.n	800264a <LCD_HandleKey+0xf16>
            if(valueChanged) lcd_set_icon(IA_FLEX, flexState);
 8002568:	4b3d      	ldr	r3, [pc, #244]	@ (8002660 <LCD_HandleKey+0xf2c>)
 800256a:	781b      	ldrb	r3, [r3, #0]
 800256c:	2b00      	cmp	r3, #0
 800256e:	d005      	beq.n	800257c <LCD_HandleKey+0xe48>
 8002570:	4b3c      	ldr	r3, [pc, #240]	@ (8002664 <LCD_HandleKey+0xf30>)
 8002572:	781b      	ldrb	r3, [r3, #0]
 8002574:	4619      	mov	r1, r3
 8002576:	2040      	movs	r0, #64	@ 0x40
 8002578:	f7fe fc82 	bl	8000e80 <lcd_set_icon>
            LCD_ResetHomeTimer(); break;
 800257c:	f7fe fdea 	bl	8001154 <LCD_ResetHomeTimer>
 8002580:	e066      	b.n	8002650 <LCD_HandleKey+0xf1c>
        case 0x12:
            STEP_INC(flexState, 1);
 8002582:	4b35      	ldr	r3, [pc, #212]	@ (8002658 <LCD_HandleKey+0xf24>)
 8002584:	781b      	ldrb	r3, [r3, #0]
 8002586:	2b00      	cmp	r3, #0
 8002588:	d00f      	beq.n	80025aa <LCD_HandleKey+0xe76>
 800258a:	4b36      	ldr	r3, [pc, #216]	@ (8002664 <LCD_HandleKey+0xf30>)
 800258c:	781b      	ldrb	r3, [r3, #0]
 800258e:	2b00      	cmp	r3, #0
 8002590:	d104      	bne.n	800259c <LCD_HandleKey+0xe68>
 8002592:	4b34      	ldr	r3, [pc, #208]	@ (8002664 <LCD_HandleKey+0xf30>)
 8002594:	781b      	ldrb	r3, [r3, #0]
 8002596:	3301      	adds	r3, #1
 8002598:	b2db      	uxtb	r3, r3
 800259a:	e000      	b.n	800259e <LCD_HandleKey+0xe6a>
 800259c:	2300      	movs	r3, #0
 800259e:	4a31      	ldr	r2, [pc, #196]	@ (8002664 <LCD_HandleKey+0xf30>)
 80025a0:	7013      	strb	r3, [r2, #0]
 80025a2:	4b2f      	ldr	r3, [pc, #188]	@ (8002660 <LCD_HandleKey+0xf2c>)
 80025a4:	2201      	movs	r2, #1
 80025a6:	701a      	strb	r2, [r3, #0]
 80025a8:	e00c      	b.n	80025c4 <LCD_HandleKey+0xe90>
 80025aa:	4b2e      	ldr	r3, [pc, #184]	@ (8002664 <LCD_HandleKey+0xf30>)
 80025ac:	781b      	ldrb	r3, [r3, #0]
 80025ae:	2b00      	cmp	r3, #0
 80025b0:	d108      	bne.n	80025c4 <LCD_HandleKey+0xe90>
 80025b2:	4b2c      	ldr	r3, [pc, #176]	@ (8002664 <LCD_HandleKey+0xf30>)
 80025b4:	781b      	ldrb	r3, [r3, #0]
 80025b6:	3301      	adds	r3, #1
 80025b8:	b2da      	uxtb	r2, r3
 80025ba:	4b2a      	ldr	r3, [pc, #168]	@ (8002664 <LCD_HandleKey+0xf30>)
 80025bc:	701a      	strb	r2, [r3, #0]
 80025be:	4b28      	ldr	r3, [pc, #160]	@ (8002660 <LCD_HandleKey+0xf2c>)
 80025c0:	2201      	movs	r2, #1
 80025c2:	701a      	strb	r2, [r3, #0]
            if(!LCD_SetPageIfAllowed(PAGE_FLEX)) break;
 80025c4:	2005      	movs	r0, #5
 80025c6:	f7fe ff95 	bl	80014f4 <LCD_SetPageIfAllowed>
 80025ca:	4603      	mov	r3, r0
 80025cc:	2b00      	cmp	r3, #0
 80025ce:	d03e      	beq.n	800264e <LCD_HandleKey+0xf1a>
            if(valueChanged) lcd_set_icon(IA_FLEX, flexState);
 80025d0:	4b23      	ldr	r3, [pc, #140]	@ (8002660 <LCD_HandleKey+0xf2c>)
 80025d2:	781b      	ldrb	r3, [r3, #0]
 80025d4:	2b00      	cmp	r3, #0
 80025d6:	d005      	beq.n	80025e4 <LCD_HandleKey+0xeb0>
 80025d8:	4b22      	ldr	r3, [pc, #136]	@ (8002664 <LCD_HandleKey+0xf30>)
 80025da:	781b      	ldrb	r3, [r3, #0]
 80025dc:	4619      	mov	r1, r3
 80025de:	2040      	movs	r0, #64	@ 0x40
 80025e0:	f7fe fc4e 	bl	8000e80 <lcd_set_icon>
            LCD_ResetHomeTimer(); break;
 80025e4:	f7fe fdb6 	bl	8001154 <LCD_ResetHomeTimer>
 80025e8:	e032      	b.n	8002650 <LCD_HandleKey+0xf1c>
    if(!lcdPowerOn || lcdLocked) return;
 80025ea:	bf00      	nop
 80025ec:	e030      	b.n	8002650 <LCD_HandleKey+0xf1c>
            if(!LCD_DetailsHasAnyAllowedItem()) return;
 80025ee:	bf00      	nop
 80025f0:	e02e      	b.n	8002650 <LCD_HandleKey+0xf1c>
        return;
 80025f2:	bf00      	nop
 80025f4:	e02c      	b.n	8002650 <LCD_HandleKey+0xf1c>
            if(!LCD_DetailsItemAllowed(details_cursor)) return;
 80025f6:	bf00      	nop
 80025f8:	e02a      	b.n	8002650 <LCD_HandleKey+0xf1c>
                if(!LCD_SetPageIfAllowed(PAGE_RTP1)) return;
 80025fa:	bf00      	nop
 80025fc:	e028      	b.n	8002650 <LCD_HandleKey+0xf1c>
                if(!LCD_SetPageIfAllowed(PAGE_BATTERY)) return;
 80025fe:	bf00      	nop
 8002600:	e026      	b.n	8002650 <LCD_HandleKey+0xf1c>
        return;
 8002602:	bf00      	nop
 8002604:	e024      	b.n	8002650 <LCD_HandleKey+0xf1c>
                if(!LCD_SetPageIfAllowed(PAGE_RTP2)) return;
 8002606:	bf00      	nop
 8002608:	e022      	b.n	8002650 <LCD_HandleKey+0xf1c>
                if(!LCD_SetPageIfAllowed(PAGE_RTP1)) return;
 800260a:	bf00      	nop
 800260c:	e020      	b.n	8002650 <LCD_HandleKey+0xf1c>
        return;
 800260e:	bf00      	nop
 8002610:	e01e      	b.n	8002650 <LCD_HandleKey+0xf1c>
    if(uiState == UI_BATTERY) { return; }
 8002612:	bf00      	nop
 8002614:	e01c      	b.n	8002650 <LCD_HandleKey+0xf1c>
        return;
 8002616:	bf00      	nop
 8002618:	e01a      	b.n	8002650 <LCD_HandleKey+0xf1c>
                    if(!LCD_SetPageIfAllowed(PAGE_BATTERY)) return;
 800261a:	bf00      	nop
 800261c:	e018      	b.n	8002650 <LCD_HandleKey+0xf1c>
        return;
 800261e:	bf00      	nop
 8002620:	e016      	b.n	8002650 <LCD_HandleKey+0xf1c>
    if(uiState == UI_SETTING_ANTI) { (void)cmd; return; }
 8002622:	bf00      	nop
 8002624:	e014      	b.n	8002650 <LCD_HandleKey+0xf1c>
        return;
 8002626:	bf00      	nop
 8002628:	e012      	b.n	8002650 <LCD_HandleKey+0xf1c>
        return;
 800262a:	bf00      	nop
 800262c:	e010      	b.n	8002650 <LCD_HandleKey+0xf1c>
        return;
 800262e:	bf00      	nop
 8002630:	e00e      	b.n	8002650 <LCD_HandleKey+0xf1c>
        return;
 8002632:	bf00      	nop
 8002634:	e00c      	b.n	8002650 <LCD_HandleKey+0xf1c>
        default: break;
 8002636:	bf00      	nop
 8002638:	e00a      	b.n	8002650 <LCD_HandleKey+0xf1c>
            if(!LCD_SetPageIfAllowed(PAGE_TILT)) break;
 800263a:	bf00      	nop
 800263c:	e008      	b.n	8002650 <LCD_HandleKey+0xf1c>
            if(!LCD_SetPageIfAllowed(PAGE_TILT)) break;
 800263e:	bf00      	nop
 8002640:	e006      	b.n	8002650 <LCD_HandleKey+0xf1c>
            if(!LCD_SetPageIfAllowed(PAGE_SLIDE)) break;
 8002642:	bf00      	nop
 8002644:	e004      	b.n	8002650 <LCD_HandleKey+0xf1c>
            if(!LCD_SetPageIfAllowed(PAGE_SLIDE)) break;
 8002646:	bf00      	nop
 8002648:	e002      	b.n	8002650 <LCD_HandleKey+0xf1c>
            if(!LCD_SetPageIfAllowed(PAGE_FLEX)) break;
 800264a:	bf00      	nop
 800264c:	e000      	b.n	8002650 <LCD_HandleKey+0xf1c>
            if(!LCD_SetPageIfAllowed(PAGE_FLEX)) break;
 800264e:	bf00      	nop
    }
}
 8002650:	3708      	adds	r7, #8
 8002652:	46bd      	mov	sp, r7
 8002654:	bd80      	pop	{r7, pc}
 8002656:	bf00      	nop
 8002658:	20000247 	.word	0x20000247
 800265c:	20000244 	.word	0x20000244
 8002660:	20000246 	.word	0x20000246
 8002664:	20000245 	.word	0x20000245

08002668 <LCD_StartCircularAnim>:

/* ======================================================================
 * Animation
 * ====================================================================== */
void LCD_StartCircularAnim(uint8_t cmd)
{
 8002668:	b580      	push	{r7, lr}
 800266a:	b082      	sub	sp, #8
 800266c:	af00      	add	r7, sp, #0
 800266e:	4603      	mov	r3, r0
 8002670:	71fb      	strb	r3, [r7, #7]
    if(!lcdPowerOn || lcdLocked) return;
 8002672:	4b0c      	ldr	r3, [pc, #48]	@ (80026a4 <LCD_StartCircularAnim+0x3c>)
 8002674:	781b      	ldrb	r3, [r3, #0]
 8002676:	2b00      	cmp	r3, #0
 8002678:	d00f      	beq.n	800269a <LCD_StartCircularAnim+0x32>
 800267a:	4b0b      	ldr	r3, [pc, #44]	@ (80026a8 <LCD_StartCircularAnim+0x40>)
 800267c:	781b      	ldrb	r3, [r3, #0]
 800267e:	2b00      	cmp	r3, #0
 8002680:	d10b      	bne.n	800269a <LCD_StartCircularAnim+0x32>
    animActive = 1; animCmd = cmd; animTick = HAL_GetTick();
 8002682:	4b0a      	ldr	r3, [pc, #40]	@ (80026ac <LCD_StartCircularAnim+0x44>)
 8002684:	2201      	movs	r2, #1
 8002686:	701a      	strb	r2, [r3, #0]
 8002688:	4a09      	ldr	r2, [pc, #36]	@ (80026b0 <LCD_StartCircularAnim+0x48>)
 800268a:	79fb      	ldrb	r3, [r7, #7]
 800268c:	7013      	strb	r3, [r2, #0]
 800268e:	f001 fc63 	bl	8003f58 <HAL_GetTick>
 8002692:	4603      	mov	r3, r0
 8002694:	4a07      	ldr	r2, [pc, #28]	@ (80026b4 <LCD_StartCircularAnim+0x4c>)
 8002696:	6013      	str	r3, [r2, #0]
 8002698:	e000      	b.n	800269c <LCD_StartCircularAnim+0x34>
    if(!lcdPowerOn || lcdLocked) return;
 800269a:	bf00      	nop
}
 800269c:	3708      	adds	r7, #8
 800269e:	46bd      	mov	sp, r7
 80026a0:	bd80      	pop	{r7, pc}
 80026a2:	bf00      	nop
 80026a4:	20000002 	.word	0x20000002
 80026a8:	20000251 	.word	0x20000251
 80026ac:	20000248 	.word	0x20000248
 80026b0:	20000249 	.word	0x20000249
 80026b4:	2000024c 	.word	0x2000024c

080026b8 <LCD_StopCircularAnim>:

void LCD_StopCircularAnim(void) { animActive = 0; }
 80026b8:	b480      	push	{r7}
 80026ba:	af00      	add	r7, sp, #0
 80026bc:	4b03      	ldr	r3, [pc, #12]	@ (80026cc <LCD_StopCircularAnim+0x14>)
 80026be:	2200      	movs	r2, #0
 80026c0:	701a      	strb	r2, [r3, #0]
 80026c2:	bf00      	nop
 80026c4:	46bd      	mov	sp, r7
 80026c6:	bc80      	pop	{r7}
 80026c8:	4770      	bx	lr
 80026ca:	bf00      	nop
 80026cc:	20000248 	.word	0x20000248

080026d0 <LCD_HandleCircularAnim>:

static void LCD_HandleCircularAnim(void)
{
 80026d0:	b580      	push	{r7, lr}
 80026d2:	af00      	add	r7, sp, #0
    if(!animActive) return;
 80026d4:	4b10      	ldr	r3, [pc, #64]	@ (8002718 <LCD_HandleCircularAnim+0x48>)
 80026d6:	781b      	ldrb	r3, [r3, #0]
 80026d8:	2b00      	cmp	r3, #0
 80026da:	d018      	beq.n	800270e <LCD_HandleCircularAnim+0x3e>
    if((HAL_GetTick() - animTick) < 250) return;
 80026dc:	f001 fc3c 	bl	8003f58 <HAL_GetTick>
 80026e0:	4602      	mov	r2, r0
 80026e2:	4b0e      	ldr	r3, [pc, #56]	@ (800271c <LCD_HandleCircularAnim+0x4c>)
 80026e4:	681b      	ldr	r3, [r3, #0]
 80026e6:	1ad3      	subs	r3, r2, r3
 80026e8:	2bf9      	cmp	r3, #249	@ 0xf9
 80026ea:	d912      	bls.n	8002712 <LCD_HandleCircularAnim+0x42>
    animTick     = HAL_GetTick();
 80026ec:	f001 fc34 	bl	8003f58 <HAL_GetTick>
 80026f0:	4603      	mov	r3, r0
 80026f2:	4a0a      	ldr	r2, [pc, #40]	@ (800271c <LCD_HandleCircularAnim+0x4c>)
 80026f4:	6013      	str	r3, [r2, #0]
    animStepping = 1;
 80026f6:	4b0a      	ldr	r3, [pc, #40]	@ (8002720 <LCD_HandleCircularAnim+0x50>)
 80026f8:	2201      	movs	r2, #1
 80026fa:	701a      	strb	r2, [r3, #0]
    LCD_HandleKey(animCmd);
 80026fc:	4b09      	ldr	r3, [pc, #36]	@ (8002724 <LCD_HandleCircularAnim+0x54>)
 80026fe:	781b      	ldrb	r3, [r3, #0]
 8002700:	4618      	mov	r0, r3
 8002702:	f7ff f817 	bl	8001734 <LCD_HandleKey>
    animStepping = 0;
 8002706:	4b06      	ldr	r3, [pc, #24]	@ (8002720 <LCD_HandleCircularAnim+0x50>)
 8002708:	2200      	movs	r2, #0
 800270a:	701a      	strb	r2, [r3, #0]
 800270c:	e002      	b.n	8002714 <LCD_HandleCircularAnim+0x44>
    if(!animActive) return;
 800270e:	bf00      	nop
 8002710:	e000      	b.n	8002714 <LCD_HandleCircularAnim+0x44>
    if((HAL_GetTick() - animTick) < 250) return;
 8002712:	bf00      	nop
}
 8002714:	bd80      	pop	{r7, pc}
 8002716:	bf00      	nop
 8002718:	20000248 	.word	0x20000248
 800271c:	2000024c 	.word	0x2000024c
 8002720:	20000247 	.word	0x20000247
 8002724:	20000249 	.word	0x20000249

08002728 <LCD_Task>:

/* ======================================================================
 * Task  (call from main loop)
 * ====================================================================== */
void LCD_Task(void)
{
 8002728:	b580      	push	{r7, lr}
 800272a:	af00      	add	r7, sp, #0
    LCD_HandleCircularAnim();
 800272c:	f7ff ffd0 	bl	80026d0 <LCD_HandleCircularAnim>

    /* Do NOT auto-return home while a collision alert is being shown. */
    if(homeActive && !Sensor_IsActive() && lcdPowerOn && !lcdLocked
 8002730:	4b14      	ldr	r3, [pc, #80]	@ (8002784 <LCD_Task+0x5c>)
 8002732:	781b      	ldrb	r3, [r3, #0]
 8002734:	2b00      	cmp	r3, #0
 8002736:	d022      	beq.n	800277e <LCD_Task+0x56>
 8002738:	f000 ff1a 	bl	8003570 <Sensor_IsActive>
 800273c:	4603      	mov	r3, r0
 800273e:	2b00      	cmp	r3, #0
 8002740:	d11d      	bne.n	800277e <LCD_Task+0x56>
 8002742:	4b11      	ldr	r3, [pc, #68]	@ (8002788 <LCD_Task+0x60>)
 8002744:	781b      	ldrb	r3, [r3, #0]
 8002746:	2b00      	cmp	r3, #0
 8002748:	d019      	beq.n	800277e <LCD_Task+0x56>
 800274a:	4b10      	ldr	r3, [pc, #64]	@ (800278c <LCD_Task+0x64>)
 800274c:	781b      	ldrb	r3, [r3, #0]
 800274e:	2b00      	cmp	r3, #0
 8002750:	d115      	bne.n	800277e <LCD_Task+0x56>
       && !collisionAlertActive)
 8002752:	4b0f      	ldr	r3, [pc, #60]	@ (8002790 <LCD_Task+0x68>)
 8002754:	781b      	ldrb	r3, [r3, #0]
 8002756:	2b00      	cmp	r3, #0
 8002758:	d111      	bne.n	800277e <LCD_Task+0x56>
    {
        if((HAL_GetTick() - homeTimer) >= HOME_RETURN_TIME)
 800275a:	f001 fbfd 	bl	8003f58 <HAL_GetTick>
 800275e:	4602      	mov	r2, r0
 8002760:	4b0c      	ldr	r3, [pc, #48]	@ (8002794 <LCD_Task+0x6c>)
 8002762:	681b      	ldr	r3, [r3, #0]
 8002764:	1ad3      	subs	r3, r2, r3
 8002766:	f5b3 6f7a 	cmp.w	r3, #4000	@ 0xfa0
 800276a:	d308      	bcc.n	800277e <LCD_Task+0x56>
        {
            uiState    = UI_HOME;
 800276c:	4b0a      	ldr	r3, [pc, #40]	@ (8002798 <LCD_Task+0x70>)
 800276e:	2200      	movs	r2, #0
 8002770:	701a      	strb	r2, [r3, #0]
            homeActive = 0;
 8002772:	4b04      	ldr	r3, [pc, #16]	@ (8002784 <LCD_Task+0x5c>)
 8002774:	2200      	movs	r2, #0
 8002776:	701a      	strb	r2, [r3, #0]
            lcd_set_page(PAGE_HOME);
 8002778:	2004      	movs	r0, #4
 800277a:	f7fe fb37 	bl	8000dec <lcd_set_page>
        }
    }
}
 800277e:	bf00      	nop
 8002780:	bd80      	pop	{r7, pc}
 8002782:	bf00      	nop
 8002784:	20000284 	.word	0x20000284
 8002788:	20000002 	.word	0x20000002
 800278c:	20000251 	.word	0x20000251
 8002790:	20000255 	.word	0x20000255
 8002794:	20000280 	.word	0x20000280
 8002798:	2000022c 	.word	0x2000022c

0800279c <LCD_UpdateSensorIcon>:

/* ======================================================================
 * Sensor icon page
 * ====================================================================== */
void LCD_UpdateSensorIcon(uint8_t iconAddr, uint8_t state)
{
 800279c:	b580      	push	{r7, lr}
 800279e:	b082      	sub	sp, #8
 80027a0:	af00      	add	r7, sp, #0
 80027a2:	4603      	mov	r3, r0
 80027a4:	460a      	mov	r2, r1
 80027a6:	71fb      	strb	r3, [r7, #7]
 80027a8:	4613      	mov	r3, r2
 80027aa:	71bb      	strb	r3, [r7, #6]
    if(!lcdPowerOn) return;
 80027ac:	4b07      	ldr	r3, [pc, #28]	@ (80027cc <LCD_UpdateSensorIcon+0x30>)
 80027ae:	781b      	ldrb	r3, [r3, #0]
 80027b0:	2b00      	cmp	r3, #0
 80027b2:	d006      	beq.n	80027c2 <LCD_UpdateSensorIcon+0x26>
    lcd_set_icon(iconAddr, state);
 80027b4:	79ba      	ldrb	r2, [r7, #6]
 80027b6:	79fb      	ldrb	r3, [r7, #7]
 80027b8:	4611      	mov	r1, r2
 80027ba:	4618      	mov	r0, r3
 80027bc:	f7fe fb60 	bl	8000e80 <lcd_set_icon>
 80027c0:	e000      	b.n	80027c4 <LCD_UpdateSensorIcon+0x28>
    if(!lcdPowerOn) return;
 80027c2:	bf00      	nop
}
 80027c4:	3708      	adds	r7, #8
 80027c6:	46bd      	mov	sp, r7
 80027c8:	bd80      	pop	{r7, pc}
 80027ca:	bf00      	nop
 80027cc:	20000002 	.word	0x20000002

080027d0 <LCD_ShowSensorPage>:

/* ======================================================================
 * LCD_ShowSensorPage / LCD_ShowMemoryPage
 * ====================================================================== */
void LCD_ShowSensorPage(uint8_t page)
{
 80027d0:	b580      	push	{r7, lr}
 80027d2:	b084      	sub	sp, #16
 80027d4:	af00      	add	r7, sp, #0
 80027d6:	4603      	mov	r3, r0
 80027d8:	71fb      	strb	r3, [r7, #7]
    if(!lcdPowerOn || lcdLocked) return;
 80027da:	4b66      	ldr	r3, [pc, #408]	@ (8002974 <LCD_ShowSensorPage+0x1a4>)
 80027dc:	781b      	ldrb	r3, [r3, #0]
 80027de:	2b00      	cmp	r3, #0
 80027e0:	f000 80c0 	beq.w	8002964 <LCD_ShowSensorPage+0x194>
 80027e4:	4b64      	ldr	r3, [pc, #400]	@ (8002978 <LCD_ShowSensorPage+0x1a8>)
 80027e6:	781b      	ldrb	r3, [r3, #0]
 80027e8:	2b00      	cmp	r3, #0
 80027ea:	f040 80bb 	bne.w	8002964 <LCD_ShowSensorPage+0x194>

    switch(page)
 80027ee:	79fb      	ldrb	r3, [r7, #7]
 80027f0:	3b0d      	subs	r3, #13
 80027f2:	2b08      	cmp	r3, #8
 80027f4:	f200 80b1 	bhi.w	800295a <LCD_ShowSensorPage+0x18a>
 80027f8:	a201      	add	r2, pc, #4	@ (adr r2, 8002800 <LCD_ShowSensorPage+0x30>)
 80027fa:	f852 f023 	ldr.w	pc, [r2, r3, lsl #2]
 80027fe:	bf00      	nop
 8002800:	08002825 	.word	0x08002825
 8002804:	0800285d 	.word	0x0800285d
 8002808:	080028ed 	.word	0x080028ed
 800280c:	08002925 	.word	0x08002925
 8002810:	0800295b 	.word	0x0800295b
 8002814:	0800295b 	.word	0x0800295b
 8002818:	0800295b 	.word	0x0800295b
 800281c:	0800295b 	.word	0x0800295b
 8002820:	0800293d 	.word	0x0800293d
    {
        case GOBACK_FLEX:
            uiState    = UI_COMBO_FLEX;
 8002824:	4b55      	ldr	r3, [pc, #340]	@ (800297c <LCD_ShowSensorPage+0x1ac>)
 8002826:	2208      	movs	r2, #8
 8002828:	701a      	strb	r2, [r3, #0]
            selFeature = 0;
 800282a:	4b55      	ldr	r3, [pc, #340]	@ (8002980 <LCD_ShowSensorPage+0x1b0>)
 800282c:	2200      	movs	r2, #0
 800282e:	701a      	strb	r2, [r3, #0]
            lcd_set_page(page);
 8002830:	79fb      	ldrb	r3, [r7, #7]
 8002832:	4618      	mov	r0, r3
 8002834:	f7fe fada 	bl	8000dec <lcd_set_page>
            lcd_set_icon(IA_SEL_COMBO_FLEX, 0);
 8002838:	2100      	movs	r1, #0
 800283a:	2048      	movs	r0, #72	@ 0x48
 800283c:	f7fe fb20 	bl	8000e80 <lcd_set_icon>
            for(uint8_t i = 0; i < ACCEPT_FIELD_COUNT; i++)
 8002840:	2300      	movs	r3, #0
 8002842:	73fb      	strb	r3, [r7, #15]
 8002844:	e006      	b.n	8002854 <LCD_ShowSensorPage+0x84>
                LCD_PushFeatureState(i);
 8002846:	7bfb      	ldrb	r3, [r7, #15]
 8002848:	4618      	mov	r0, r3
 800284a:	f7fe fee3 	bl	8001614 <LCD_PushFeatureState>
            for(uint8_t i = 0; i < ACCEPT_FIELD_COUNT; i++)
 800284e:	7bfb      	ldrb	r3, [r7, #15]
 8002850:	3301      	adds	r3, #1
 8002852:	73fb      	strb	r3, [r7, #15]
 8002854:	7bfb      	ldrb	r3, [r7, #15]
 8002856:	2b06      	cmp	r3, #6
 8002858:	d9f5      	bls.n	8002846 <LCD_ShowSensorPage+0x76>
            break;
 800285a:	e088      	b.n	800296e <LCD_ShowSensorPage+0x19e>

        case GOBACK_HEIGHT:
            if(!LCD_PageAllowed(GOBACK_HEIGHT)) return;
 800285c:	200e      	movs	r0, #14
 800285e:	f7fe fdf3 	bl	8001448 <LCD_PageAllowed>
 8002862:	4603      	mov	r3, r0
 8002864:	2b00      	cmp	r3, #0
 8002866:	d07f      	beq.n	8002968 <LCD_ShowSensorPage+0x198>
            uiState        = UI_COMBO_HEIGHT;
 8002868:	4b44      	ldr	r3, [pc, #272]	@ (800297c <LCD_ShowSensorPage+0x1ac>)
 800286a:	2209      	movs	r2, #9
 800286c:	701a      	strb	r2, [r3, #0]
            selComboHeight = 0;
 800286e:	4b45      	ldr	r3, [pc, #276]	@ (8002984 <LCD_ShowSensorPage+0x1b4>)
 8002870:	2200      	movs	r2, #0
 8002872:	701a      	strb	r2, [r3, #0]
            comboHeightVal[0] = Sensor_GetActualHeight();
 8002874:	f000 fe86 	bl	8003584 <Sensor_GetActualHeight>
 8002878:	4603      	mov	r3, r0
 800287a:	461a      	mov	r2, r3
 800287c:	4b42      	ldr	r3, [pc, #264]	@ (8002988 <LCD_ShowSensorPage+0x1b8>)
 800287e:	801a      	strh	r2, [r3, #0]
            comboHeightVal[3] = Sensor_GetSlide();
 8002880:	f000 fe8a 	bl	8003598 <Sensor_GetSlide>
 8002884:	4603      	mov	r3, r0
 8002886:	461a      	mov	r2, r3
 8002888:	4b3f      	ldr	r3, [pc, #252]	@ (8002988 <LCD_ShowSensorPage+0x1b8>)
 800288a:	80da      	strh	r2, [r3, #6]
            comboHeightVal[2] = comboHeightVal[0] + comboHeightVal[1];
 800288c:	4b3e      	ldr	r3, [pc, #248]	@ (8002988 <LCD_ShowSensorPage+0x1b8>)
 800288e:	881a      	ldrh	r2, [r3, #0]
 8002890:	4b3d      	ldr	r3, [pc, #244]	@ (8002988 <LCD_ShowSensorPage+0x1b8>)
 8002892:	885b      	ldrh	r3, [r3, #2]
 8002894:	4413      	add	r3, r2
 8002896:	b29a      	uxth	r2, r3
 8002898:	4b3b      	ldr	r3, [pc, #236]	@ (8002988 <LCD_ShowSensorPage+0x1b8>)
 800289a:	809a      	strh	r2, [r3, #4]
            comboHeightVal[5] = comboHeightVal[3] + comboHeightVal[4];
 800289c:	4b3a      	ldr	r3, [pc, #232]	@ (8002988 <LCD_ShowSensorPage+0x1b8>)
 800289e:	88da      	ldrh	r2, [r3, #6]
 80028a0:	4b39      	ldr	r3, [pc, #228]	@ (8002988 <LCD_ShowSensorPage+0x1b8>)
 80028a2:	891b      	ldrh	r3, [r3, #8]
 80028a4:	4413      	add	r3, r2
 80028a6:	b29a      	uxth	r2, r3
 80028a8:	4b37      	ldr	r3, [pc, #220]	@ (8002988 <LCD_ShowSensorPage+0x1b8>)
 80028aa:	815a      	strh	r2, [r3, #10]
            if(!LCD_SetPageIfAllowed(page)) return;
 80028ac:	79fb      	ldrb	r3, [r7, #7]
 80028ae:	4618      	mov	r0, r3
 80028b0:	f7fe fe20 	bl	80014f4 <LCD_SetPageIfAllowed>
 80028b4:	4603      	mov	r3, r0
 80028b6:	2b00      	cmp	r3, #0
 80028b8:	d058      	beq.n	800296c <LCD_ShowSensorPage+0x19c>
            lcd_set_icon(IA_SEL_COMBO_HEIGHT, 0);
 80028ba:	2100      	movs	r1, #0
 80028bc:	2049      	movs	r0, #73	@ 0x49
 80028be:	f7fe fadf 	bl	8000e80 <lcd_set_icon>
            for(uint8_t i = 0; i < 7; i++)
 80028c2:	2300      	movs	r3, #0
 80028c4:	73bb      	strb	r3, [r7, #14]
 80028c6:	e00d      	b.n	80028e4 <LCD_ShowSensorPage+0x114>
                lcd_set_state_value16(comboHeightVP[i], comboHeightVal[i]);
 80028c8:	7bbb      	ldrb	r3, [r7, #14]
 80028ca:	4a30      	ldr	r2, [pc, #192]	@ (800298c <LCD_ShowSensorPage+0x1bc>)
 80028cc:	5cd2      	ldrb	r2, [r2, r3]
 80028ce:	7bbb      	ldrb	r3, [r7, #14]
 80028d0:	492d      	ldr	r1, [pc, #180]	@ (8002988 <LCD_ShowSensorPage+0x1b8>)
 80028d2:	f831 3013 	ldrh.w	r3, [r1, r3, lsl #1]
 80028d6:	4619      	mov	r1, r3
 80028d8:	4610      	mov	r0, r2
 80028da:	f7fe fafd 	bl	8000ed8 <lcd_set_state_value16>
            for(uint8_t i = 0; i < 7; i++)
 80028de:	7bbb      	ldrb	r3, [r7, #14]
 80028e0:	3301      	adds	r3, #1
 80028e2:	73bb      	strb	r3, [r7, #14]
 80028e4:	7bbb      	ldrb	r3, [r7, #14]
 80028e6:	2b06      	cmp	r3, #6
 80028e8:	d9ee      	bls.n	80028c8 <LCD_ShowSensorPage+0xf8>
            break;
 80028ea:	e040      	b.n	800296e <LCD_ShowSensorPage+0x19e>

        case GOBACK_ACCEPT:
            uiState        = UI_COMBO_ACCEPT;
 80028ec:	4b23      	ldr	r3, [pc, #140]	@ (800297c <LCD_ShowSensorPage+0x1ac>)
 80028ee:	220a      	movs	r2, #10
 80028f0:	701a      	strb	r2, [r3, #0]
            selComboAccept = 0;
 80028f2:	4b27      	ldr	r3, [pc, #156]	@ (8002990 <LCD_ShowSensorPage+0x1c0>)
 80028f4:	2200      	movs	r2, #0
 80028f6:	701a      	strb	r2, [r3, #0]
            lcd_set_page(page);
 80028f8:	79fb      	ldrb	r3, [r7, #7]
 80028fa:	4618      	mov	r0, r3
 80028fc:	f7fe fa76 	bl	8000dec <lcd_set_page>
            lcd_set_icon(IA_SEL_COMBO_ACCEPT, 0);
 8002900:	2100      	movs	r1, #0
 8002902:	204a      	movs	r0, #74	@ 0x4a
 8002904:	f7fe fabc 	bl	8000e80 <lcd_set_icon>
            for(uint8_t i = 0; i < ACCEPT_EDIT_COUNT; i++)
 8002908:	2300      	movs	r3, #0
 800290a:	737b      	strb	r3, [r7, #13]
 800290c:	e006      	b.n	800291c <LCD_ShowSensorPage+0x14c>
                LCD_PushEditValue(i);
 800290e:	7b7b      	ldrb	r3, [r7, #13]
 8002910:	4618      	mov	r0, r3
 8002912:	f7fe fe9f 	bl	8001654 <LCD_PushEditValue>
            for(uint8_t i = 0; i < ACCEPT_EDIT_COUNT; i++)
 8002916:	7b7b      	ldrb	r3, [r7, #13]
 8002918:	3301      	adds	r3, #1
 800291a:	737b      	strb	r3, [r7, #13]
 800291c:	7b7b      	ldrb	r3, [r7, #13]
 800291e:	2b07      	cmp	r3, #7
 8002920:	d9f5      	bls.n	800290e <LCD_ShowSensorPage+0x13e>
            break;
 8002922:	e024      	b.n	800296e <LCD_ShowSensorPage+0x19e>

        case MOMORY:
            uiState    = UI_MEMORY;
 8002924:	4b15      	ldr	r3, [pc, #84]	@ (800297c <LCD_ShowSensorPage+0x1ac>)
 8002926:	220b      	movs	r2, #11
 8002928:	701a      	strb	r2, [r3, #0]
            selMemory  = 0;
 800292a:	4b1a      	ldr	r3, [pc, #104]	@ (8002994 <LCD_ShowSensorPage+0x1c4>)
 800292c:	2200      	movs	r2, #0
 800292e:	701a      	strb	r2, [r3, #0]
            memoryMode = MEM_MODE_RECALL;
 8002930:	4b19      	ldr	r3, [pc, #100]	@ (8002998 <LCD_ShowSensorPage+0x1c8>)
 8002932:	2202      	movs	r2, #2
 8002934:	701a      	strb	r2, [r3, #0]
            LCD_Memory_SeedPage();
 8002936:	f7fe fec5 	bl	80016c4 <LCD_Memory_SeedPage>
            break;
 800293a:	e018      	b.n	800296e <LCD_ShowSensorPage+0x19e>

        case PAGE_SETTING:
            uiState    = UI_SETTING;
 800293c:	4b0f      	ldr	r3, [pc, #60]	@ (800297c <LCD_ShowSensorPage+0x1ac>)
 800293e:	2205      	movs	r2, #5
 8002940:	701a      	strb	r2, [r3, #0]
            selSetting = 0;
 8002942:	4b16      	ldr	r3, [pc, #88]	@ (800299c <LCD_ShowSensorPage+0x1cc>)
 8002944:	2200      	movs	r2, #0
 8002946:	701a      	strb	r2, [r3, #0]
            lcd_set_page(page);
 8002948:	79fb      	ldrb	r3, [r7, #7]
 800294a:	4618      	mov	r0, r3
 800294c:	f7fe fa4e 	bl	8000dec <lcd_set_page>
            lcd_set_icon(IA_SETTING, 0);
 8002950:	2100      	movs	r1, #0
 8002952:	2056      	movs	r0, #86	@ 0x56
 8002954:	f7fe fa94 	bl	8000e80 <lcd_set_icon>
            break;
 8002958:	e009      	b.n	800296e <LCD_ShowSensorPage+0x19e>

        default:
            (void)LCD_SetPageIfAllowed(page);
 800295a:	79fb      	ldrb	r3, [r7, #7]
 800295c:	4618      	mov	r0, r3
 800295e:	f7fe fdc9 	bl	80014f4 <LCD_SetPageIfAllowed>
            break;
 8002962:	e004      	b.n	800296e <LCD_ShowSensorPage+0x19e>
    if(!lcdPowerOn || lcdLocked) return;
 8002964:	bf00      	nop
 8002966:	e002      	b.n	800296e <LCD_ShowSensorPage+0x19e>
            if(!LCD_PageAllowed(GOBACK_HEIGHT)) return;
 8002968:	bf00      	nop
 800296a:	e000      	b.n	800296e <LCD_ShowSensorPage+0x19e>
            if(!LCD_SetPageIfAllowed(page)) return;
 800296c:	bf00      	nop
    }
}
 800296e:	3710      	adds	r7, #16
 8002970:	46bd      	mov	sp, r7
 8002972:	bd80      	pop	{r7, pc}
 8002974:	20000002 	.word	0x20000002
 8002978:	20000251 	.word	0x20000251
 800297c:	2000022c 	.word	0x2000022c
 8002980:	20000252 	.word	0x20000252
 8002984:	20000253 	.word	0x20000253
 8002988:	20000260 	.word	0x20000260
 800298c:	080070c8 	.word	0x080070c8
 8002990:	20000254 	.word	0x20000254
 8002994:	20000256 	.word	0x20000256
 8002998:	20000003 	.word	0x20000003
 800299c:	2000023d 	.word	0x2000023d

080029a0 <LCD_ShowMemoryPage>:

void LCD_ShowMemoryPage(uint8_t mode)
{
 80029a0:	b580      	push	{r7, lr}
 80029a2:	b082      	sub	sp, #8
 80029a4:	af00      	add	r7, sp, #0
 80029a6:	4603      	mov	r3, r0
 80029a8:	71fb      	strb	r3, [r7, #7]
    if(!lcdPowerOn || lcdLocked) return;
 80029aa:	4b0c      	ldr	r3, [pc, #48]	@ (80029dc <LCD_ShowMemoryPage+0x3c>)
 80029ac:	781b      	ldrb	r3, [r3, #0]
 80029ae:	2b00      	cmp	r3, #0
 80029b0:	d00f      	beq.n	80029d2 <LCD_ShowMemoryPage+0x32>
 80029b2:	4b0b      	ldr	r3, [pc, #44]	@ (80029e0 <LCD_ShowMemoryPage+0x40>)
 80029b4:	781b      	ldrb	r3, [r3, #0]
 80029b6:	2b00      	cmp	r3, #0
 80029b8:	d10b      	bne.n	80029d2 <LCD_ShowMemoryPage+0x32>
    uiState    = UI_MEMORY;
 80029ba:	4b0a      	ldr	r3, [pc, #40]	@ (80029e4 <LCD_ShowMemoryPage+0x44>)
 80029bc:	220b      	movs	r2, #11
 80029be:	701a      	strb	r2, [r3, #0]
    selMemory  = 0;
 80029c0:	4b09      	ldr	r3, [pc, #36]	@ (80029e8 <LCD_ShowMemoryPage+0x48>)
 80029c2:	2200      	movs	r2, #0
 80029c4:	701a      	strb	r2, [r3, #0]
    memoryMode = mode;
 80029c6:	4a09      	ldr	r2, [pc, #36]	@ (80029ec <LCD_ShowMemoryPage+0x4c>)
 80029c8:	79fb      	ldrb	r3, [r7, #7]
 80029ca:	7013      	strb	r3, [r2, #0]
    LCD_Memory_SeedPage();
 80029cc:	f7fe fe7a 	bl	80016c4 <LCD_Memory_SeedPage>
 80029d0:	e000      	b.n	80029d4 <LCD_ShowMemoryPage+0x34>
    if(!lcdPowerOn || lcdLocked) return;
 80029d2:	bf00      	nop
}
 80029d4:	3708      	adds	r7, #8
 80029d6:	46bd      	mov	sp, r7
 80029d8:	bd80      	pop	{r7, pc}
 80029da:	bf00      	nop
 80029dc:	20000002 	.word	0x20000002
 80029e0:	20000251 	.word	0x20000251
 80029e4:	2000022c 	.word	0x2000022c
 80029e8:	20000256 	.word	0x20000256
 80029ec:	20000003 	.word	0x20000003

080029f0 <LCD_RefreshHeightPage>:

/* ======================================================================
 * GoBack+HeightDn live sensor update
 * ====================================================================== */
void LCD_RefreshHeightPage(uint8_t actual_height, uint8_t slide)
{
 80029f0:	b580      	push	{r7, lr}
 80029f2:	b082      	sub	sp, #8
 80029f4:	af00      	add	r7, sp, #0
 80029f6:	4603      	mov	r3, r0
 80029f8:	460a      	mov	r2, r1
 80029fa:	71fb      	strb	r3, [r7, #7]
 80029fc:	4613      	mov	r3, r2
 80029fe:	71bb      	strb	r3, [r7, #6]
    comboHeightVal[0] = actual_height;
 8002a00:	79fb      	ldrb	r3, [r7, #7]
 8002a02:	b29a      	uxth	r2, r3
 8002a04:	4b1d      	ldr	r3, [pc, #116]	@ (8002a7c <LCD_RefreshHeightPage+0x8c>)
 8002a06:	801a      	strh	r2, [r3, #0]
    comboHeightVal[3] = slide;
 8002a08:	79bb      	ldrb	r3, [r7, #6]
 8002a0a:	b29a      	uxth	r2, r3
 8002a0c:	4b1b      	ldr	r3, [pc, #108]	@ (8002a7c <LCD_RefreshHeightPage+0x8c>)
 8002a0e:	80da      	strh	r2, [r3, #6]
    comboHeightVal[2] = comboHeightVal[0] + comboHeightVal[1];
 8002a10:	4b1a      	ldr	r3, [pc, #104]	@ (8002a7c <LCD_RefreshHeightPage+0x8c>)
 8002a12:	881a      	ldrh	r2, [r3, #0]
 8002a14:	4b19      	ldr	r3, [pc, #100]	@ (8002a7c <LCD_RefreshHeightPage+0x8c>)
 8002a16:	885b      	ldrh	r3, [r3, #2]
 8002a18:	4413      	add	r3, r2
 8002a1a:	b29a      	uxth	r2, r3
 8002a1c:	4b17      	ldr	r3, [pc, #92]	@ (8002a7c <LCD_RefreshHeightPage+0x8c>)
 8002a1e:	809a      	strh	r2, [r3, #4]
    comboHeightVal[5] = comboHeightVal[3] + comboHeightVal[4];
 8002a20:	4b16      	ldr	r3, [pc, #88]	@ (8002a7c <LCD_RefreshHeightPage+0x8c>)
 8002a22:	88da      	ldrh	r2, [r3, #6]
 8002a24:	4b15      	ldr	r3, [pc, #84]	@ (8002a7c <LCD_RefreshHeightPage+0x8c>)
 8002a26:	891b      	ldrh	r3, [r3, #8]
 8002a28:	4413      	add	r3, r2
 8002a2a:	b29a      	uxth	r2, r3
 8002a2c:	4b13      	ldr	r3, [pc, #76]	@ (8002a7c <LCD_RefreshHeightPage+0x8c>)
 8002a2e:	815a      	strh	r2, [r3, #10]
    if(uiState != UI_COMBO_HEIGHT) return;
 8002a30:	4b13      	ldr	r3, [pc, #76]	@ (8002a80 <LCD_RefreshHeightPage+0x90>)
 8002a32:	781b      	ldrb	r3, [r3, #0]
 8002a34:	2b09      	cmp	r3, #9
 8002a36:	d11c      	bne.n	8002a72 <LCD_RefreshHeightPage+0x82>
    lcd_set_state_value16(comboHeightVP[0], comboHeightVal[0]);
 8002a38:	226a      	movs	r2, #106	@ 0x6a
 8002a3a:	4b10      	ldr	r3, [pc, #64]	@ (8002a7c <LCD_RefreshHeightPage+0x8c>)
 8002a3c:	881b      	ldrh	r3, [r3, #0]
 8002a3e:	4619      	mov	r1, r3
 8002a40:	4610      	mov	r0, r2
 8002a42:	f7fe fa49 	bl	8000ed8 <lcd_set_state_value16>
    lcd_set_state_value16(comboHeightVP[2], comboHeightVal[2]);
 8002a46:	226c      	movs	r2, #108	@ 0x6c
 8002a48:	4b0c      	ldr	r3, [pc, #48]	@ (8002a7c <LCD_RefreshHeightPage+0x8c>)
 8002a4a:	889b      	ldrh	r3, [r3, #4]
 8002a4c:	4619      	mov	r1, r3
 8002a4e:	4610      	mov	r0, r2
 8002a50:	f7fe fa42 	bl	8000ed8 <lcd_set_state_value16>
    lcd_set_state_value16(comboHeightVP[3], comboHeightVal[3]);
 8002a54:	226d      	movs	r2, #109	@ 0x6d
 8002a56:	4b09      	ldr	r3, [pc, #36]	@ (8002a7c <LCD_RefreshHeightPage+0x8c>)
 8002a58:	88db      	ldrh	r3, [r3, #6]
 8002a5a:	4619      	mov	r1, r3
 8002a5c:	4610      	mov	r0, r2
 8002a5e:	f7fe fa3b 	bl	8000ed8 <lcd_set_state_value16>
    lcd_set_state_value16(comboHeightVP[5], comboHeightVal[5]);
 8002a62:	226f      	movs	r2, #111	@ 0x6f
 8002a64:	4b05      	ldr	r3, [pc, #20]	@ (8002a7c <LCD_RefreshHeightPage+0x8c>)
 8002a66:	895b      	ldrh	r3, [r3, #10]
 8002a68:	4619      	mov	r1, r3
 8002a6a:	4610      	mov	r0, r2
 8002a6c:	f7fe fa34 	bl	8000ed8 <lcd_set_state_value16>
 8002a70:	e000      	b.n	8002a74 <LCD_RefreshHeightPage+0x84>
    if(uiState != UI_COMBO_HEIGHT) return;
 8002a72:	bf00      	nop
}
 8002a74:	3708      	adds	r7, #8
 8002a76:	46bd      	mov	sp, r7
 8002a78:	bd80      	pop	{r7, pc}
 8002a7a:	bf00      	nop
 8002a7c:	20000260 	.word	0x20000260
 8002a80:	2000022c 	.word	0x2000022c

08002a84 <LCD_PushRTP1Values>:
 * ====================================================================== */
void LCD_PushRTP1Values(uint8_t height, uint8_t slide,
                        uint8_t back_up, uint8_t back_dn,
                        uint8_t tilt_l,  uint8_t tilt_r,
                        uint8_t trend,   uint8_t rev_trend)
{
 8002a84:	b590      	push	{r4, r7, lr}
 8002a86:	b083      	sub	sp, #12
 8002a88:	af00      	add	r7, sp, #0
 8002a8a:	4604      	mov	r4, r0
 8002a8c:	4608      	mov	r0, r1
 8002a8e:	4611      	mov	r1, r2
 8002a90:	461a      	mov	r2, r3
 8002a92:	4623      	mov	r3, r4
 8002a94:	71fb      	strb	r3, [r7, #7]
 8002a96:	4603      	mov	r3, r0
 8002a98:	71bb      	strb	r3, [r7, #6]
 8002a9a:	460b      	mov	r3, r1
 8002a9c:	717b      	strb	r3, [r7, #5]
 8002a9e:	4613      	mov	r3, r2
 8002aa0:	713b      	strb	r3, [r7, #4]
    rtp1Val[0]=height;   rtp1Val[1]=slide;    rtp1Val[2]=back_up;
 8002aa2:	4a12      	ldr	r2, [pc, #72]	@ (8002aec <LCD_PushRTP1Values+0x68>)
 8002aa4:	79fb      	ldrb	r3, [r7, #7]
 8002aa6:	7013      	strb	r3, [r2, #0]
 8002aa8:	4a10      	ldr	r2, [pc, #64]	@ (8002aec <LCD_PushRTP1Values+0x68>)
 8002aaa:	79bb      	ldrb	r3, [r7, #6]
 8002aac:	7053      	strb	r3, [r2, #1]
 8002aae:	4a0f      	ldr	r2, [pc, #60]	@ (8002aec <LCD_PushRTP1Values+0x68>)
 8002ab0:	797b      	ldrb	r3, [r7, #5]
 8002ab2:	7093      	strb	r3, [r2, #2]
    rtp1Val[3]=back_dn;  rtp1Val[4]=tilt_l;   rtp1Val[5]=tilt_r;
 8002ab4:	4a0d      	ldr	r2, [pc, #52]	@ (8002aec <LCD_PushRTP1Values+0x68>)
 8002ab6:	793b      	ldrb	r3, [r7, #4]
 8002ab8:	70d3      	strb	r3, [r2, #3]
 8002aba:	4a0c      	ldr	r2, [pc, #48]	@ (8002aec <LCD_PushRTP1Values+0x68>)
 8002abc:	7e3b      	ldrb	r3, [r7, #24]
 8002abe:	7113      	strb	r3, [r2, #4]
 8002ac0:	4a0a      	ldr	r2, [pc, #40]	@ (8002aec <LCD_PushRTP1Values+0x68>)
 8002ac2:	7f3b      	ldrb	r3, [r7, #28]
 8002ac4:	7153      	strb	r3, [r2, #5]
    rtp1Val[6]=trend;    rtp1Val[7]=rev_trend;
 8002ac6:	4a09      	ldr	r2, [pc, #36]	@ (8002aec <LCD_PushRTP1Values+0x68>)
 8002ac8:	f897 3020 	ldrb.w	r3, [r7, #32]
 8002acc:	7193      	strb	r3, [r2, #6]
 8002ace:	4a07      	ldr	r2, [pc, #28]	@ (8002aec <LCD_PushRTP1Values+0x68>)
 8002ad0:	f897 3024 	ldrb.w	r3, [r7, #36]	@ 0x24
 8002ad4:	71d3      	strb	r3, [r2, #7]
    if(uiState == UI_RTP1) LCD_RTP1_Seed();
 8002ad6:	4b06      	ldr	r3, [pc, #24]	@ (8002af0 <LCD_PushRTP1Values+0x6c>)
 8002ad8:	781b      	ldrb	r3, [r3, #0]
 8002ada:	2b02      	cmp	r3, #2
 8002adc:	d101      	bne.n	8002ae2 <LCD_PushRTP1Values+0x5e>
 8002ade:	f7fe fd65 	bl	80015ac <LCD_RTP1_Seed>
}
 8002ae2:	bf00      	nop
 8002ae4:	370c      	adds	r7, #12
 8002ae6:	46bd      	mov	sp, r7
 8002ae8:	bd90      	pop	{r4, r7, pc}
 8002aea:	bf00      	nop
 8002aec:	20000234 	.word	0x20000234
 8002af0:	2000022c 	.word	0x2000022c

08002af4 <LCD_UpdateBattery>:

/* ======================================================================
 * Battery API
 * ====================================================================== */
void LCD_UpdateBattery(uint8_t level)
{
 8002af4:	b580      	push	{r7, lr}
 8002af6:	b082      	sub	sp, #8
 8002af8:	af00      	add	r7, sp, #0
 8002afa:	4603      	mov	r3, r0
 8002afc:	71fb      	strb	r3, [r7, #7]
    if(level > 4) level = 4;
 8002afe:	79fb      	ldrb	r3, [r7, #7]
 8002b00:	2b04      	cmp	r3, #4
 8002b02:	d901      	bls.n	8002b08 <LCD_UpdateBattery+0x14>
 8002b04:	2304      	movs	r3, #4
 8002b06:	71fb      	strb	r3, [r7, #7]
    batteryLevel = level;
 8002b08:	4a08      	ldr	r2, [pc, #32]	@ (8002b2c <LCD_UpdateBattery+0x38>)
 8002b0a:	79fb      	ldrb	r3, [r7, #7]
 8002b0c:	7013      	strb	r3, [r2, #0]
    if(uiState == UI_BATTERY) lcd_set_icon(IA_BATTERY, batteryLevel);
 8002b0e:	4b08      	ldr	r3, [pc, #32]	@ (8002b30 <LCD_UpdateBattery+0x3c>)
 8002b10:	781b      	ldrb	r3, [r3, #0]
 8002b12:	2b04      	cmp	r3, #4
 8002b14:	d105      	bne.n	8002b22 <LCD_UpdateBattery+0x2e>
 8002b16:	4b05      	ldr	r3, [pc, #20]	@ (8002b2c <LCD_UpdateBattery+0x38>)
 8002b18:	781b      	ldrb	r3, [r3, #0]
 8002b1a:	4619      	mov	r1, r3
 8002b1c:	2055      	movs	r0, #85	@ 0x55
 8002b1e:	f7fe f9af 	bl	8000e80 <lcd_set_icon>
}
 8002b22:	bf00      	nop
 8002b24:	3708      	adds	r7, #8
 8002b26:	46bd      	mov	sp, r7
 8002b28:	bd80      	pop	{r7, pc}
 8002b2a:	bf00      	nop
 8002b2c:	2000023c 	.word	0x2000023c
 8002b30:	2000022c 	.word	0x2000022c

08002b34 <main>:
/**
  * @brief  The application entry point.
  * @retval int
  */
int main(void)
{
 8002b34:	b580      	push	{r7, lr}
 8002b36:	af00      	add	r7, sp, #0
  /* USER CODE END 1 */

  /* MCU Configuration--------------------------------------------------------*/

  /* Reset of all peripherals, Initializes the Flash interface and the Systick. */
  HAL_Init();
 8002b38:	f001 f9b6 	bl	8003ea8 <HAL_Init>
  /* USER CODE BEGIN Init */

  /* USER CODE END Init */

  /* Configure the system clock */
  SystemClock_Config();
 8002b3c:	f000 f86a 	bl	8002c14 <SystemClock_Config>
  /* USER CODE BEGIN SysInit */

  /* USER CODE END SysInit */

  /* Initialize all configured peripherals */
  MX_GPIO_Init();
 8002b40:	f000 f98a 	bl	8002e58 <MX_GPIO_Init>
  MX_CAN_Init();
 8002b44:	f000 f8a8 	bl	8002c98 <MX_CAN_Init>
  MX_USART1_UART_Init();
 8002b48:	f000 f908 	bl	8002d5c <MX_USART1_UART_Init>
  MX_USART2_UART_Init();
 8002b4c:	f000 f930 	bl	8002db0 <MX_USART2_UART_Init>
  MX_USART3_UART_Init();
 8002b50:	f000 f958 	bl	8002e04 <MX_USART3_UART_Init>
  MX_I2C1_Init();
 8002b54:	f000 f8d4 	bl	8002d00 <MX_I2C1_Init>
  /* ----------------------------------------------------------------
   * FIX: Explicitly set relay OFF at boot before any module init.
   * This guarantees the relay pin is in a known state even if
   * MX_GPIO_Init() default-LOW was not sufficient (e.g. glitch).
   * ---------------------------------------------------------------- */
  RELAY_SET(0);
 8002b58:	2200      	movs	r2, #0
 8002b5a:	2102      	movs	r1, #2
 8002b5c:	4827      	ldr	r0, [pc, #156]	@ (8002bfc <main+0xc8>)
 8002b5e:	f001 fe80 	bl	8004862 <HAL_GPIO_WritePin>
   *   huart1 → Debug/aux  (USART1 = PA9 TX / PA10 RX)
   *
   * If your hardware has different wiring, swap handles here —
   * DO NOT change the UART init functions.
   * ---------------------------------------------------------------- */
  LCD_HMI_Init(&huart2);
 8002b62:	4827      	ldr	r0, [pc, #156]	@ (8002c00 <main+0xcc>)
 8002b64:	f7fe f900 	bl	8000d68 <LCD_HMI_Init>
  Sensor_Init();
 8002b68:	f000 fcc6 	bl	80034f8 <Sensor_Init>
  ACTION_COMM_Init(&huart3, &huart1);   /* starts HAL_UART_Receive_IT */
 8002b6c:	4925      	ldr	r1, [pc, #148]	@ (8002c04 <main+0xd0>)
 8002b6e:	4826      	ldr	r0, [pc, #152]	@ (8002c08 <main+0xd4>)
 8002b70:	f7fd fb4e 	bl	8000210 <ACTION_COMM_Init>

  /* Drive all column outputs LOW before matrix scan starts */
  HAL_GPIO_WritePin(C1_GPIO_Port, C1_Pin, GPIO_PIN_RESET);
 8002b74:	2200      	movs	r2, #0
 8002b76:	2110      	movs	r1, #16
 8002b78:	4820      	ldr	r0, [pc, #128]	@ (8002bfc <main+0xc8>)
 8002b7a:	f001 fe72 	bl	8004862 <HAL_GPIO_WritePin>
  HAL_GPIO_WritePin(C2_GPIO_Port, C2_Pin, GPIO_PIN_RESET);
 8002b7e:	2200      	movs	r2, #0
 8002b80:	2120      	movs	r1, #32
 8002b82:	481e      	ldr	r0, [pc, #120]	@ (8002bfc <main+0xc8>)
 8002b84:	f001 fe6d 	bl	8004862 <HAL_GPIO_WritePin>
  HAL_GPIO_WritePin(C3_GPIO_Port, C3_Pin, GPIO_PIN_RESET);
 8002b88:	2200      	movs	r2, #0
 8002b8a:	2140      	movs	r1, #64	@ 0x40
 8002b8c:	481b      	ldr	r0, [pc, #108]	@ (8002bfc <main+0xc8>)
 8002b8e:	f001 fe68 	bl	8004862 <HAL_GPIO_WritePin>
  HAL_GPIO_WritePin(C4_GPIO_Port, C4_Pin, GPIO_PIN_RESET);
 8002b92:	2200      	movs	r2, #0
 8002b94:	2180      	movs	r1, #128	@ 0x80
 8002b96:	4819      	ldr	r0, [pc, #100]	@ (8002bfc <main+0xc8>)
 8002b98:	f001 fe63 	bl	8004862 <HAL_GPIO_WritePin>
  HAL_GPIO_WritePin(C5_GPIO_Port, C5_Pin, GPIO_PIN_RESET);
 8002b9c:	2200      	movs	r2, #0
 8002b9e:	2101      	movs	r1, #1
 8002ba0:	481a      	ldr	r0, [pc, #104]	@ (8002c0c <main+0xd8>)
 8002ba2:	f001 fe5e 	bl	8004862 <HAL_GPIO_WritePin>
  HAL_GPIO_WritePin(C6_GPIO_Port, C6_Pin, GPIO_PIN_RESET);
 8002ba6:	2200      	movs	r2, #0
 8002ba8:	2102      	movs	r1, #2
 8002baa:	4818      	ldr	r0, [pc, #96]	@ (8002c0c <main+0xd8>)
 8002bac:	f001 fe59 	bl	8004862 <HAL_GPIO_WritePin>
  HAL_GPIO_WritePin(C7_GPIO_Port, C7_Pin, GPIO_PIN_RESET);
 8002bb0:	2200      	movs	r2, #0
 8002bb2:	2104      	movs	r1, #4
 8002bb4:	4815      	ldr	r0, [pc, #84]	@ (8002c0c <main+0xd8>)
 8002bb6:	f001 fe54 	bl	8004862 <HAL_GPIO_WritePin>
   * FIX: Turn relay ON before startup sequence so the DWIN display
   * has power during the logo animation. Previous code only called
   * RELAY_SET inside LCD_TogglePower() which is a toggle — at boot
   * lcdPowerOn is already 1 so the relay was never explicitly set.
   * ---------------------------------------------------------------- */
  RELAY_SET(1);
 8002bba:	2201      	movs	r2, #1
 8002bbc:	2102      	movs	r1, #2
 8002bbe:	480f      	ldr	r0, [pc, #60]	@ (8002bfc <main+0xc8>)
 8002bc0:	f001 fe4f 	bl	8004862 <HAL_GPIO_WritePin>

  /* Small delay to let DWIN boot after power rail stabilises */
  HAL_Delay(100);
 8002bc4:	2064      	movs	r0, #100	@ 0x64
 8002bc6:	f001 f9d1 	bl	8003f6c <HAL_Delay>

  LCD_ShowStartupSequence();
 8002bca:	f7fe fa5f 	bl	800108c <LCD_ShowStartupSequence>
   * RTC_SetDateTime(yy,mm,dd,hh,mm,ss) once a real time source exists.
   *
   * NOTE (DWIN side): the .HMI project must have an RTC display control
   * bound to VP 0x0010 on the page(s) that should show the clock.
   * ---------------------------------------------------------------- */
  RTC_Init(&huart2);
 8002bce:	480c      	ldr	r0, [pc, #48]	@ (8002c00 <main+0xcc>)
 8002bd0:	f000 fac2 	bl	8003158 <RTC_Init>
  RTC_SetRandom();
 8002bd4:	f000 fb60 	bl	8003298 <RTC_SetRandom>

  /* Infinite loop */
  /* USER CODE BEGIN WHILE */
  while (1)
  {
      BUTTON_MATRIX_Scan();
 8002bd8:	f7fd fdb4 	bl	8000744 <BUTTON_MATRIX_Scan>
      Sensor_UpdateDisplay();
 8002bdc:	f000 fd54 	bl	8003688 <Sensor_UpdateDisplay>
      ACTION_COMM_Task();          /* edge detect: open/clear on transition */
 8002be0:	f7fd fd5c 	bl	800069c <ACTION_COMM_Task>
      LCD_Task();
 8002be4:	f7ff fda0 	bl	8002728 <LCD_Task>
      RTC_Tick();                  /* RTC writes here (may blank the icon)  */
 8002be8:	f000 fc68 	bl	80034bc <RTC_Tick>
      RTC_GetTime((RTC_Time_t *)&g_ctest.rtc);
 8002bec:	4808      	ldr	r0, [pc, #32]	@ (8002c10 <main+0xdc>)
 8002bee:	f000 fbd1 	bl	8003394 <RTC_GetTime>

      LCD_CollisionAlertRefresh(); /* LAST: re-assert icon so it wins the frame */
 8002bf2:	f7fe fb8f 	bl	8001314 <LCD_CollisionAlertRefresh>
      BUTTON_MATRIX_Scan();
 8002bf6:	bf00      	nop
 8002bf8:	e7ee      	b.n	8002bd8 <main+0xa4>
 8002bfa:	bf00      	nop
 8002bfc:	40010800 	.word	0x40010800
 8002c00:	20000350 	.word	0x20000350
 8002c04:	20000308 	.word	0x20000308
 8002c08:	20000398 	.word	0x20000398
 8002c0c:	40010c00 	.word	0x40010c00
 8002c10:	200003e0 	.word	0x200003e0

08002c14 <SystemClock_Config>:
/**
  * @brief System Clock Configuration
  * @retval None
  */
void SystemClock_Config(void)
{
 8002c14:	b580      	push	{r7, lr}
 8002c16:	b090      	sub	sp, #64	@ 0x40
 8002c18:	af00      	add	r7, sp, #0
  RCC_OscInitTypeDef RCC_OscInitStruct = {0};
 8002c1a:	f107 0318 	add.w	r3, r7, #24
 8002c1e:	2228      	movs	r2, #40	@ 0x28
 8002c20:	2100      	movs	r1, #0
 8002c22:	4618      	mov	r0, r3
 8002c24:	f003 fb5d 	bl	80062e2 <memset>
  RCC_ClkInitTypeDef RCC_ClkInitStruct = {0};
 8002c28:	1d3b      	adds	r3, r7, #4
 8002c2a:	2200      	movs	r2, #0
 8002c2c:	601a      	str	r2, [r3, #0]
 8002c2e:	605a      	str	r2, [r3, #4]
 8002c30:	609a      	str	r2, [r3, #8]
 8002c32:	60da      	str	r2, [r3, #12]
 8002c34:	611a      	str	r2, [r3, #16]

  /** Initializes the RCC Oscillators according to the specified parameters
  * in the RCC_OscInitTypeDef structure.
  */
  RCC_OscInitStruct.OscillatorType = RCC_OSCILLATORTYPE_HSI;
 8002c36:	2302      	movs	r3, #2
 8002c38:	61bb      	str	r3, [r7, #24]
  RCC_OscInitStruct.HSIState = RCC_HSI_ON;
 8002c3a:	2301      	movs	r3, #1
 8002c3c:	62bb      	str	r3, [r7, #40]	@ 0x28
  RCC_OscInitStruct.HSICalibrationValue = RCC_HSICALIBRATION_DEFAULT;
 8002c3e:	2310      	movs	r3, #16
 8002c40:	62fb      	str	r3, [r7, #44]	@ 0x2c
  RCC_OscInitStruct.PLL.PLLState = RCC_PLL_ON;
 8002c42:	2302      	movs	r3, #2
 8002c44:	637b      	str	r3, [r7, #52]	@ 0x34
  RCC_OscInitStruct.PLL.PLLSource = RCC_PLLSOURCE_HSI_DIV2;
 8002c46:	2300      	movs	r3, #0
 8002c48:	63bb      	str	r3, [r7, #56]	@ 0x38
  RCC_OscInitStruct.PLL.PLLMUL = RCC_PLL_MUL16;
 8002c4a:	f44f 1360 	mov.w	r3, #3670016	@ 0x380000
 8002c4e:	63fb      	str	r3, [r7, #60]	@ 0x3c
  if (HAL_RCC_OscConfig(&RCC_OscInitStruct) != HAL_OK)
 8002c50:	f107 0318 	add.w	r3, r7, #24
 8002c54:	4618      	mov	r0, r3
 8002c56:	f001 ff61 	bl	8004b1c <HAL_RCC_OscConfig>
 8002c5a:	4603      	mov	r3, r0
 8002c5c:	2b00      	cmp	r3, #0
 8002c5e:	d001      	beq.n	8002c64 <SystemClock_Config+0x50>
  {
    Error_Handler();
 8002c60:	f000 f97e 	bl	8002f60 <Error_Handler>
  }

  /** Initializes the CPU, AHB and APB buses clocks
  */
  RCC_ClkInitStruct.ClockType = RCC_CLOCKTYPE_HCLK|RCC_CLOCKTYPE_SYSCLK
 8002c64:	230f      	movs	r3, #15
 8002c66:	607b      	str	r3, [r7, #4]
                              |RCC_CLOCKTYPE_PCLK1|RCC_CLOCKTYPE_PCLK2;
  RCC_ClkInitStruct.SYSCLKSource = RCC_SYSCLKSOURCE_PLLCLK;
 8002c68:	2302      	movs	r3, #2
 8002c6a:	60bb      	str	r3, [r7, #8]
  RCC_ClkInitStruct.AHBCLKDivider = RCC_SYSCLK_DIV1;
 8002c6c:	2300      	movs	r3, #0
 8002c6e:	60fb      	str	r3, [r7, #12]
  RCC_ClkInitStruct.APB1CLKDivider = RCC_HCLK_DIV2;
 8002c70:	f44f 6380 	mov.w	r3, #1024	@ 0x400
 8002c74:	613b      	str	r3, [r7, #16]
  RCC_ClkInitStruct.APB2CLKDivider = RCC_HCLK_DIV1;
 8002c76:	2300      	movs	r3, #0
 8002c78:	617b      	str	r3, [r7, #20]

  if (HAL_RCC_ClockConfig(&RCC_ClkInitStruct, FLASH_LATENCY_2) != HAL_OK)
 8002c7a:	1d3b      	adds	r3, r7, #4
 8002c7c:	2102      	movs	r1, #2
 8002c7e:	4618      	mov	r0, r3
 8002c80:	f002 f9ce 	bl	8005020 <HAL_RCC_ClockConfig>
 8002c84:	4603      	mov	r3, r0
 8002c86:	2b00      	cmp	r3, #0
 8002c88:	d001      	beq.n	8002c8e <SystemClock_Config+0x7a>
  {
    Error_Handler();
 8002c8a:	f000 f969 	bl	8002f60 <Error_Handler>
  }
}
 8002c8e:	bf00      	nop
 8002c90:	3740      	adds	r7, #64	@ 0x40
 8002c92:	46bd      	mov	sp, r7
 8002c94:	bd80      	pop	{r7, pc}
	...

08002c98 <MX_CAN_Init>:
  * @brief CAN Initialization Function
  * @param None
  * @retval None
  */
static void MX_CAN_Init(void)
{
 8002c98:	b580      	push	{r7, lr}
 8002c9a:	af00      	add	r7, sp, #0
  /* USER CODE END CAN_Init 0 */

  /* USER CODE BEGIN CAN_Init 1 */

  /* USER CODE END CAN_Init 1 */
  hcan.Instance = CAN1;
 8002c9c:	4b16      	ldr	r3, [pc, #88]	@ (8002cf8 <MX_CAN_Init+0x60>)
 8002c9e:	4a17      	ldr	r2, [pc, #92]	@ (8002cfc <MX_CAN_Init+0x64>)
 8002ca0:	601a      	str	r2, [r3, #0]
  hcan.Init.Prescaler = 16;
 8002ca2:	4b15      	ldr	r3, [pc, #84]	@ (8002cf8 <MX_CAN_Init+0x60>)
 8002ca4:	2210      	movs	r2, #16
 8002ca6:	605a      	str	r2, [r3, #4]
  hcan.Init.Mode = CAN_MODE_NORMAL;
 8002ca8:	4b13      	ldr	r3, [pc, #76]	@ (8002cf8 <MX_CAN_Init+0x60>)
 8002caa:	2200      	movs	r2, #0
 8002cac:	609a      	str	r2, [r3, #8]
  hcan.Init.SyncJumpWidth = CAN_SJW_1TQ;
 8002cae:	4b12      	ldr	r3, [pc, #72]	@ (8002cf8 <MX_CAN_Init+0x60>)
 8002cb0:	2200      	movs	r2, #0
 8002cb2:	60da      	str	r2, [r3, #12]
  hcan.Init.TimeSeg1 = CAN_BS1_1TQ;
 8002cb4:	4b10      	ldr	r3, [pc, #64]	@ (8002cf8 <MX_CAN_Init+0x60>)
 8002cb6:	2200      	movs	r2, #0
 8002cb8:	611a      	str	r2, [r3, #16]
  hcan.Init.TimeSeg2 = CAN_BS2_1TQ;
 8002cba:	4b0f      	ldr	r3, [pc, #60]	@ (8002cf8 <MX_CAN_Init+0x60>)
 8002cbc:	2200      	movs	r2, #0
 8002cbe:	615a      	str	r2, [r3, #20]
  hcan.Init.TimeTriggeredMode = DISABLE;
 8002cc0:	4b0d      	ldr	r3, [pc, #52]	@ (8002cf8 <MX_CAN_Init+0x60>)
 8002cc2:	2200      	movs	r2, #0
 8002cc4:	761a      	strb	r2, [r3, #24]
  hcan.Init.AutoBusOff = DISABLE;
 8002cc6:	4b0c      	ldr	r3, [pc, #48]	@ (8002cf8 <MX_CAN_Init+0x60>)
 8002cc8:	2200      	movs	r2, #0
 8002cca:	765a      	strb	r2, [r3, #25]
  hcan.Init.AutoWakeUp = DISABLE;
 8002ccc:	4b0a      	ldr	r3, [pc, #40]	@ (8002cf8 <MX_CAN_Init+0x60>)
 8002cce:	2200      	movs	r2, #0
 8002cd0:	769a      	strb	r2, [r3, #26]
  hcan.Init.AutoRetransmission = DISABLE;
 8002cd2:	4b09      	ldr	r3, [pc, #36]	@ (8002cf8 <MX_CAN_Init+0x60>)
 8002cd4:	2200      	movs	r2, #0
 8002cd6:	76da      	strb	r2, [r3, #27]
  hcan.Init.ReceiveFifoLocked = DISABLE;
 8002cd8:	4b07      	ldr	r3, [pc, #28]	@ (8002cf8 <MX_CAN_Init+0x60>)
 8002cda:	2200      	movs	r2, #0
 8002cdc:	771a      	strb	r2, [r3, #28]
  hcan.Init.TransmitFifoPriority = DISABLE;
 8002cde:	4b06      	ldr	r3, [pc, #24]	@ (8002cf8 <MX_CAN_Init+0x60>)
 8002ce0:	2200      	movs	r2, #0
 8002ce2:	775a      	strb	r2, [r3, #29]
  if (HAL_CAN_Init(&hcan) != HAL_OK)
 8002ce4:	4804      	ldr	r0, [pc, #16]	@ (8002cf8 <MX_CAN_Init+0x60>)
 8002ce6:	f001 f965 	bl	8003fb4 <HAL_CAN_Init>
 8002cea:	4603      	mov	r3, r0
 8002cec:	2b00      	cmp	r3, #0
 8002cee:	d001      	beq.n	8002cf4 <MX_CAN_Init+0x5c>
  {
    Error_Handler();
 8002cf0:	f000 f936 	bl	8002f60 <Error_Handler>
  }
  /* USER CODE BEGIN CAN_Init 2 */

  /* USER CODE END CAN_Init 2 */

}
 8002cf4:	bf00      	nop
 8002cf6:	bd80      	pop	{r7, pc}
 8002cf8:	2000028c 	.word	0x2000028c
 8002cfc:	40006400 	.word	0x40006400

08002d00 <MX_I2C1_Init>:
  * @brief I2C1 Initialization Function
  * @param None
  * @retval None
  */
static void MX_I2C1_Init(void)
{
 8002d00:	b580      	push	{r7, lr}
 8002d02:	af00      	add	r7, sp, #0
  /* USER CODE END I2C1_Init 0 */

  /* USER CODE BEGIN I2C1_Init 1 */

  /* USER CODE END I2C1_Init 1 */
  hi2c1.Instance = I2C1;
 8002d04:	4b12      	ldr	r3, [pc, #72]	@ (8002d50 <MX_I2C1_Init+0x50>)
 8002d06:	4a13      	ldr	r2, [pc, #76]	@ (8002d54 <MX_I2C1_Init+0x54>)
 8002d08:	601a      	str	r2, [r3, #0]
  hi2c1.Init.ClockSpeed = 100000;
 8002d0a:	4b11      	ldr	r3, [pc, #68]	@ (8002d50 <MX_I2C1_Init+0x50>)
 8002d0c:	4a12      	ldr	r2, [pc, #72]	@ (8002d58 <MX_I2C1_Init+0x58>)
 8002d0e:	605a      	str	r2, [r3, #4]
  hi2c1.Init.DutyCycle = I2C_DUTYCYCLE_2;
 8002d10:	4b0f      	ldr	r3, [pc, #60]	@ (8002d50 <MX_I2C1_Init+0x50>)
 8002d12:	2200      	movs	r2, #0
 8002d14:	609a      	str	r2, [r3, #8]
  hi2c1.Init.OwnAddress1 = 0;
 8002d16:	4b0e      	ldr	r3, [pc, #56]	@ (8002d50 <MX_I2C1_Init+0x50>)
 8002d18:	2200      	movs	r2, #0
 8002d1a:	60da      	str	r2, [r3, #12]
  hi2c1.Init.AddressingMode = I2C_ADDRESSINGMODE_7BIT;
 8002d1c:	4b0c      	ldr	r3, [pc, #48]	@ (8002d50 <MX_I2C1_Init+0x50>)
 8002d1e:	f44f 4280 	mov.w	r2, #16384	@ 0x4000
 8002d22:	611a      	str	r2, [r3, #16]
  hi2c1.Init.DualAddressMode = I2C_DUALADDRESS_DISABLE;
 8002d24:	4b0a      	ldr	r3, [pc, #40]	@ (8002d50 <MX_I2C1_Init+0x50>)
 8002d26:	2200      	movs	r2, #0
 8002d28:	615a      	str	r2, [r3, #20]
  hi2c1.Init.OwnAddress2 = 0;
 8002d2a:	4b09      	ldr	r3, [pc, #36]	@ (8002d50 <MX_I2C1_Init+0x50>)
 8002d2c:	2200      	movs	r2, #0
 8002d2e:	619a      	str	r2, [r3, #24]
  hi2c1.Init.GeneralCallMode = I2C_GENERALCALL_DISABLE;
 8002d30:	4b07      	ldr	r3, [pc, #28]	@ (8002d50 <MX_I2C1_Init+0x50>)
 8002d32:	2200      	movs	r2, #0
 8002d34:	61da      	str	r2, [r3, #28]
  hi2c1.Init.NoStretchMode = I2C_NOSTRETCH_DISABLE;
 8002d36:	4b06      	ldr	r3, [pc, #24]	@ (8002d50 <MX_I2C1_Init+0x50>)
 8002d38:	2200      	movs	r2, #0
 8002d3a:	621a      	str	r2, [r3, #32]
  if (HAL_I2C_Init(&hi2c1) != HAL_OK)
 8002d3c:	4804      	ldr	r0, [pc, #16]	@ (8002d50 <MX_I2C1_Init+0x50>)
 8002d3e:	f001 fda9 	bl	8004894 <HAL_I2C_Init>
 8002d42:	4603      	mov	r3, r0
 8002d44:	2b00      	cmp	r3, #0
 8002d46:	d001      	beq.n	8002d4c <MX_I2C1_Init+0x4c>
  {
    Error_Handler();
 8002d48:	f000 f90a 	bl	8002f60 <Error_Handler>
  }
  /* USER CODE BEGIN I2C1_Init 2 */

  /* USER CODE END I2C1_Init 2 */

}
 8002d4c:	bf00      	nop
 8002d4e:	bd80      	pop	{r7, pc}
 8002d50:	200002b4 	.word	0x200002b4
 8002d54:	40005400 	.word	0x40005400
 8002d58:	000186a0 	.word	0x000186a0

08002d5c <MX_USART1_UART_Init>:
  * @brief USART1 Initialization Function
  * @param None
  * @retval None
  */
static void MX_USART1_UART_Init(void)
{
 8002d5c:	b580      	push	{r7, lr}
 8002d5e:	af00      	add	r7, sp, #0
  /* USER CODE END USART1_Init 0 */

  /* USER CODE BEGIN USART1_Init 1 */

  /* USER CODE END USART1_Init 1 */
  huart1.Instance = USART1;
 8002d60:	4b11      	ldr	r3, [pc, #68]	@ (8002da8 <MX_USART1_UART_Init+0x4c>)
 8002d62:	4a12      	ldr	r2, [pc, #72]	@ (8002dac <MX_USART1_UART_Init+0x50>)
 8002d64:	601a      	str	r2, [r3, #0]
  huart1.Init.BaudRate = 115200;
 8002d66:	4b10      	ldr	r3, [pc, #64]	@ (8002da8 <MX_USART1_UART_Init+0x4c>)
 8002d68:	f44f 32e1 	mov.w	r2, #115200	@ 0x1c200
 8002d6c:	605a      	str	r2, [r3, #4]
  huart1.Init.WordLength = UART_WORDLENGTH_8B;
 8002d6e:	4b0e      	ldr	r3, [pc, #56]	@ (8002da8 <MX_USART1_UART_Init+0x4c>)
 8002d70:	2200      	movs	r2, #0
 8002d72:	609a      	str	r2, [r3, #8]
  huart1.Init.StopBits = UART_STOPBITS_1;
 8002d74:	4b0c      	ldr	r3, [pc, #48]	@ (8002da8 <MX_USART1_UART_Init+0x4c>)
 8002d76:	2200      	movs	r2, #0
 8002d78:	60da      	str	r2, [r3, #12]
  huart1.Init.Parity = UART_PARITY_NONE;
 8002d7a:	4b0b      	ldr	r3, [pc, #44]	@ (8002da8 <MX_USART1_UART_Init+0x4c>)
 8002d7c:	2200      	movs	r2, #0
 8002d7e:	611a      	str	r2, [r3, #16]
  huart1.Init.Mode = UART_MODE_TX_RX;
 8002d80:	4b09      	ldr	r3, [pc, #36]	@ (8002da8 <MX_USART1_UART_Init+0x4c>)
 8002d82:	220c      	movs	r2, #12
 8002d84:	615a      	str	r2, [r3, #20]
  huart1.Init.HwFlowCtl = UART_HWCONTROL_NONE;
 8002d86:	4b08      	ldr	r3, [pc, #32]	@ (8002da8 <MX_USART1_UART_Init+0x4c>)
 8002d88:	2200      	movs	r2, #0
 8002d8a:	619a      	str	r2, [r3, #24]
  huart1.Init.OverSampling = UART_OVERSAMPLING_16;
 8002d8c:	4b06      	ldr	r3, [pc, #24]	@ (8002da8 <MX_USART1_UART_Init+0x4c>)
 8002d8e:	2200      	movs	r2, #0
 8002d90:	61da      	str	r2, [r3, #28]
  if (HAL_UART_Init(&huart1) != HAL_OK)
 8002d92:	4805      	ldr	r0, [pc, #20]	@ (8002da8 <MX_USART1_UART_Init+0x4c>)
 8002d94:	f002 fad2 	bl	800533c <HAL_UART_Init>
 8002d98:	4603      	mov	r3, r0
 8002d9a:	2b00      	cmp	r3, #0
 8002d9c:	d001      	beq.n	8002da2 <MX_USART1_UART_Init+0x46>
  {
    Error_Handler();
 8002d9e:	f000 f8df 	bl	8002f60 <Error_Handler>
  }
  /* USER CODE BEGIN USART1_Init 2 */

  /* USER CODE END USART1_Init 2 */

}
 8002da2:	bf00      	nop
 8002da4:	bd80      	pop	{r7, pc}
 8002da6:	bf00      	nop
 8002da8:	20000308 	.word	0x20000308
 8002dac:	40013800 	.word	0x40013800

08002db0 <MX_USART2_UART_Init>:
  * @brief USART2 Initialization Function
  * @param None
  * @retval None
  */
static void MX_USART2_UART_Init(void)
{
 8002db0:	b580      	push	{r7, lr}
 8002db2:	af00      	add	r7, sp, #0
  /* USER CODE END USART2_Init 0 */

  /* USER CODE BEGIN USART2_Init 1 */

  /* USER CODE END USART2_Init 1 */
  huart2.Instance = USART2;
 8002db4:	4b11      	ldr	r3, [pc, #68]	@ (8002dfc <MX_USART2_UART_Init+0x4c>)
 8002db6:	4a12      	ldr	r2, [pc, #72]	@ (8002e00 <MX_USART2_UART_Init+0x50>)
 8002db8:	601a      	str	r2, [r3, #0]
  huart2.Init.BaudRate = 115200;
 8002dba:	4b10      	ldr	r3, [pc, #64]	@ (8002dfc <MX_USART2_UART_Init+0x4c>)
 8002dbc:	f44f 32e1 	mov.w	r2, #115200	@ 0x1c200
 8002dc0:	605a      	str	r2, [r3, #4]
  huart2.Init.WordLength = UART_WORDLENGTH_8B;
 8002dc2:	4b0e      	ldr	r3, [pc, #56]	@ (8002dfc <MX_USART2_UART_Init+0x4c>)
 8002dc4:	2200      	movs	r2, #0
 8002dc6:	609a      	str	r2, [r3, #8]
  huart2.Init.StopBits = UART_STOPBITS_1;
 8002dc8:	4b0c      	ldr	r3, [pc, #48]	@ (8002dfc <MX_USART2_UART_Init+0x4c>)
 8002dca:	2200      	movs	r2, #0
 8002dcc:	60da      	str	r2, [r3, #12]
  huart2.Init.Parity = UART_PARITY_NONE;
 8002dce:	4b0b      	ldr	r3, [pc, #44]	@ (8002dfc <MX_USART2_UART_Init+0x4c>)
 8002dd0:	2200      	movs	r2, #0
 8002dd2:	611a      	str	r2, [r3, #16]
  huart2.Init.Mode = UART_MODE_TX_RX;
 8002dd4:	4b09      	ldr	r3, [pc, #36]	@ (8002dfc <MX_USART2_UART_Init+0x4c>)
 8002dd6:	220c      	movs	r2, #12
 8002dd8:	615a      	str	r2, [r3, #20]
  huart2.Init.HwFlowCtl = UART_HWCONTROL_NONE;
 8002dda:	4b08      	ldr	r3, [pc, #32]	@ (8002dfc <MX_USART2_UART_Init+0x4c>)
 8002ddc:	2200      	movs	r2, #0
 8002dde:	619a      	str	r2, [r3, #24]
  huart2.Init.OverSampling = UART_OVERSAMPLING_16;
 8002de0:	4b06      	ldr	r3, [pc, #24]	@ (8002dfc <MX_USART2_UART_Init+0x4c>)
 8002de2:	2200      	movs	r2, #0
 8002de4:	61da      	str	r2, [r3, #28]
  if (HAL_UART_Init(&huart2) != HAL_OK)
 8002de6:	4805      	ldr	r0, [pc, #20]	@ (8002dfc <MX_USART2_UART_Init+0x4c>)
 8002de8:	f002 faa8 	bl	800533c <HAL_UART_Init>
 8002dec:	4603      	mov	r3, r0
 8002dee:	2b00      	cmp	r3, #0
 8002df0:	d001      	beq.n	8002df6 <MX_USART2_UART_Init+0x46>
  {
    Error_Handler();
 8002df2:	f000 f8b5 	bl	8002f60 <Error_Handler>
  }
  /* USER CODE BEGIN USART2_Init 2 */

  /* USER CODE END USART2_Init 2 */

}
 8002df6:	bf00      	nop
 8002df8:	bd80      	pop	{r7, pc}
 8002dfa:	bf00      	nop
 8002dfc:	20000350 	.word	0x20000350
 8002e00:	40004400 	.word	0x40004400

08002e04 <MX_USART3_UART_Init>:
  * @brief USART3 Initialization Function
  * @param None
  * @retval None
  */
static void MX_USART3_UART_Init(void)
{
 8002e04:	b580      	push	{r7, lr}
 8002e06:	af00      	add	r7, sp, #0
  /* USER CODE END USART3_Init 0 */

  /* USER CODE BEGIN USART3_Init 1 */

  /* USER CODE END USART3_Init 1 */
  huart3.Instance = USART3;
 8002e08:	4b11      	ldr	r3, [pc, #68]	@ (8002e50 <MX_USART3_UART_Init+0x4c>)
 8002e0a:	4a12      	ldr	r2, [pc, #72]	@ (8002e54 <MX_USART3_UART_Init+0x50>)
 8002e0c:	601a      	str	r2, [r3, #0]
  huart3.Init.BaudRate = 9600;
 8002e0e:	4b10      	ldr	r3, [pc, #64]	@ (8002e50 <MX_USART3_UART_Init+0x4c>)
 8002e10:	f44f 5216 	mov.w	r2, #9600	@ 0x2580
 8002e14:	605a      	str	r2, [r3, #4]
  huart3.Init.WordLength = UART_WORDLENGTH_8B;
 8002e16:	4b0e      	ldr	r3, [pc, #56]	@ (8002e50 <MX_USART3_UART_Init+0x4c>)
 8002e18:	2200      	movs	r2, #0
 8002e1a:	609a      	str	r2, [r3, #8]
  huart3.Init.StopBits = UART_STOPBITS_1;
 8002e1c:	4b0c      	ldr	r3, [pc, #48]	@ (8002e50 <MX_USART3_UART_Init+0x4c>)
 8002e1e:	2200      	movs	r2, #0
 8002e20:	60da      	str	r2, [r3, #12]
  huart3.Init.Parity = UART_PARITY_NONE;
 8002e22:	4b0b      	ldr	r3, [pc, #44]	@ (8002e50 <MX_USART3_UART_Init+0x4c>)
 8002e24:	2200      	movs	r2, #0
 8002e26:	611a      	str	r2, [r3, #16]
  huart3.Init.Mode = UART_MODE_TX_RX;
 8002e28:	4b09      	ldr	r3, [pc, #36]	@ (8002e50 <MX_USART3_UART_Init+0x4c>)
 8002e2a:	220c      	movs	r2, #12
 8002e2c:	615a      	str	r2, [r3, #20]
  huart3.Init.HwFlowCtl = UART_HWCONTROL_NONE;
 8002e2e:	4b08      	ldr	r3, [pc, #32]	@ (8002e50 <MX_USART3_UART_Init+0x4c>)
 8002e30:	2200      	movs	r2, #0
 8002e32:	619a      	str	r2, [r3, #24]
  huart3.Init.OverSampling = UART_OVERSAMPLING_16;
 8002e34:	4b06      	ldr	r3, [pc, #24]	@ (8002e50 <MX_USART3_UART_Init+0x4c>)
 8002e36:	2200      	movs	r2, #0
 8002e38:	61da      	str	r2, [r3, #28]
  if (HAL_UART_Init(&huart3) != HAL_OK)
 8002e3a:	4805      	ldr	r0, [pc, #20]	@ (8002e50 <MX_USART3_UART_Init+0x4c>)
 8002e3c:	f002 fa7e 	bl	800533c <HAL_UART_Init>
 8002e40:	4603      	mov	r3, r0
 8002e42:	2b00      	cmp	r3, #0
 8002e44:	d001      	beq.n	8002e4a <MX_USART3_UART_Init+0x46>
  {
    Error_Handler();
 8002e46:	f000 f88b 	bl	8002f60 <Error_Handler>
  }
  /* USER CODE BEGIN USART3_Init 2 */

  /* USER CODE END USART3_Init 2 */

}
 8002e4a:	bf00      	nop
 8002e4c:	bd80      	pop	{r7, pc}
 8002e4e:	bf00      	nop
 8002e50:	20000398 	.word	0x20000398
 8002e54:	40004800 	.word	0x40004800

08002e58 <MX_GPIO_Init>:
  * @brief GPIO Initialization Function
  * @param None
  * @retval None
  */
static void MX_GPIO_Init(void)
{
 8002e58:	b580      	push	{r7, lr}
 8002e5a:	b088      	sub	sp, #32
 8002e5c:	af00      	add	r7, sp, #0
  GPIO_InitTypeDef GPIO_InitStruct = {0};
 8002e5e:	f107 0310 	add.w	r3, r7, #16
 8002e62:	2200      	movs	r2, #0
 8002e64:	601a      	str	r2, [r3, #0]
 8002e66:	605a      	str	r2, [r3, #4]
 8002e68:	609a      	str	r2, [r3, #8]
 8002e6a:	60da      	str	r2, [r3, #12]
  /* USER CODE BEGIN MX_GPIO_Init_1 */

  /* USER CODE END MX_GPIO_Init_1 */

  /* GPIO Ports Clock Enable */
  __HAL_RCC_GPIOC_CLK_ENABLE();
 8002e6c:	4b39      	ldr	r3, [pc, #228]	@ (8002f54 <MX_GPIO_Init+0xfc>)
 8002e6e:	699b      	ldr	r3, [r3, #24]
 8002e70:	4a38      	ldr	r2, [pc, #224]	@ (8002f54 <MX_GPIO_Init+0xfc>)
 8002e72:	f043 0310 	orr.w	r3, r3, #16
 8002e76:	6193      	str	r3, [r2, #24]
 8002e78:	4b36      	ldr	r3, [pc, #216]	@ (8002f54 <MX_GPIO_Init+0xfc>)
 8002e7a:	699b      	ldr	r3, [r3, #24]
 8002e7c:	f003 0310 	and.w	r3, r3, #16
 8002e80:	60fb      	str	r3, [r7, #12]
 8002e82:	68fb      	ldr	r3, [r7, #12]
  __HAL_RCC_GPIOD_CLK_ENABLE();
 8002e84:	4b33      	ldr	r3, [pc, #204]	@ (8002f54 <MX_GPIO_Init+0xfc>)
 8002e86:	699b      	ldr	r3, [r3, #24]
 8002e88:	4a32      	ldr	r2, [pc, #200]	@ (8002f54 <MX_GPIO_Init+0xfc>)
 8002e8a:	f043 0320 	orr.w	r3, r3, #32
 8002e8e:	6193      	str	r3, [r2, #24]
 8002e90:	4b30      	ldr	r3, [pc, #192]	@ (8002f54 <MX_GPIO_Init+0xfc>)
 8002e92:	699b      	ldr	r3, [r3, #24]
 8002e94:	f003 0320 	and.w	r3, r3, #32
 8002e98:	60bb      	str	r3, [r7, #8]
 8002e9a:	68bb      	ldr	r3, [r7, #8]
  __HAL_RCC_GPIOA_CLK_ENABLE();
 8002e9c:	4b2d      	ldr	r3, [pc, #180]	@ (8002f54 <MX_GPIO_Init+0xfc>)
 8002e9e:	699b      	ldr	r3, [r3, #24]
 8002ea0:	4a2c      	ldr	r2, [pc, #176]	@ (8002f54 <MX_GPIO_Init+0xfc>)
 8002ea2:	f043 0304 	orr.w	r3, r3, #4
 8002ea6:	6193      	str	r3, [r2, #24]
 8002ea8:	4b2a      	ldr	r3, [pc, #168]	@ (8002f54 <MX_GPIO_Init+0xfc>)
 8002eaa:	699b      	ldr	r3, [r3, #24]
 8002eac:	f003 0304 	and.w	r3, r3, #4
 8002eb0:	607b      	str	r3, [r7, #4]
 8002eb2:	687b      	ldr	r3, [r7, #4]
  __HAL_RCC_GPIOB_CLK_ENABLE();
 8002eb4:	4b27      	ldr	r3, [pc, #156]	@ (8002f54 <MX_GPIO_Init+0xfc>)
 8002eb6:	699b      	ldr	r3, [r3, #24]
 8002eb8:	4a26      	ldr	r2, [pc, #152]	@ (8002f54 <MX_GPIO_Init+0xfc>)
 8002eba:	f043 0308 	orr.w	r3, r3, #8
 8002ebe:	6193      	str	r3, [r2, #24]
 8002ec0:	4b24      	ldr	r3, [pc, #144]	@ (8002f54 <MX_GPIO_Init+0xfc>)
 8002ec2:	699b      	ldr	r3, [r3, #24]
 8002ec4:	f003 0308 	and.w	r3, r3, #8
 8002ec8:	603b      	str	r3, [r7, #0]
 8002eca:	683b      	ldr	r3, [r7, #0]

  /*Configure GPIO pin Output Level */
  HAL_GPIO_WritePin(GPIOA, RELAY_Pin|C1_Pin|C2_Pin|C3_Pin
 8002ecc:	2200      	movs	r2, #0
 8002ece:	21f2      	movs	r1, #242	@ 0xf2
 8002ed0:	4821      	ldr	r0, [pc, #132]	@ (8002f58 <MX_GPIO_Init+0x100>)
 8002ed2:	f001 fcc6 	bl	8004862 <HAL_GPIO_WritePin>
                          |C4_Pin, GPIO_PIN_RESET);

  /*Configure GPIO pin Output Level */
  HAL_GPIO_WritePin(GPIOB, C5_Pin|C6_Pin|C7_Pin, GPIO_PIN_RESET);
 8002ed6:	2200      	movs	r2, #0
 8002ed8:	2107      	movs	r1, #7
 8002eda:	4820      	ldr	r0, [pc, #128]	@ (8002f5c <MX_GPIO_Init+0x104>)
 8002edc:	f001 fcc1 	bl	8004862 <HAL_GPIO_WritePin>

  /*Configure GPIO pins : RELAY_Pin C1_Pin C2_Pin C3_Pin
                           C4_Pin */
  GPIO_InitStruct.Pin = RELAY_Pin|C1_Pin|C2_Pin|C3_Pin
 8002ee0:	23f2      	movs	r3, #242	@ 0xf2
 8002ee2:	613b      	str	r3, [r7, #16]
                          |C4_Pin;
  GPIO_InitStruct.Mode = GPIO_MODE_OUTPUT_PP;
 8002ee4:	2301      	movs	r3, #1
 8002ee6:	617b      	str	r3, [r7, #20]
  GPIO_InitStruct.Pull = GPIO_NOPULL;
 8002ee8:	2300      	movs	r3, #0
 8002eea:	61bb      	str	r3, [r7, #24]
  GPIO_InitStruct.Speed = GPIO_SPEED_FREQ_LOW;
 8002eec:	2302      	movs	r3, #2
 8002eee:	61fb      	str	r3, [r7, #28]
  HAL_GPIO_Init(GPIOA, &GPIO_InitStruct);
 8002ef0:	f107 0310 	add.w	r3, r7, #16
 8002ef4:	4619      	mov	r1, r3
 8002ef6:	4818      	ldr	r0, [pc, #96]	@ (8002f58 <MX_GPIO_Init+0x100>)
 8002ef8:	f001 fb18 	bl	800452c <HAL_GPIO_Init>

  /*Configure GPIO pins : C5_Pin C6_Pin C7_Pin */
  GPIO_InitStruct.Pin = C5_Pin|C6_Pin|C7_Pin;
 8002efc:	2307      	movs	r3, #7
 8002efe:	613b      	str	r3, [r7, #16]
  GPIO_InitStruct.Mode = GPIO_MODE_OUTPUT_PP;
 8002f00:	2301      	movs	r3, #1
 8002f02:	617b      	str	r3, [r7, #20]
  GPIO_InitStruct.Pull = GPIO_NOPULL;
 8002f04:	2300      	movs	r3, #0
 8002f06:	61bb      	str	r3, [r7, #24]
  GPIO_InitStruct.Speed = GPIO_SPEED_FREQ_LOW;
 8002f08:	2302      	movs	r3, #2
 8002f0a:	61fb      	str	r3, [r7, #28]
  HAL_GPIO_Init(GPIOB, &GPIO_InitStruct);
 8002f0c:	f107 0310 	add.w	r3, r7, #16
 8002f10:	4619      	mov	r1, r3
 8002f12:	4812      	ldr	r0, [pc, #72]	@ (8002f5c <MX_GPIO_Init+0x104>)
 8002f14:	f001 fb0a 	bl	800452c <HAL_GPIO_Init>

  /*Configure GPIO pins : R1_Pin R2_Pin R3_Pin R4_Pin */
  GPIO_InitStruct.Pin = R1_Pin|R2_Pin|R3_Pin|R4_Pin;
 8002f18:	f44f 4370 	mov.w	r3, #61440	@ 0xf000
 8002f1c:	613b      	str	r3, [r7, #16]
  GPIO_InitStruct.Mode = GPIO_MODE_INPUT;
 8002f1e:	2300      	movs	r3, #0
 8002f20:	617b      	str	r3, [r7, #20]
  GPIO_InitStruct.Pull = GPIO_PULLDOWN;
 8002f22:	2302      	movs	r3, #2
 8002f24:	61bb      	str	r3, [r7, #24]
  HAL_GPIO_Init(GPIOB, &GPIO_InitStruct);
 8002f26:	f107 0310 	add.w	r3, r7, #16
 8002f2a:	4619      	mov	r1, r3
 8002f2c:	480b      	ldr	r0, [pc, #44]	@ (8002f5c <MX_GPIO_Init+0x104>)
 8002f2e:	f001 fafd 	bl	800452c <HAL_GPIO_Init>

  /*Configure GPIO pin : R5_Pin */
  GPIO_InitStruct.Pin = R5_Pin;
 8002f32:	f44f 7380 	mov.w	r3, #256	@ 0x100
 8002f36:	613b      	str	r3, [r7, #16]
  GPIO_InitStruct.Mode = GPIO_MODE_INPUT;
 8002f38:	2300      	movs	r3, #0
 8002f3a:	617b      	str	r3, [r7, #20]
  GPIO_InitStruct.Pull = GPIO_PULLDOWN;
 8002f3c:	2302      	movs	r3, #2
 8002f3e:	61bb      	str	r3, [r7, #24]
  HAL_GPIO_Init(R5_GPIO_Port, &GPIO_InitStruct);
 8002f40:	f107 0310 	add.w	r3, r7, #16
 8002f44:	4619      	mov	r1, r3
 8002f46:	4804      	ldr	r0, [pc, #16]	@ (8002f58 <MX_GPIO_Init+0x100>)
 8002f48:	f001 faf0 	bl	800452c <HAL_GPIO_Init>

  /* USER CODE BEGIN MX_GPIO_Init_2 */

  /* USER CODE END MX_GPIO_Init_2 */
}
 8002f4c:	bf00      	nop
 8002f4e:	3720      	adds	r7, #32
 8002f50:	46bd      	mov	sp, r7
 8002f52:	bd80      	pop	{r7, pc}
 8002f54:	40021000 	.word	0x40021000
 8002f58:	40010800 	.word	0x40010800
 8002f5c:	40010c00 	.word	0x40010c00

08002f60 <Error_Handler>:
/**
  * @brief  This function is executed in case of error occurrence.
  * @retval None
  */
void Error_Handler(void)
{
 8002f60:	b480      	push	{r7}
 8002f62:	af00      	add	r7, sp, #0
  \details Disables IRQ interrupts by setting the I-bit in the CPSR.
           Can only be executed in Privileged modes.
 */
__STATIC_FORCEINLINE void __disable_irq(void)
{
  __ASM volatile ("cpsid i" : : : "memory");
 8002f64:	b672      	cpsid	i
}
 8002f66:	bf00      	nop
  /* USER CODE BEGIN Error_Handler_Debug */
  __disable_irq();
  while (1)
 8002f68:	bf00      	nop
 8002f6a:	e7fd      	b.n	8002f68 <Error_Handler+0x8>

08002f6c <RTC_IsLeap>:

/* ======================================================================
 * Calendar helpers
 * ====================================================================== */
static uint8_t RTC_IsLeap(uint16_t fullYear)
{
 8002f6c:	b480      	push	{r7}
 8002f6e:	b083      	sub	sp, #12
 8002f70:	af00      	add	r7, sp, #0
 8002f72:	4603      	mov	r3, r0
 8002f74:	80fb      	strh	r3, [r7, #6]
    return ((fullYear % 4 == 0 && fullYear % 100 != 0) ||
 8002f76:	88fb      	ldrh	r3, [r7, #6]
 8002f78:	f003 0303 	and.w	r3, r3, #3
 8002f7c:	b29b      	uxth	r3, r3
            (fullYear % 400 == 0)) ? 1u : 0u;
 8002f7e:	2b00      	cmp	r3, #0
 8002f80:	d10b      	bne.n	8002f9a <RTC_IsLeap+0x2e>
    return ((fullYear % 4 == 0 && fullYear % 100 != 0) ||
 8002f82:	88fb      	ldrh	r3, [r7, #6]
 8002f84:	4a0f      	ldr	r2, [pc, #60]	@ (8002fc4 <RTC_IsLeap+0x58>)
 8002f86:	fba2 1203 	umull	r1, r2, r2, r3
 8002f8a:	0952      	lsrs	r2, r2, #5
 8002f8c:	2164      	movs	r1, #100	@ 0x64
 8002f8e:	fb01 f202 	mul.w	r2, r1, r2
 8002f92:	1a9b      	subs	r3, r3, r2
 8002f94:	b29b      	uxth	r3, r3
 8002f96:	2b00      	cmp	r3, #0
 8002f98:	d10c      	bne.n	8002fb4 <RTC_IsLeap+0x48>
            (fullYear % 400 == 0)) ? 1u : 0u;
 8002f9a:	88fb      	ldrh	r3, [r7, #6]
 8002f9c:	4a09      	ldr	r2, [pc, #36]	@ (8002fc4 <RTC_IsLeap+0x58>)
 8002f9e:	fba2 1203 	umull	r1, r2, r2, r3
 8002fa2:	09d2      	lsrs	r2, r2, #7
 8002fa4:	f44f 71c8 	mov.w	r1, #400	@ 0x190
 8002fa8:	fb01 f202 	mul.w	r2, r1, r2
 8002fac:	1a9b      	subs	r3, r3, r2
 8002fae:	b29b      	uxth	r3, r3
    return ((fullYear % 4 == 0 && fullYear % 100 != 0) ||
 8002fb0:	2b00      	cmp	r3, #0
 8002fb2:	d101      	bne.n	8002fb8 <RTC_IsLeap+0x4c>
            (fullYear % 400 == 0)) ? 1u : 0u;
 8002fb4:	2301      	movs	r3, #1
 8002fb6:	e000      	b.n	8002fba <RTC_IsLeap+0x4e>
 8002fb8:	2300      	movs	r3, #0
}
 8002fba:	4618      	mov	r0, r3
 8002fbc:	370c      	adds	r7, #12
 8002fbe:	46bd      	mov	sp, r7
 8002fc0:	bc80      	pop	{r7}
 8002fc2:	4770      	bx	lr
 8002fc4:	51eb851f 	.word	0x51eb851f

08002fc8 <RTC_MonthLength>:

static uint8_t RTC_MonthLength(uint8_t year, uint8_t month)
{
 8002fc8:	b580      	push	{r7, lr}
 8002fca:	b082      	sub	sp, #8
 8002fcc:	af00      	add	r7, sp, #0
 8002fce:	4603      	mov	r3, r0
 8002fd0:	460a      	mov	r2, r1
 8002fd2:	71fb      	strb	r3, [r7, #7]
 8002fd4:	4613      	mov	r3, r2
 8002fd6:	71bb      	strb	r3, [r7, #6]
    if(month == 2 && RTC_IsLeap((uint16_t)(2000 + year))) return 29;
 8002fd8:	79bb      	ldrb	r3, [r7, #6]
 8002fda:	2b02      	cmp	r3, #2
 8002fdc:	d10c      	bne.n	8002ff8 <RTC_MonthLength+0x30>
 8002fde:	79fb      	ldrb	r3, [r7, #7]
 8002fe0:	b29b      	uxth	r3, r3
 8002fe2:	f503 63fa 	add.w	r3, r3, #2000	@ 0x7d0
 8002fe6:	b29b      	uxth	r3, r3
 8002fe8:	4618      	mov	r0, r3
 8002fea:	f7ff ffbf 	bl	8002f6c <RTC_IsLeap>
 8002fee:	4603      	mov	r3, r0
 8002ff0:	2b00      	cmp	r3, #0
 8002ff2:	d001      	beq.n	8002ff8 <RTC_MonthLength+0x30>
 8002ff4:	231d      	movs	r3, #29
 8002ff6:	e002      	b.n	8002ffe <RTC_MonthLength+0x36>
    return daysInMonth[month];
 8002ff8:	79bb      	ldrb	r3, [r7, #6]
 8002ffa:	4a03      	ldr	r2, [pc, #12]	@ (8003008 <RTC_MonthLength+0x40>)
 8002ffc:	5cd3      	ldrb	r3, [r2, r3]
}
 8002ffe:	4618      	mov	r0, r3
 8003000:	3708      	adds	r7, #8
 8003002:	46bd      	mov	sp, r7
 8003004:	bd80      	pop	{r7, pc}
 8003006:	bf00      	nop
 8003008:	080070f0 	.word	0x080070f0

0800300c <RTC_ComputeWeekday>:

/* Zeller's congruence (Gregorian). Returns 0=Sun .. 6=Sat. */
static uint8_t RTC_ComputeWeekday(uint8_t year, uint8_t month, uint8_t day)
{
 800300c:	b480      	push	{r7}
 800300e:	b087      	sub	sp, #28
 8003010:	af00      	add	r7, sp, #0
 8003012:	4603      	mov	r3, r0
 8003014:	71fb      	strb	r3, [r7, #7]
 8003016:	460b      	mov	r3, r1
 8003018:	71bb      	strb	r3, [r7, #6]
 800301a:	4613      	mov	r3, r2
 800301c:	717b      	strb	r3, [r7, #5]
    uint16_t y = (uint16_t)(2000 + year);
 800301e:	79fb      	ldrb	r3, [r7, #7]
 8003020:	b29b      	uxth	r3, r3
 8003022:	f503 63fa 	add.w	r3, r3, #2000	@ 0x7d0
 8003026:	82fb      	strh	r3, [r7, #22]
    uint16_t m = month;
 8003028:	79bb      	ldrb	r3, [r7, #6]
 800302a:	82bb      	strh	r3, [r7, #20]
    if(m < 3) { m += 12; y -= 1; }
 800302c:	8abb      	ldrh	r3, [r7, #20]
 800302e:	2b02      	cmp	r3, #2
 8003030:	d805      	bhi.n	800303e <RTC_ComputeWeekday+0x32>
 8003032:	8abb      	ldrh	r3, [r7, #20]
 8003034:	330c      	adds	r3, #12
 8003036:	82bb      	strh	r3, [r7, #20]
 8003038:	8afb      	ldrh	r3, [r7, #22]
 800303a:	3b01      	subs	r3, #1
 800303c:	82fb      	strh	r3, [r7, #22]
    uint16_t k = y % 100;
 800303e:	8afb      	ldrh	r3, [r7, #22]
 8003040:	4a25      	ldr	r2, [pc, #148]	@ (80030d8 <RTC_ComputeWeekday+0xcc>)
 8003042:	fba2 1203 	umull	r1, r2, r2, r3
 8003046:	0952      	lsrs	r2, r2, #5
 8003048:	2164      	movs	r1, #100	@ 0x64
 800304a:	fb01 f202 	mul.w	r2, r1, r2
 800304e:	1a9b      	subs	r3, r3, r2
 8003050:	827b      	strh	r3, [r7, #18]
    uint16_t j = y / 100;
 8003052:	8afb      	ldrh	r3, [r7, #22]
 8003054:	4a20      	ldr	r2, [pc, #128]	@ (80030d8 <RTC_ComputeWeekday+0xcc>)
 8003056:	fba2 2303 	umull	r2, r3, r2, r3
 800305a:	095b      	lsrs	r3, r3, #5
 800305c:	823b      	strh	r3, [r7, #16]
    uint16_t h = (day + (13u * (m + 1u)) / 5u + k + k / 4u + j / 4u + 5u * j) % 7u;
 800305e:	7979      	ldrb	r1, [r7, #5]
 8003060:	8abb      	ldrh	r3, [r7, #20]
 8003062:	1c5a      	adds	r2, r3, #1
 8003064:	4613      	mov	r3, r2
 8003066:	005b      	lsls	r3, r3, #1
 8003068:	4413      	add	r3, r2
 800306a:	009b      	lsls	r3, r3, #2
 800306c:	4413      	add	r3, r2
 800306e:	4a1b      	ldr	r2, [pc, #108]	@ (80030dc <RTC_ComputeWeekday+0xd0>)
 8003070:	fba2 2303 	umull	r2, r3, r2, r3
 8003074:	089b      	lsrs	r3, r3, #2
 8003076:	18ca      	adds	r2, r1, r3
 8003078:	8a7b      	ldrh	r3, [r7, #18]
 800307a:	4413      	add	r3, r2
 800307c:	8a7a      	ldrh	r2, [r7, #18]
 800307e:	0892      	lsrs	r2, r2, #2
 8003080:	b292      	uxth	r2, r2
 8003082:	4413      	add	r3, r2
 8003084:	8a3a      	ldrh	r2, [r7, #16]
 8003086:	0892      	lsrs	r2, r2, #2
 8003088:	b292      	uxth	r2, r2
 800308a:	1899      	adds	r1, r3, r2
 800308c:	8a3a      	ldrh	r2, [r7, #16]
 800308e:	4613      	mov	r3, r2
 8003090:	009b      	lsls	r3, r3, #2
 8003092:	4413      	add	r3, r2
 8003094:	18ca      	adds	r2, r1, r3
 8003096:	4b12      	ldr	r3, [pc, #72]	@ (80030e0 <RTC_ComputeWeekday+0xd4>)
 8003098:	fba3 1302 	umull	r1, r3, r3, r2
 800309c:	1ad1      	subs	r1, r2, r3
 800309e:	0849      	lsrs	r1, r1, #1
 80030a0:	440b      	add	r3, r1
 80030a2:	0899      	lsrs	r1, r3, #2
 80030a4:	460b      	mov	r3, r1
 80030a6:	00db      	lsls	r3, r3, #3
 80030a8:	1a5b      	subs	r3, r3, r1
 80030aa:	1ad1      	subs	r1, r2, r3
 80030ac:	460b      	mov	r3, r1
 80030ae:	81fb      	strh	r3, [r7, #14]
    /* Zeller h: 0=Sat..6=Fri  ->  remap to 0=Sun..6=Sat */
    return (uint8_t)((h + 6u) % 7u);
 80030b0:	89fb      	ldrh	r3, [r7, #14]
 80030b2:	1d9a      	adds	r2, r3, #6
 80030b4:	4b0a      	ldr	r3, [pc, #40]	@ (80030e0 <RTC_ComputeWeekday+0xd4>)
 80030b6:	fba3 1302 	umull	r1, r3, r3, r2
 80030ba:	1ad1      	subs	r1, r2, r3
 80030bc:	0849      	lsrs	r1, r1, #1
 80030be:	440b      	add	r3, r1
 80030c0:	0899      	lsrs	r1, r3, #2
 80030c2:	460b      	mov	r3, r1
 80030c4:	00db      	lsls	r3, r3, #3
 80030c6:	1a5b      	subs	r3, r3, r1
 80030c8:	1ad1      	subs	r1, r2, r3
 80030ca:	b2cb      	uxtb	r3, r1
}
 80030cc:	4618      	mov	r0, r3
 80030ce:	371c      	adds	r7, #28
 80030d0:	46bd      	mov	sp, r7
 80030d2:	bc80      	pop	{r7}
 80030d4:	4770      	bx	lr
 80030d6:	bf00      	nop
 80030d8:	51eb851f 	.word	0x51eb851f
 80030dc:	cccccccd 	.word	0xcccccccd
 80030e0:	24924925 	.word	0x24924925

080030e4 <RTC_Send>:
 * DWIN write
 * ------------------------------------------------------------------
 *   5A A5 0B 82 00 10 YY MM DD WK HH MM SS 00   (values in plain binary)
 * ====================================================================== */
static void RTC_Send(void)
{
 80030e4:	b580      	push	{r7, lr}
 80030e6:	b084      	sub	sp, #16
 80030e8:	af00      	add	r7, sp, #0
    if(rtc_uart == NULL) return;
 80030ea:	4b19      	ldr	r3, [pc, #100]	@ (8003150 <RTC_Send+0x6c>)
 80030ec:	681b      	ldr	r3, [r3, #0]
 80030ee:	2b00      	cmp	r3, #0
 80030f0:	d02a      	beq.n	8003148 <RTC_Send+0x64>

    uint8_t pkt[14] =
 80030f2:	235a      	movs	r3, #90	@ 0x5a
 80030f4:	703b      	strb	r3, [r7, #0]
 80030f6:	23a5      	movs	r3, #165	@ 0xa5
 80030f8:	707b      	strb	r3, [r7, #1]
 80030fa:	230b      	movs	r3, #11
 80030fc:	70bb      	strb	r3, [r7, #2]
 80030fe:	2382      	movs	r3, #130	@ 0x82
 8003100:	70fb      	strb	r3, [r7, #3]
 8003102:	2300      	movs	r3, #0
 8003104:	713b      	strb	r3, [r7, #4]
 8003106:	2310      	movs	r3, #16
 8003108:	717b      	strb	r3, [r7, #5]
    {
        0x5A, 0xA5, 0x0B, 0x82,
        (uint8_t)(RTC_VP_ADDR >> 8), (uint8_t)(RTC_VP_ADDR & 0xFF),
        rtc.year, rtc.month, rtc.day, rtc.weekday,
 800310a:	4b12      	ldr	r3, [pc, #72]	@ (8003154 <RTC_Send+0x70>)
 800310c:	781b      	ldrb	r3, [r3, #0]
    uint8_t pkt[14] =
 800310e:	71bb      	strb	r3, [r7, #6]
        rtc.year, rtc.month, rtc.day, rtc.weekday,
 8003110:	4b10      	ldr	r3, [pc, #64]	@ (8003154 <RTC_Send+0x70>)
 8003112:	785b      	ldrb	r3, [r3, #1]
    uint8_t pkt[14] =
 8003114:	71fb      	strb	r3, [r7, #7]
        rtc.year, rtc.month, rtc.day, rtc.weekday,
 8003116:	4b0f      	ldr	r3, [pc, #60]	@ (8003154 <RTC_Send+0x70>)
 8003118:	789b      	ldrb	r3, [r3, #2]
    uint8_t pkt[14] =
 800311a:	723b      	strb	r3, [r7, #8]
        rtc.year, rtc.month, rtc.day, rtc.weekday,
 800311c:	4b0d      	ldr	r3, [pc, #52]	@ (8003154 <RTC_Send+0x70>)
 800311e:	78db      	ldrb	r3, [r3, #3]
    uint8_t pkt[14] =
 8003120:	727b      	strb	r3, [r7, #9]
        rtc.hour, rtc.minute, rtc.second,
 8003122:	4b0c      	ldr	r3, [pc, #48]	@ (8003154 <RTC_Send+0x70>)
 8003124:	791b      	ldrb	r3, [r3, #4]
    uint8_t pkt[14] =
 8003126:	72bb      	strb	r3, [r7, #10]
        rtc.hour, rtc.minute, rtc.second,
 8003128:	4b0a      	ldr	r3, [pc, #40]	@ (8003154 <RTC_Send+0x70>)
 800312a:	795b      	ldrb	r3, [r3, #5]
    uint8_t pkt[14] =
 800312c:	72fb      	strb	r3, [r7, #11]
        rtc.hour, rtc.minute, rtc.second,
 800312e:	4b09      	ldr	r3, [pc, #36]	@ (8003154 <RTC_Send+0x70>)
 8003130:	799b      	ldrb	r3, [r3, #6]
    uint8_t pkt[14] =
 8003132:	733b      	strb	r3, [r7, #12]
 8003134:	2300      	movs	r3, #0
 8003136:	737b      	strb	r3, [r7, #13]
        0x00
    };
    HAL_UART_Transmit(rtc_uart, pkt, sizeof(pkt), 100);
 8003138:	4b05      	ldr	r3, [pc, #20]	@ (8003150 <RTC_Send+0x6c>)
 800313a:	6818      	ldr	r0, [r3, #0]
 800313c:	4639      	mov	r1, r7
 800313e:	2364      	movs	r3, #100	@ 0x64
 8003140:	220e      	movs	r2, #14
 8003142:	f002 f94b 	bl	80053dc <HAL_UART_Transmit>
 8003146:	e000      	b.n	800314a <RTC_Send+0x66>
    if(rtc_uart == NULL) return;
 8003148:	bf00      	nop
}
 800314a:	3710      	adds	r7, #16
 800314c:	46bd      	mov	sp, r7
 800314e:	bd80      	pop	{r7, pc}
 8003150:	200003e8 	.word	0x200003e8
 8003154:	2000000c 	.word	0x2000000c

08003158 <RTC_Init>:

/* ======================================================================
 * Public API
 * ====================================================================== */
void RTC_Init(UART_HandleTypeDef *dwin_uart)
{
 8003158:	b580      	push	{r7, lr}
 800315a:	b082      	sub	sp, #8
 800315c:	af00      	add	r7, sp, #0
 800315e:	6078      	str	r0, [r7, #4]
    rtc_uart     = dwin_uart;
 8003160:	4a10      	ldr	r2, [pc, #64]	@ (80031a4 <RTC_Init+0x4c>)
 8003162:	687b      	ldr	r3, [r7, #4]
 8003164:	6013      	str	r3, [r2, #0]
    rtc_lastTick = HAL_GetTick();
 8003166:	f000 fef7 	bl	8003f58 <HAL_GetTick>
 800316a:	4603      	mov	r3, r0
 800316c:	4a0e      	ldr	r2, [pc, #56]	@ (80031a8 <RTC_Init+0x50>)
 800316e:	6013      	str	r3, [r2, #0]
    srand(HAL_GetTick());
 8003170:	f000 fef2 	bl	8003f58 <HAL_GetTick>
 8003174:	4603      	mov	r3, r0
 8003176:	4618      	mov	r0, r3
 8003178:	f002 ff42 	bl	8006000 <srand>
    rtc.weekday  = RTC_ComputeWeekday(rtc.year, rtc.month, rtc.day);
 800317c:	4b0b      	ldr	r3, [pc, #44]	@ (80031ac <RTC_Init+0x54>)
 800317e:	781b      	ldrb	r3, [r3, #0]
 8003180:	4a0a      	ldr	r2, [pc, #40]	@ (80031ac <RTC_Init+0x54>)
 8003182:	7851      	ldrb	r1, [r2, #1]
 8003184:	4a09      	ldr	r2, [pc, #36]	@ (80031ac <RTC_Init+0x54>)
 8003186:	7892      	ldrb	r2, [r2, #2]
 8003188:	4618      	mov	r0, r3
 800318a:	f7ff ff3f 	bl	800300c <RTC_ComputeWeekday>
 800318e:	4603      	mov	r3, r0
 8003190:	461a      	mov	r2, r3
 8003192:	4b06      	ldr	r3, [pc, #24]	@ (80031ac <RTC_Init+0x54>)
 8003194:	70da      	strb	r2, [r3, #3]
    RTC_Send();
 8003196:	f7ff ffa5 	bl	80030e4 <RTC_Send>
}
 800319a:	bf00      	nop
 800319c:	3708      	adds	r7, #8
 800319e:	46bd      	mov	sp, r7
 80031a0:	bd80      	pop	{r7, pc}
 80031a2:	bf00      	nop
 80031a4:	200003e8 	.word	0x200003e8
 80031a8:	200003ec 	.word	0x200003ec
 80031ac:	2000000c 	.word	0x2000000c

080031b0 <RTC_SetDateTime>:

void RTC_SetDateTime(uint8_t year, uint8_t month, uint8_t day,
                     uint8_t hour, uint8_t minute, uint8_t second)
{
 80031b0:	b590      	push	{r4, r7, lr}
 80031b2:	b083      	sub	sp, #12
 80031b4:	af00      	add	r7, sp, #0
 80031b6:	4604      	mov	r4, r0
 80031b8:	4608      	mov	r0, r1
 80031ba:	4611      	mov	r1, r2
 80031bc:	461a      	mov	r2, r3
 80031be:	4623      	mov	r3, r4
 80031c0:	71fb      	strb	r3, [r7, #7]
 80031c2:	4603      	mov	r3, r0
 80031c4:	71bb      	strb	r3, [r7, #6]
 80031c6:	460b      	mov	r3, r1
 80031c8:	717b      	strb	r3, [r7, #5]
 80031ca:	4613      	mov	r3, r2
 80031cc:	713b      	strb	r3, [r7, #4]
    if(month < 1 || month > 12) month = 1;
 80031ce:	79bb      	ldrb	r3, [r7, #6]
 80031d0:	2b00      	cmp	r3, #0
 80031d2:	d002      	beq.n	80031da <RTC_SetDateTime+0x2a>
 80031d4:	79bb      	ldrb	r3, [r7, #6]
 80031d6:	2b0c      	cmp	r3, #12
 80031d8:	d901      	bls.n	80031de <RTC_SetDateTime+0x2e>
 80031da:	2301      	movs	r3, #1
 80031dc:	71bb      	strb	r3, [r7, #6]
    if(day   < 1 || day   > 31) day   = 1;
 80031de:	797b      	ldrb	r3, [r7, #5]
 80031e0:	2b00      	cmp	r3, #0
 80031e2:	d002      	beq.n	80031ea <RTC_SetDateTime+0x3a>
 80031e4:	797b      	ldrb	r3, [r7, #5]
 80031e6:	2b1f      	cmp	r3, #31
 80031e8:	d901      	bls.n	80031ee <RTC_SetDateTime+0x3e>
 80031ea:	2301      	movs	r3, #1
 80031ec:	717b      	strb	r3, [r7, #5]
    rtc.year    = year % 100;
 80031ee:	79fb      	ldrb	r3, [r7, #7]
 80031f0:	4a25      	ldr	r2, [pc, #148]	@ (8003288 <RTC_SetDateTime+0xd8>)
 80031f2:	fba2 1203 	umull	r1, r2, r2, r3
 80031f6:	0952      	lsrs	r2, r2, #5
 80031f8:	2164      	movs	r1, #100	@ 0x64
 80031fa:	fb01 f202 	mul.w	r2, r1, r2
 80031fe:	1a9b      	subs	r3, r3, r2
 8003200:	b2da      	uxtb	r2, r3
 8003202:	4b22      	ldr	r3, [pc, #136]	@ (800328c <RTC_SetDateTime+0xdc>)
 8003204:	701a      	strb	r2, [r3, #0]
    rtc.month   = month;
 8003206:	4a21      	ldr	r2, [pc, #132]	@ (800328c <RTC_SetDateTime+0xdc>)
 8003208:	79bb      	ldrb	r3, [r7, #6]
 800320a:	7053      	strb	r3, [r2, #1]
    rtc.day     = day;
 800320c:	4a1f      	ldr	r2, [pc, #124]	@ (800328c <RTC_SetDateTime+0xdc>)
 800320e:	797b      	ldrb	r3, [r7, #5]
 8003210:	7093      	strb	r3, [r2, #2]
    rtc.hour    = hour   % 24;
 8003212:	793a      	ldrb	r2, [r7, #4]
 8003214:	4b1e      	ldr	r3, [pc, #120]	@ (8003290 <RTC_SetDateTime+0xe0>)
 8003216:	fba3 1302 	umull	r1, r3, r3, r2
 800321a:	0919      	lsrs	r1, r3, #4
 800321c:	460b      	mov	r3, r1
 800321e:	005b      	lsls	r3, r3, #1
 8003220:	440b      	add	r3, r1
 8003222:	00db      	lsls	r3, r3, #3
 8003224:	1ad3      	subs	r3, r2, r3
 8003226:	b2da      	uxtb	r2, r3
 8003228:	4b18      	ldr	r3, [pc, #96]	@ (800328c <RTC_SetDateTime+0xdc>)
 800322a:	711a      	strb	r2, [r3, #4]
    rtc.minute  = minute % 60;
 800322c:	7e3a      	ldrb	r2, [r7, #24]
 800322e:	4b19      	ldr	r3, [pc, #100]	@ (8003294 <RTC_SetDateTime+0xe4>)
 8003230:	fba3 1302 	umull	r1, r3, r3, r2
 8003234:	0959      	lsrs	r1, r3, #5
 8003236:	460b      	mov	r3, r1
 8003238:	011b      	lsls	r3, r3, #4
 800323a:	1a5b      	subs	r3, r3, r1
 800323c:	009b      	lsls	r3, r3, #2
 800323e:	1ad3      	subs	r3, r2, r3
 8003240:	b2da      	uxtb	r2, r3
 8003242:	4b12      	ldr	r3, [pc, #72]	@ (800328c <RTC_SetDateTime+0xdc>)
 8003244:	715a      	strb	r2, [r3, #5]
    rtc.second  = second % 60;
 8003246:	7f3a      	ldrb	r2, [r7, #28]
 8003248:	4b12      	ldr	r3, [pc, #72]	@ (8003294 <RTC_SetDateTime+0xe4>)
 800324a:	fba3 1302 	umull	r1, r3, r3, r2
 800324e:	0959      	lsrs	r1, r3, #5
 8003250:	460b      	mov	r3, r1
 8003252:	011b      	lsls	r3, r3, #4
 8003254:	1a5b      	subs	r3, r3, r1
 8003256:	009b      	lsls	r3, r3, #2
 8003258:	1ad3      	subs	r3, r2, r3
 800325a:	b2da      	uxtb	r2, r3
 800325c:	4b0b      	ldr	r3, [pc, #44]	@ (800328c <RTC_SetDateTime+0xdc>)
 800325e:	719a      	strb	r2, [r3, #6]
    rtc.weekday = RTC_ComputeWeekday(rtc.year, rtc.month, rtc.day);
 8003260:	4b0a      	ldr	r3, [pc, #40]	@ (800328c <RTC_SetDateTime+0xdc>)
 8003262:	781b      	ldrb	r3, [r3, #0]
 8003264:	4a09      	ldr	r2, [pc, #36]	@ (800328c <RTC_SetDateTime+0xdc>)
 8003266:	7851      	ldrb	r1, [r2, #1]
 8003268:	4a08      	ldr	r2, [pc, #32]	@ (800328c <RTC_SetDateTime+0xdc>)
 800326a:	7892      	ldrb	r2, [r2, #2]
 800326c:	4618      	mov	r0, r3
 800326e:	f7ff fecd 	bl	800300c <RTC_ComputeWeekday>
 8003272:	4603      	mov	r3, r0
 8003274:	461a      	mov	r2, r3
 8003276:	4b05      	ldr	r3, [pc, #20]	@ (800328c <RTC_SetDateTime+0xdc>)
 8003278:	70da      	strb	r2, [r3, #3]
    RTC_Send();
 800327a:	f7ff ff33 	bl	80030e4 <RTC_Send>
}
 800327e:	bf00      	nop
 8003280:	370c      	adds	r7, #12
 8003282:	46bd      	mov	sp, r7
 8003284:	bd90      	pop	{r4, r7, pc}
 8003286:	bf00      	nop
 8003288:	51eb851f 	.word	0x51eb851f
 800328c:	2000000c 	.word	0x2000000c
 8003290:	aaaaaaab 	.word	0xaaaaaaab
 8003294:	88888889 	.word	0x88888889

08003298 <RTC_SetRandom>:

void RTC_SetRandom(void)
{
 8003298:	b590      	push	{r4, r7, lr}
 800329a:	b085      	sub	sp, #20
 800329c:	af02      	add	r7, sp, #8
    uint8_t y  = (uint8_t)(24 + (rand() % 3));   /* 24-26 */
 800329e:	f002 fedd 	bl	800605c <rand>
 80032a2:	4602      	mov	r2, r0
 80032a4:	4b37      	ldr	r3, [pc, #220]	@ (8003384 <RTC_SetRandom+0xec>)
 80032a6:	fb83 3102 	smull	r3, r1, r3, r2
 80032aa:	17d3      	asrs	r3, r2, #31
 80032ac:	1ac9      	subs	r1, r1, r3
 80032ae:	460b      	mov	r3, r1
 80032b0:	005b      	lsls	r3, r3, #1
 80032b2:	440b      	add	r3, r1
 80032b4:	1ad1      	subs	r1, r2, r3
 80032b6:	b2cb      	uxtb	r3, r1
 80032b8:	3318      	adds	r3, #24
 80032ba:	71fb      	strb	r3, [r7, #7]
    uint8_t mo = (uint8_t)(1  + (rand() % 12));  /* 1-12  */
 80032bc:	f002 fece 	bl	800605c <rand>
 80032c0:	4602      	mov	r2, r0
 80032c2:	4b31      	ldr	r3, [pc, #196]	@ (8003388 <RTC_SetRandom+0xf0>)
 80032c4:	fb83 1302 	smull	r1, r3, r3, r2
 80032c8:	1059      	asrs	r1, r3, #1
 80032ca:	17d3      	asrs	r3, r2, #31
 80032cc:	1ac9      	subs	r1, r1, r3
 80032ce:	460b      	mov	r3, r1
 80032d0:	005b      	lsls	r3, r3, #1
 80032d2:	440b      	add	r3, r1
 80032d4:	009b      	lsls	r3, r3, #2
 80032d6:	1ad1      	subs	r1, r2, r3
 80032d8:	b2cb      	uxtb	r3, r1
 80032da:	3301      	adds	r3, #1
 80032dc:	71bb      	strb	r3, [r7, #6]
    uint8_t d  = (uint8_t)(1  + (rand() % 28));  /* 1-28  */
 80032de:	f002 febd 	bl	800605c <rand>
 80032e2:	4602      	mov	r2, r0
 80032e4:	4b29      	ldr	r3, [pc, #164]	@ (800338c <RTC_SetRandom+0xf4>)
 80032e6:	fb83 1302 	smull	r1, r3, r3, r2
 80032ea:	4413      	add	r3, r2
 80032ec:	1119      	asrs	r1, r3, #4
 80032ee:	17d3      	asrs	r3, r2, #31
 80032f0:	1ac9      	subs	r1, r1, r3
 80032f2:	460b      	mov	r3, r1
 80032f4:	00db      	lsls	r3, r3, #3
 80032f6:	1a5b      	subs	r3, r3, r1
 80032f8:	009b      	lsls	r3, r3, #2
 80032fa:	1ad1      	subs	r1, r2, r3
 80032fc:	b2cb      	uxtb	r3, r1
 80032fe:	3301      	adds	r3, #1
 8003300:	717b      	strb	r3, [r7, #5]
    uint8_t h  = (uint8_t)(rand() % 24);
 8003302:	f002 feab 	bl	800605c <rand>
 8003306:	4602      	mov	r2, r0
 8003308:	4b1f      	ldr	r3, [pc, #124]	@ (8003388 <RTC_SetRandom+0xf0>)
 800330a:	fb83 1302 	smull	r1, r3, r3, r2
 800330e:	1099      	asrs	r1, r3, #2
 8003310:	17d3      	asrs	r3, r2, #31
 8003312:	1ac9      	subs	r1, r1, r3
 8003314:	460b      	mov	r3, r1
 8003316:	005b      	lsls	r3, r3, #1
 8003318:	440b      	add	r3, r1
 800331a:	00db      	lsls	r3, r3, #3
 800331c:	1ad1      	subs	r1, r2, r3
 800331e:	460b      	mov	r3, r1
 8003320:	713b      	strb	r3, [r7, #4]
    uint8_t mi = (uint8_t)(rand() % 60);
 8003322:	f002 fe9b 	bl	800605c <rand>
 8003326:	4602      	mov	r2, r0
 8003328:	4b19      	ldr	r3, [pc, #100]	@ (8003390 <RTC_SetRandom+0xf8>)
 800332a:	fb83 1302 	smull	r1, r3, r3, r2
 800332e:	4413      	add	r3, r2
 8003330:	1159      	asrs	r1, r3, #5
 8003332:	17d3      	asrs	r3, r2, #31
 8003334:	1ac9      	subs	r1, r1, r3
 8003336:	460b      	mov	r3, r1
 8003338:	011b      	lsls	r3, r3, #4
 800333a:	1a5b      	subs	r3, r3, r1
 800333c:	009b      	lsls	r3, r3, #2
 800333e:	1ad1      	subs	r1, r2, r3
 8003340:	460b      	mov	r3, r1
 8003342:	70fb      	strb	r3, [r7, #3]
    uint8_t s  = (uint8_t)(rand() % 60);
 8003344:	f002 fe8a 	bl	800605c <rand>
 8003348:	4602      	mov	r2, r0
 800334a:	4b11      	ldr	r3, [pc, #68]	@ (8003390 <RTC_SetRandom+0xf8>)
 800334c:	fb83 1302 	smull	r1, r3, r3, r2
 8003350:	4413      	add	r3, r2
 8003352:	1159      	asrs	r1, r3, #5
 8003354:	17d3      	asrs	r3, r2, #31
 8003356:	1ac9      	subs	r1, r1, r3
 8003358:	460b      	mov	r3, r1
 800335a:	011b      	lsls	r3, r3, #4
 800335c:	1a5b      	subs	r3, r3, r1
 800335e:	009b      	lsls	r3, r3, #2
 8003360:	1ad1      	subs	r1, r2, r3
 8003362:	460b      	mov	r3, r1
 8003364:	70bb      	strb	r3, [r7, #2]
    RTC_SetDateTime(y, mo, d, h, mi, s);
 8003366:	793c      	ldrb	r4, [r7, #4]
 8003368:	797a      	ldrb	r2, [r7, #5]
 800336a:	79b9      	ldrb	r1, [r7, #6]
 800336c:	79f8      	ldrb	r0, [r7, #7]
 800336e:	78bb      	ldrb	r3, [r7, #2]
 8003370:	9301      	str	r3, [sp, #4]
 8003372:	78fb      	ldrb	r3, [r7, #3]
 8003374:	9300      	str	r3, [sp, #0]
 8003376:	4623      	mov	r3, r4
 8003378:	f7ff ff1a 	bl	80031b0 <RTC_SetDateTime>
}
 800337c:	bf00      	nop
 800337e:	370c      	adds	r7, #12
 8003380:	46bd      	mov	sp, r7
 8003382:	bd90      	pop	{r4, r7, pc}
 8003384:	55555556 	.word	0x55555556
 8003388:	2aaaaaab 	.word	0x2aaaaaab
 800338c:	92492493 	.word	0x92492493
 8003390:	88888889 	.word	0x88888889

08003394 <RTC_GetTime>:

void RTC_GetTime(RTC_Time_t *out)  { if(out) *out = rtc; }
 8003394:	b480      	push	{r7}
 8003396:	b083      	sub	sp, #12
 8003398:	af00      	add	r7, sp, #0
 800339a:	6078      	str	r0, [r7, #4]
 800339c:	687b      	ldr	r3, [r7, #4]
 800339e:	2b00      	cmp	r3, #0
 80033a0:	d007      	beq.n	80033b2 <RTC_GetTime+0x1e>
 80033a2:	687b      	ldr	r3, [r7, #4]
 80033a4:	4a05      	ldr	r2, [pc, #20]	@ (80033bc <RTC_GetTime+0x28>)
 80033a6:	6810      	ldr	r0, [r2, #0]
 80033a8:	6018      	str	r0, [r3, #0]
 80033aa:	8891      	ldrh	r1, [r2, #4]
 80033ac:	7992      	ldrb	r2, [r2, #6]
 80033ae:	8099      	strh	r1, [r3, #4]
 80033b0:	719a      	strb	r2, [r3, #6]
 80033b2:	bf00      	nop
 80033b4:	370c      	adds	r7, #12
 80033b6:	46bd      	mov	sp, r7
 80033b8:	bc80      	pop	{r7}
 80033ba:	4770      	bx	lr
 80033bc:	2000000c 	.word	0x2000000c

080033c0 <RTC_Advance1s>:

/* ======================================================================
 * Tick
 * ====================================================================== */
static void RTC_Advance1s(void)
{
 80033c0:	b598      	push	{r3, r4, r7, lr}
 80033c2:	af00      	add	r7, sp, #0
    if(++rtc.second < 60) return;
 80033c4:	4b3a      	ldr	r3, [pc, #232]	@ (80034b0 <RTC_Advance1s+0xf0>)
 80033c6:	799b      	ldrb	r3, [r3, #6]
 80033c8:	3301      	adds	r3, #1
 80033ca:	b2da      	uxtb	r2, r3
 80033cc:	4b38      	ldr	r3, [pc, #224]	@ (80034b0 <RTC_Advance1s+0xf0>)
 80033ce:	719a      	strb	r2, [r3, #6]
 80033d0:	4b37      	ldr	r3, [pc, #220]	@ (80034b0 <RTC_Advance1s+0xf0>)
 80033d2:	799b      	ldrb	r3, [r3, #6]
 80033d4:	2b3b      	cmp	r3, #59	@ 0x3b
 80033d6:	d961      	bls.n	800349c <RTC_Advance1s+0xdc>
    rtc.second = 0;
 80033d8:	4b35      	ldr	r3, [pc, #212]	@ (80034b0 <RTC_Advance1s+0xf0>)
 80033da:	2200      	movs	r2, #0
 80033dc:	719a      	strb	r2, [r3, #6]

    if(++rtc.minute < 60) return;
 80033de:	4b34      	ldr	r3, [pc, #208]	@ (80034b0 <RTC_Advance1s+0xf0>)
 80033e0:	795b      	ldrb	r3, [r3, #5]
 80033e2:	3301      	adds	r3, #1
 80033e4:	b2da      	uxtb	r2, r3
 80033e6:	4b32      	ldr	r3, [pc, #200]	@ (80034b0 <RTC_Advance1s+0xf0>)
 80033e8:	715a      	strb	r2, [r3, #5]
 80033ea:	4b31      	ldr	r3, [pc, #196]	@ (80034b0 <RTC_Advance1s+0xf0>)
 80033ec:	795b      	ldrb	r3, [r3, #5]
 80033ee:	2b3b      	cmp	r3, #59	@ 0x3b
 80033f0:	d956      	bls.n	80034a0 <RTC_Advance1s+0xe0>
    rtc.minute = 0;
 80033f2:	4b2f      	ldr	r3, [pc, #188]	@ (80034b0 <RTC_Advance1s+0xf0>)
 80033f4:	2200      	movs	r2, #0
 80033f6:	715a      	strb	r2, [r3, #5]

    if(++rtc.hour < 24) return;
 80033f8:	4b2d      	ldr	r3, [pc, #180]	@ (80034b0 <RTC_Advance1s+0xf0>)
 80033fa:	791b      	ldrb	r3, [r3, #4]
 80033fc:	3301      	adds	r3, #1
 80033fe:	b2da      	uxtb	r2, r3
 8003400:	4b2b      	ldr	r3, [pc, #172]	@ (80034b0 <RTC_Advance1s+0xf0>)
 8003402:	711a      	strb	r2, [r3, #4]
 8003404:	4b2a      	ldr	r3, [pc, #168]	@ (80034b0 <RTC_Advance1s+0xf0>)
 8003406:	791b      	ldrb	r3, [r3, #4]
 8003408:	2b17      	cmp	r3, #23
 800340a:	d94b      	bls.n	80034a4 <RTC_Advance1s+0xe4>
    rtc.hour = 0;
 800340c:	4b28      	ldr	r3, [pc, #160]	@ (80034b0 <RTC_Advance1s+0xf0>)
 800340e:	2200      	movs	r2, #0
 8003410:	711a      	strb	r2, [r3, #4]

    rtc.weekday = (uint8_t)((rtc.weekday + 1) % 7);
 8003412:	4b27      	ldr	r3, [pc, #156]	@ (80034b0 <RTC_Advance1s+0xf0>)
 8003414:	78db      	ldrb	r3, [r3, #3]
 8003416:	1c5a      	adds	r2, r3, #1
 8003418:	4b26      	ldr	r3, [pc, #152]	@ (80034b4 <RTC_Advance1s+0xf4>)
 800341a:	fb83 1302 	smull	r1, r3, r3, r2
 800341e:	4413      	add	r3, r2
 8003420:	1099      	asrs	r1, r3, #2
 8003422:	17d3      	asrs	r3, r2, #31
 8003424:	1ac9      	subs	r1, r1, r3
 8003426:	460b      	mov	r3, r1
 8003428:	00db      	lsls	r3, r3, #3
 800342a:	1a5b      	subs	r3, r3, r1
 800342c:	1ad1      	subs	r1, r2, r3
 800342e:	b2ca      	uxtb	r2, r1
 8003430:	4b1f      	ldr	r3, [pc, #124]	@ (80034b0 <RTC_Advance1s+0xf0>)
 8003432:	70da      	strb	r2, [r3, #3]
    if(++rtc.day <= RTC_MonthLength(rtc.year, rtc.month)) return;
 8003434:	4b1e      	ldr	r3, [pc, #120]	@ (80034b0 <RTC_Advance1s+0xf0>)
 8003436:	789b      	ldrb	r3, [r3, #2]
 8003438:	3301      	adds	r3, #1
 800343a:	b2da      	uxtb	r2, r3
 800343c:	4b1c      	ldr	r3, [pc, #112]	@ (80034b0 <RTC_Advance1s+0xf0>)
 800343e:	709a      	strb	r2, [r3, #2]
 8003440:	4b1b      	ldr	r3, [pc, #108]	@ (80034b0 <RTC_Advance1s+0xf0>)
 8003442:	789c      	ldrb	r4, [r3, #2]
 8003444:	4b1a      	ldr	r3, [pc, #104]	@ (80034b0 <RTC_Advance1s+0xf0>)
 8003446:	781b      	ldrb	r3, [r3, #0]
 8003448:	4a19      	ldr	r2, [pc, #100]	@ (80034b0 <RTC_Advance1s+0xf0>)
 800344a:	7852      	ldrb	r2, [r2, #1]
 800344c:	4611      	mov	r1, r2
 800344e:	4618      	mov	r0, r3
 8003450:	f7ff fdba 	bl	8002fc8 <RTC_MonthLength>
 8003454:	4603      	mov	r3, r0
 8003456:	429c      	cmp	r4, r3
 8003458:	d926      	bls.n	80034a8 <RTC_Advance1s+0xe8>
    rtc.day = 1;
 800345a:	4b15      	ldr	r3, [pc, #84]	@ (80034b0 <RTC_Advance1s+0xf0>)
 800345c:	2201      	movs	r2, #1
 800345e:	709a      	strb	r2, [r3, #2]

    if(++rtc.month <= 12) return;
 8003460:	4b13      	ldr	r3, [pc, #76]	@ (80034b0 <RTC_Advance1s+0xf0>)
 8003462:	785b      	ldrb	r3, [r3, #1]
 8003464:	3301      	adds	r3, #1
 8003466:	b2da      	uxtb	r2, r3
 8003468:	4b11      	ldr	r3, [pc, #68]	@ (80034b0 <RTC_Advance1s+0xf0>)
 800346a:	705a      	strb	r2, [r3, #1]
 800346c:	4b10      	ldr	r3, [pc, #64]	@ (80034b0 <RTC_Advance1s+0xf0>)
 800346e:	785b      	ldrb	r3, [r3, #1]
 8003470:	2b0c      	cmp	r3, #12
 8003472:	d91b      	bls.n	80034ac <RTC_Advance1s+0xec>
    rtc.month = 1;
 8003474:	4b0e      	ldr	r3, [pc, #56]	@ (80034b0 <RTC_Advance1s+0xf0>)
 8003476:	2201      	movs	r2, #1
 8003478:	705a      	strb	r2, [r3, #1]

    rtc.year = (uint8_t)((rtc.year + 1) % 100);
 800347a:	4b0d      	ldr	r3, [pc, #52]	@ (80034b0 <RTC_Advance1s+0xf0>)
 800347c:	781b      	ldrb	r3, [r3, #0]
 800347e:	3301      	adds	r3, #1
 8003480:	4a0d      	ldr	r2, [pc, #52]	@ (80034b8 <RTC_Advance1s+0xf8>)
 8003482:	fb82 1203 	smull	r1, r2, r2, r3
 8003486:	1151      	asrs	r1, r2, #5
 8003488:	17da      	asrs	r2, r3, #31
 800348a:	1a8a      	subs	r2, r1, r2
 800348c:	2164      	movs	r1, #100	@ 0x64
 800348e:	fb01 f202 	mul.w	r2, r1, r2
 8003492:	1a9a      	subs	r2, r3, r2
 8003494:	b2d2      	uxtb	r2, r2
 8003496:	4b06      	ldr	r3, [pc, #24]	@ (80034b0 <RTC_Advance1s+0xf0>)
 8003498:	701a      	strb	r2, [r3, #0]
 800349a:	e008      	b.n	80034ae <RTC_Advance1s+0xee>
    if(++rtc.second < 60) return;
 800349c:	bf00      	nop
 800349e:	e006      	b.n	80034ae <RTC_Advance1s+0xee>
    if(++rtc.minute < 60) return;
 80034a0:	bf00      	nop
 80034a2:	e004      	b.n	80034ae <RTC_Advance1s+0xee>
    if(++rtc.hour < 24) return;
 80034a4:	bf00      	nop
 80034a6:	e002      	b.n	80034ae <RTC_Advance1s+0xee>
    if(++rtc.day <= RTC_MonthLength(rtc.year, rtc.month)) return;
 80034a8:	bf00      	nop
 80034aa:	e000      	b.n	80034ae <RTC_Advance1s+0xee>
    if(++rtc.month <= 12) return;
 80034ac:	bf00      	nop
}
 80034ae:	bd98      	pop	{r3, r4, r7, pc}
 80034b0:	2000000c 	.word	0x2000000c
 80034b4:	92492493 	.word	0x92492493
 80034b8:	51eb851f 	.word	0x51eb851f

080034bc <RTC_Tick>:

void RTC_Tick(void)
{
 80034bc:	b580      	push	{r7, lr}
 80034be:	b082      	sub	sp, #8
 80034c0:	af00      	add	r7, sp, #0
    uint32_t now = HAL_GetTick();
 80034c2:	f000 fd49 	bl	8003f58 <HAL_GetTick>
 80034c6:	6078      	str	r0, [r7, #4]
    if((now - rtc_lastTick) < RTC_UPDATE_MS) return;
 80034c8:	4b0a      	ldr	r3, [pc, #40]	@ (80034f4 <RTC_Tick+0x38>)
 80034ca:	681b      	ldr	r3, [r3, #0]
 80034cc:	687a      	ldr	r2, [r7, #4]
 80034ce:	1ad3      	subs	r3, r2, r3
 80034d0:	f5b3 7f7a 	cmp.w	r3, #1000	@ 0x3e8
 80034d4:	d30a      	bcc.n	80034ec <RTC_Tick+0x30>
    rtc_lastTick += RTC_UPDATE_MS;   /* drift-free cadence */
 80034d6:	4b07      	ldr	r3, [pc, #28]	@ (80034f4 <RTC_Tick+0x38>)
 80034d8:	681b      	ldr	r3, [r3, #0]
 80034da:	f503 737a 	add.w	r3, r3, #1000	@ 0x3e8
 80034de:	4a05      	ldr	r2, [pc, #20]	@ (80034f4 <RTC_Tick+0x38>)
 80034e0:	6013      	str	r3, [r2, #0]

    RTC_Advance1s();
 80034e2:	f7ff ff6d 	bl	80033c0 <RTC_Advance1s>
    RTC_Send();
 80034e6:	f7ff fdfd 	bl	80030e4 <RTC_Send>
 80034ea:	e000      	b.n	80034ee <RTC_Tick+0x32>
    if((now - rtc_lastTick) < RTC_UPDATE_MS) return;
 80034ec:	bf00      	nop

    /* For a pure "new random value every second" demo instead of a
     * ticking clock, replace the two lines above with: RTC_SetRandom(); */
}
 80034ee:	3708      	adds	r7, #8
 80034f0:	46bd      	mov	sp, r7
 80034f2:	bd80      	pop	{r7, pc}
 80034f4:	200003ec 	.word	0x200003ec

080034f8 <Sensor_Init>:
/* ======================================================================
 * Init
 * ====================================================================== */

void Sensor_Init(void)
{
 80034f8:	b480      	push	{r7}
 80034fa:	b085      	sub	sp, #20
 80034fc:	af00      	add	r7, sp, #0
    selected_sensor  = 0;
 80034fe:	4b14      	ldr	r3, [pc, #80]	@ (8003550 <Sensor_Init+0x58>)
 8003500:	2200      	movs	r2, #0
 8003502:	701a      	strb	r2, [r3, #0]
    edit_mode        = 0;
 8003504:	4b13      	ldr	r3, [pc, #76]	@ (8003554 <Sensor_Init+0x5c>)
 8003506:	2200      	movs	r2, #0
 8003508:	701a      	strb	r2, [r3, #0]
    sensorPageActive = 0;
 800350a:	4b13      	ldr	r3, [pc, #76]	@ (8003558 <Sensor_Init+0x60>)
 800350c:	2200      	movs	r2, #0
 800350e:	701a      	strb	r2, [r3, #0]
    sensorDirty      = 0;
 8003510:	4b12      	ldr	r3, [pc, #72]	@ (800355c <Sensor_Init+0x64>)
 8003512:	2200      	movs	r2, #0
 8003514:	701a      	strb	r2, [r3, #0]

    testModeActive = 0;
 8003516:	4b12      	ldr	r3, [pc, #72]	@ (8003560 <Sensor_Init+0x68>)
 8003518:	2200      	movs	r2, #0
 800351a:	701a      	strb	r2, [r3, #0]
    testSensorType = 0;
 800351c:	4b11      	ldr	r3, [pc, #68]	@ (8003564 <Sensor_Init+0x6c>)
 800351e:	2200      	movs	r2, #0
 8003520:	701a      	strb	r2, [r3, #0]
    testValue      = 0;
 8003522:	4b11      	ldr	r3, [pc, #68]	@ (8003568 <Sensor_Init+0x70>)
 8003524:	2200      	movs	r2, #0
 8003526:	701a      	strb	r2, [r3, #0]

    /* Zero-fill all fields including leg / battery */
    SensorState_t empty = {0};
 8003528:	1d3b      	adds	r3, r7, #4
 800352a:	2200      	movs	r2, #0
 800352c:	601a      	str	r2, [r3, #0]
 800352e:	605a      	str	r2, [r3, #4]
 8003530:	f8c3 2007 	str.w	r2, [r3, #7]
    sensorState = empty;
 8003534:	4b0d      	ldr	r3, [pc, #52]	@ (800356c <Sensor_Init+0x74>)
 8003536:	1d3a      	adds	r2, r7, #4
 8003538:	ca07      	ldmia	r2, {r0, r1, r2}
 800353a:	c303      	stmia	r3!, {r0, r1}
 800353c:	801a      	strh	r2, [r3, #0]
 800353e:	3302      	adds	r3, #2
 8003540:	0c12      	lsrs	r2, r2, #16
 8003542:	701a      	strb	r2, [r3, #0]
}
 8003544:	bf00      	nop
 8003546:	3714      	adds	r7, #20
 8003548:	46bd      	mov	sp, r7
 800354a:	bc80      	pop	{r7}
 800354c:	4770      	bx	lr
 800354e:	bf00      	nop
 8003550:	200003fb 	.word	0x200003fb
 8003554:	200003fc 	.word	0x200003fc
 8003558:	200003fd 	.word	0x200003fd
 800355c:	200003fe 	.word	0x200003fe
 8003560:	200003ff 	.word	0x200003ff
 8003564:	20000400 	.word	0x20000400
 8003568:	20000401 	.word	0x20000401
 800356c:	200003f0 	.word	0x200003f0

08003570 <Sensor_IsActive>:
        LCD_ShowSensorPage(PAGE_SENSOR_1);
    }
}

uint8_t Sensor_IsActive(void)
{
 8003570:	b480      	push	{r7}
 8003572:	af00      	add	r7, sp, #0
    return sensorPageActive;
 8003574:	4b02      	ldr	r3, [pc, #8]	@ (8003580 <Sensor_IsActive+0x10>)
 8003576:	781b      	ldrb	r3, [r3, #0]
}
 8003578:	4618      	mov	r0, r3
 800357a:	46bd      	mov	sp, r7
 800357c:	bc80      	pop	{r7}
 800357e:	4770      	bx	lr
 8003580:	200003fd 	.word	0x200003fd

08003584 <Sensor_GetActualHeight>:
 * FIX:
 *   Actual height now comes from LEG1_UP.
 *   Slide now comes from LEG2_UP.
 * ====================================================================== */
uint8_t Sensor_GetActualHeight(void)
{
 8003584:	b480      	push	{r7}
 8003586:	af00      	add	r7, sp, #0
    return sensorState.leg1_up;     /* Height screen value from LEG1_UP */
 8003588:	4b02      	ldr	r3, [pc, #8]	@ (8003594 <Sensor_GetActualHeight+0x10>)
 800358a:	799b      	ldrb	r3, [r3, #6]
}
 800358c:	4618      	mov	r0, r3
 800358e:	46bd      	mov	sp, r7
 8003590:	bc80      	pop	{r7}
 8003592:	4770      	bx	lr
 8003594:	200003f0 	.word	0x200003f0

08003598 <Sensor_GetSlide>:

uint8_t Sensor_GetSlide(void)
{
 8003598:	b480      	push	{r7}
 800359a:	af00      	add	r7, sp, #0
    return sensorState.leg2_up;     /* Slide screen value from LEG2_UP */
 800359c:	4b02      	ldr	r3, [pc, #8]	@ (80035a8 <Sensor_GetSlide+0x10>)
 800359e:	7a1b      	ldrb	r3, [r3, #8]
}
 80035a0:	4618      	mov	r0, r3
 80035a2:	46bd      	mov	sp, r7
 80035a4:	bc80      	pop	{r7}
 80035a6:	4770      	bx	lr
 80035a8:	200003f0 	.word	0x200003f0

080035ac <Sensor_ParsePacket>:
 *   BACK DN = back_down
 *   TREND   = trend
 *   REV     = reverse_trend
 * ====================================================================== */
void Sensor_ParsePacket(uint8_t *data)
{
 80035ac:	b5f0      	push	{r4, r5, r6, r7, lr}
 80035ae:	b089      	sub	sp, #36	@ 0x24
 80035b0:	af04      	add	r7, sp, #16
 80035b2:	6078      	str	r0, [r7, #4]
    /* Core motion sensors */
    sensorState.tilt_left     = data[0];
 80035b4:	687b      	ldr	r3, [r7, #4]
 80035b6:	781a      	ldrb	r2, [r3, #0]
 80035b8:	4b31      	ldr	r3, [pc, #196]	@ (8003680 <Sensor_ParsePacket+0xd4>)
 80035ba:	701a      	strb	r2, [r3, #0]
    sensorState.tilt_right    = data[1];
 80035bc:	687b      	ldr	r3, [r7, #4]
 80035be:	785a      	ldrb	r2, [r3, #1]
 80035c0:	4b2f      	ldr	r3, [pc, #188]	@ (8003680 <Sensor_ParsePacket+0xd4>)
 80035c2:	705a      	strb	r2, [r3, #1]
    /* data[2] reserved */
    sensorState.back_up       = data[3];
 80035c4:	687b      	ldr	r3, [r7, #4]
 80035c6:	78da      	ldrb	r2, [r3, #3]
 80035c8:	4b2d      	ldr	r3, [pc, #180]	@ (8003680 <Sensor_ParsePacket+0xd4>)
 80035ca:	709a      	strb	r2, [r3, #2]
    sensorState.back_down     = data[4];
 80035cc:	687b      	ldr	r3, [r7, #4]
 80035ce:	791a      	ldrb	r2, [r3, #4]
 80035d0:	4b2b      	ldr	r3, [pc, #172]	@ (8003680 <Sensor_ParsePacket+0xd4>)
 80035d2:	70da      	strb	r2, [r3, #3]
    sensorState.trend         = data[5];
 80035d4:	687b      	ldr	r3, [r7, #4]
 80035d6:	795a      	ldrb	r2, [r3, #5]
 80035d8:	4b29      	ldr	r3, [pc, #164]	@ (8003680 <Sensor_ParsePacket+0xd4>)
 80035da:	711a      	strb	r2, [r3, #4]
    sensorState.reverse_trend = data[6];
 80035dc:	687b      	ldr	r3, [r7, #4]
 80035de:	799a      	ldrb	r2, [r3, #6]
 80035e0:	4b27      	ldr	r3, [pc, #156]	@ (8003680 <Sensor_ParsePacket+0xd4>)
 80035e2:	715a      	strb	r2, [r3, #5]

    /* Leg actuator sensors */
    sensorState.leg1_up    = data[7];
 80035e4:	687b      	ldr	r3, [r7, #4]
 80035e6:	79da      	ldrb	r2, [r3, #7]
 80035e8:	4b25      	ldr	r3, [pc, #148]	@ (8003680 <Sensor_ParsePacket+0xd4>)
 80035ea:	719a      	strb	r2, [r3, #6]
    sensorState.leg1_down  = data[8];
 80035ec:	687b      	ldr	r3, [r7, #4]
 80035ee:	7a1a      	ldrb	r2, [r3, #8]
 80035f0:	4b23      	ldr	r3, [pc, #140]	@ (8003680 <Sensor_ParsePacket+0xd4>)
 80035f2:	71da      	strb	r2, [r3, #7]
    sensorState.leg2_up    = data[9];
 80035f4:	687b      	ldr	r3, [r7, #4]
 80035f6:	7a5a      	ldrb	r2, [r3, #9]
 80035f8:	4b21      	ldr	r3, [pc, #132]	@ (8003680 <Sensor_ParsePacket+0xd4>)
 80035fa:	721a      	strb	r2, [r3, #8]
    sensorState.leg2_down  = data[10];
 80035fc:	687b      	ldr	r3, [r7, #4]
 80035fe:	7a9a      	ldrb	r2, [r3, #10]
 8003600:	4b1f      	ldr	r3, [pc, #124]	@ (8003680 <Sensor_ParsePacket+0xd4>)
 8003602:	725a      	strb	r2, [r3, #9]

    /* Battery (clamp to valid range) */
    sensorState.battery_level = (data[11] > 4) ? 4 : data[11];
 8003604:	687b      	ldr	r3, [r7, #4]
 8003606:	330b      	adds	r3, #11
 8003608:	781b      	ldrb	r3, [r3, #0]
 800360a:	2b04      	cmp	r3, #4
 800360c:	bf28      	it	cs
 800360e:	2304      	movcs	r3, #4
 8003610:	b2da      	uxtb	r2, r3
 8003612:	4b1b      	ldr	r3, [pc, #108]	@ (8003680 <Sensor_ParsePacket+0xd4>)
 8003614:	729a      	strb	r2, [r3, #10]

    /* Mark debug icon page dirty for the main-loop update */
    sensorDirty = 1;
 8003616:	4b1b      	ldr	r3, [pc, #108]	@ (8003684 <Sensor_ParsePacket+0xd8>)
 8003618:	2201      	movs	r2, #1
 800361a:	701a      	strb	r2, [r3, #0]
    /*
     * FIXED SCREEN VALUES:
     *   Height screen value should follow LEG1_UP.
     *   Slide screen value should follow LEG2_UP.
     */
    uint8_t displayHeight = SENSOR_DISPLAY_HEIGHT();
 800361c:	4b18      	ldr	r3, [pc, #96]	@ (8003680 <Sensor_ParsePacket+0xd4>)
 800361e:	799b      	ldrb	r3, [r3, #6]
 8003620:	73fb      	strb	r3, [r7, #15]
    uint8_t displaySlide  = SENSOR_DISPLAY_SLIDE();
 8003622:	4b17      	ldr	r3, [pc, #92]	@ (8003680 <Sensor_ParsePacket+0xd4>)
 8003624:	7a1b      	ldrb	r3, [r3, #8]
 8003626:	73bb      	strb	r3, [r7, #14]

    /* GoBack + HeightDn read-only fields */
    /* Only screen Height and Slide mapping changed.
     * Actual leg variables are not modified.
     */
    LCD_RefreshHeightPage(sensorState.leg1_up, sensorState.leg2_up);
 8003628:	4b15      	ldr	r3, [pc, #84]	@ (8003680 <Sensor_ParsePacket+0xd4>)
 800362a:	799b      	ldrb	r3, [r3, #6]
 800362c:	4a14      	ldr	r2, [pc, #80]	@ (8003680 <Sensor_ParsePacket+0xd4>)
 800362e:	7a12      	ldrb	r2, [r2, #8]
 8003630:	4611      	mov	r1, r2
 8003632:	4618      	mov	r0, r3
 8003634:	f7ff f9dc 	bl	80029f0 <LCD_RefreshHeightPage>

    LCD_PushRTP1Values(
 8003638:	4b11      	ldr	r3, [pc, #68]	@ (8003680 <Sensor_ParsePacket+0xd4>)
 800363a:	799c      	ldrb	r4, [r3, #6]
 800363c:	4b10      	ldr	r3, [pc, #64]	@ (8003680 <Sensor_ParsePacket+0xd4>)
 800363e:	7a1d      	ldrb	r5, [r3, #8]
 8003640:	4b0f      	ldr	r3, [pc, #60]	@ (8003680 <Sensor_ParsePacket+0xd4>)
 8003642:	789e      	ldrb	r6, [r3, #2]
 8003644:	4b0e      	ldr	r3, [pc, #56]	@ (8003680 <Sensor_ParsePacket+0xd4>)
 8003646:	f893 c003 	ldrb.w	ip, [r3, #3]
 800364a:	4b0d      	ldr	r3, [pc, #52]	@ (8003680 <Sensor_ParsePacket+0xd4>)
 800364c:	781b      	ldrb	r3, [r3, #0]
 800364e:	4a0c      	ldr	r2, [pc, #48]	@ (8003680 <Sensor_ParsePacket+0xd4>)
 8003650:	7852      	ldrb	r2, [r2, #1]
 8003652:	490b      	ldr	r1, [pc, #44]	@ (8003680 <Sensor_ParsePacket+0xd4>)
 8003654:	7909      	ldrb	r1, [r1, #4]
 8003656:	480a      	ldr	r0, [pc, #40]	@ (8003680 <Sensor_ParsePacket+0xd4>)
 8003658:	7940      	ldrb	r0, [r0, #5]
 800365a:	9003      	str	r0, [sp, #12]
 800365c:	9102      	str	r1, [sp, #8]
 800365e:	9201      	str	r2, [sp, #4]
 8003660:	9300      	str	r3, [sp, #0]
 8003662:	4663      	mov	r3, ip
 8003664:	4632      	mov	r2, r6
 8003666:	4629      	mov	r1, r5
 8003668:	4620      	mov	r0, r4
 800366a:	f7ff fa0b 	bl	8002a84 <LCD_PushRTP1Values>
//        sensorState.leg2_up,
//        sensorState.leg2_down
//    );

    /* Battery level */
    LCD_UpdateBattery(sensorState.battery_level);
 800366e:	4b04      	ldr	r3, [pc, #16]	@ (8003680 <Sensor_ParsePacket+0xd4>)
 8003670:	7a9b      	ldrb	r3, [r3, #10]
 8003672:	4618      	mov	r0, r3
 8003674:	f7ff fa3e 	bl	8002af4 <LCD_UpdateBattery>
}
 8003678:	bf00      	nop
 800367a:	3714      	adds	r7, #20
 800367c:	46bd      	mov	sp, r7
 800367e:	bdf0      	pop	{r4, r5, r6, r7, pc}
 8003680:	200003f0 	.word	0x200003f0
 8003684:	200003fe 	.word	0x200003fe

08003688 <Sensor_UpdateDisplay>:
 *   - the sensor debug page is active, AND
 *   - new data has arrived since the last push (sensorDirty == 1)
 * This prevents flooding the DWIN with 6 VP writes every ~8ms.
 * ====================================================================== */
void Sensor_UpdateDisplay(void)
{
 8003688:	b580      	push	{r7, lr}
 800368a:	af00      	add	r7, sp, #0
    if(!sensorPageActive) return;
 800368c:	4b19      	ldr	r3, [pc, #100]	@ (80036f4 <Sensor_UpdateDisplay+0x6c>)
 800368e:	781b      	ldrb	r3, [r3, #0]
 8003690:	2b00      	cmp	r3, #0
 8003692:	d02b      	beq.n	80036ec <Sensor_UpdateDisplay+0x64>
    if(!sensorDirty)      return;   /* nothing changed — skip */
 8003694:	4b18      	ldr	r3, [pc, #96]	@ (80036f8 <Sensor_UpdateDisplay+0x70>)
 8003696:	781b      	ldrb	r3, [r3, #0]
 8003698:	2b00      	cmp	r3, #0
 800369a:	d029      	beq.n	80036f0 <Sensor_UpdateDisplay+0x68>

    LCD_UpdateSensorIcon(IA_SENSOR_TILT_L,  sensorState.tilt_left);
 800369c:	4b17      	ldr	r3, [pc, #92]	@ (80036fc <Sensor_UpdateDisplay+0x74>)
 800369e:	781b      	ldrb	r3, [r3, #0]
 80036a0:	4619      	mov	r1, r3
 80036a2:	2050      	movs	r0, #80	@ 0x50
 80036a4:	f7ff f87a 	bl	800279c <LCD_UpdateSensorIcon>
    LCD_UpdateSensorIcon(IA_SENSOR_TILT_R,  sensorState.tilt_right);
 80036a8:	4b14      	ldr	r3, [pc, #80]	@ (80036fc <Sensor_UpdateDisplay+0x74>)
 80036aa:	785b      	ldrb	r3, [r3, #1]
 80036ac:	4619      	mov	r1, r3
 80036ae:	2051      	movs	r0, #81	@ 0x51
 80036b0:	f7ff f874 	bl	800279c <LCD_UpdateSensorIcon>
    LCD_UpdateSensorIcon(IA_SENSOR_BACK_UP, sensorState.back_up);
 80036b4:	4b11      	ldr	r3, [pc, #68]	@ (80036fc <Sensor_UpdateDisplay+0x74>)
 80036b6:	789b      	ldrb	r3, [r3, #2]
 80036b8:	4619      	mov	r1, r3
 80036ba:	2052      	movs	r0, #82	@ 0x52
 80036bc:	f7ff f86e 	bl	800279c <LCD_UpdateSensorIcon>
    LCD_UpdateSensorIcon(IA_SENSOR_BACK_DN, sensorState.back_down);
 80036c0:	4b0e      	ldr	r3, [pc, #56]	@ (80036fc <Sensor_UpdateDisplay+0x74>)
 80036c2:	78db      	ldrb	r3, [r3, #3]
 80036c4:	4619      	mov	r1, r3
 80036c6:	2053      	movs	r0, #83	@ 0x53
 80036c8:	f7ff f868 	bl	800279c <LCD_UpdateSensorIcon>
    LCD_UpdateSensorIcon(IA_SENSOR_TREND,   sensorState.trend);
 80036cc:	4b0b      	ldr	r3, [pc, #44]	@ (80036fc <Sensor_UpdateDisplay+0x74>)
 80036ce:	791b      	ldrb	r3, [r3, #4]
 80036d0:	4619      	mov	r1, r3
 80036d2:	2054      	movs	r0, #84	@ 0x54
 80036d4:	f7ff f862 	bl	800279c <LCD_UpdateSensorIcon>
    LCD_UpdateSensorIcon(IA_SENSOR_REV,     sensorState.reverse_trend);
 80036d8:	4b08      	ldr	r3, [pc, #32]	@ (80036fc <Sensor_UpdateDisplay+0x74>)
 80036da:	795b      	ldrb	r3, [r3, #5]
 80036dc:	4619      	mov	r1, r3
 80036de:	2055      	movs	r0, #85	@ 0x55
 80036e0:	f7ff f85c 	bl	800279c <LCD_UpdateSensorIcon>

    sensorDirty = 0;
 80036e4:	4b04      	ldr	r3, [pc, #16]	@ (80036f8 <Sensor_UpdateDisplay+0x70>)
 80036e6:	2200      	movs	r2, #0
 80036e8:	701a      	strb	r2, [r3, #0]
 80036ea:	e002      	b.n	80036f2 <Sensor_UpdateDisplay+0x6a>
    if(!sensorPageActive) return;
 80036ec:	bf00      	nop
 80036ee:	e000      	b.n	80036f2 <Sensor_UpdateDisplay+0x6a>
    if(!sensorDirty)      return;   /* nothing changed — skip */
 80036f0:	bf00      	nop
}
 80036f2:	bd80      	pop	{r7, pc}
 80036f4:	200003fd 	.word	0x200003fd
 80036f8:	200003fe 	.word	0x200003fe
 80036fc:	200003f0 	.word	0x200003f0

08003700 <Sensor_ProcessKeys>:

/* ======================================================================
 * Key processing for the sensor debug / test page
 * ====================================================================== */
void Sensor_ProcessKeys(uint8_t cmd)
{
 8003700:	b580      	push	{r7, lr}
 8003702:	b082      	sub	sp, #8
 8003704:	af00      	add	r7, sp, #0
 8003706:	4603      	mov	r3, r0
 8003708:	71fb      	strb	r3, [r7, #7]
    if(!sensorPageActive) return;
 800370a:	4b21      	ldr	r3, [pc, #132]	@ (8003790 <Sensor_ProcessKeys+0x90>)
 800370c:	781b      	ldrb	r3, [r3, #0]
 800370e:	2b00      	cmp	r3, #0
 8003710:	d034      	beq.n	800377c <Sensor_ProcessKeys+0x7c>

    edit_mode = 1;
 8003712:	4b20      	ldr	r3, [pc, #128]	@ (8003794 <Sensor_ProcessKeys+0x94>)
 8003714:	2201      	movs	r2, #1
 8003716:	701a      	strb	r2, [r3, #0]

    switch(cmd)
 8003718:	79fb      	ldrb	r3, [r7, #7]
 800371a:	3b01      	subs	r3, #1
 800371c:	2b03      	cmp	r3, #3
 800371e:	d82f      	bhi.n	8003780 <Sensor_ProcessKeys+0x80>
 8003720:	a201      	add	r2, pc, #4	@ (adr r2, 8003728 <Sensor_ProcessKeys+0x28>)
 8003722:	f852 f023 	ldr.w	pc, [r2, r3, lsl #2]
 8003726:	bf00      	nop
 8003728:	08003739 	.word	0x08003739
 800372c:	08003745 	.word	0x08003745
 8003730:	08003751 	.word	0x08003751
 8003734:	08003767 	.word	0x08003767
    {
        case 0x01:
            increaseValue();
 8003738:	f000 f832 	bl	80037a0 <increaseValue>
            sensorDirty = 1;
 800373c:	4b16      	ldr	r3, [pc, #88]	@ (8003798 <Sensor_ProcessKeys+0x98>)
 800373e:	2201      	movs	r2, #1
 8003740:	701a      	strb	r2, [r3, #0]
            break;
 8003742:	e022      	b.n	800378a <Sensor_ProcessKeys+0x8a>

        case 0x02:
            decreaseValue();
 8003744:	f000 f876 	bl	8003834 <decreaseValue>
            sensorDirty = 1;
 8003748:	4b13      	ldr	r3, [pc, #76]	@ (8003798 <Sensor_ProcessKeys+0x98>)
 800374a:	2201      	movs	r2, #1
 800374c:	701a      	strb	r2, [r3, #0]
            break;
 800374e:	e01c      	b.n	800378a <Sensor_ProcessKeys+0x8a>

        case 0x03:
            if(selected_sensor < 5) selected_sensor++;
 8003750:	4b12      	ldr	r3, [pc, #72]	@ (800379c <Sensor_ProcessKeys+0x9c>)
 8003752:	781b      	ldrb	r3, [r3, #0]
 8003754:	2b04      	cmp	r3, #4
 8003756:	d815      	bhi.n	8003784 <Sensor_ProcessKeys+0x84>
 8003758:	4b10      	ldr	r3, [pc, #64]	@ (800379c <Sensor_ProcessKeys+0x9c>)
 800375a:	781b      	ldrb	r3, [r3, #0]
 800375c:	3301      	adds	r3, #1
 800375e:	b2da      	uxtb	r2, r3
 8003760:	4b0e      	ldr	r3, [pc, #56]	@ (800379c <Sensor_ProcessKeys+0x9c>)
 8003762:	701a      	strb	r2, [r3, #0]
            break;
 8003764:	e00e      	b.n	8003784 <Sensor_ProcessKeys+0x84>

        case 0x04:
            if(selected_sensor > 0) selected_sensor--;
 8003766:	4b0d      	ldr	r3, [pc, #52]	@ (800379c <Sensor_ProcessKeys+0x9c>)
 8003768:	781b      	ldrb	r3, [r3, #0]
 800376a:	2b00      	cmp	r3, #0
 800376c:	d00c      	beq.n	8003788 <Sensor_ProcessKeys+0x88>
 800376e:	4b0b      	ldr	r3, [pc, #44]	@ (800379c <Sensor_ProcessKeys+0x9c>)
 8003770:	781b      	ldrb	r3, [r3, #0]
 8003772:	3b01      	subs	r3, #1
 8003774:	b2da      	uxtb	r2, r3
 8003776:	4b09      	ldr	r3, [pc, #36]	@ (800379c <Sensor_ProcessKeys+0x9c>)
 8003778:	701a      	strb	r2, [r3, #0]
            break;
 800377a:	e005      	b.n	8003788 <Sensor_ProcessKeys+0x88>
    if(!sensorPageActive) return;
 800377c:	bf00      	nop
 800377e:	e004      	b.n	800378a <Sensor_ProcessKeys+0x8a>

        default:
            break;
 8003780:	bf00      	nop
 8003782:	e002      	b.n	800378a <Sensor_ProcessKeys+0x8a>
            break;
 8003784:	bf00      	nop
 8003786:	e000      	b.n	800378a <Sensor_ProcessKeys+0x8a>
            break;
 8003788:	bf00      	nop
    }
}
 800378a:	3708      	adds	r7, #8
 800378c:	46bd      	mov	sp, r7
 800378e:	bd80      	pop	{r7, pc}
 8003790:	200003fd 	.word	0x200003fd
 8003794:	200003fc 	.word	0x200003fc
 8003798:	200003fe 	.word	0x200003fe
 800379c:	200003fb 	.word	0x200003fb

080037a0 <increaseValue>:
/* ======================================================================
 * Value helpers
 * ====================================================================== */

static void increaseValue(void)
{
 80037a0:	b480      	push	{r7}
 80037a2:	af00      	add	r7, sp, #0
    switch(selected_sensor)
 80037a4:	4b21      	ldr	r3, [pc, #132]	@ (800382c <increaseValue+0x8c>)
 80037a6:	781b      	ldrb	r3, [r3, #0]
 80037a8:	2b05      	cmp	r3, #5
 80037aa:	d839      	bhi.n	8003820 <increaseValue+0x80>
 80037ac:	a201      	add	r2, pc, #4	@ (adr r2, 80037b4 <increaseValue+0x14>)
 80037ae:	f852 f023 	ldr.w	pc, [r2, r3, lsl #2]
 80037b2:	bf00      	nop
 80037b4:	080037cd 	.word	0x080037cd
 80037b8:	080037db 	.word	0x080037db
 80037bc:	080037e9 	.word	0x080037e9
 80037c0:	080037f7 	.word	0x080037f7
 80037c4:	08003805 	.word	0x08003805
 80037c8:	08003813 	.word	0x08003813
    {
        case 0: sensorState.tilt_left++;     break;
 80037cc:	4b18      	ldr	r3, [pc, #96]	@ (8003830 <increaseValue+0x90>)
 80037ce:	781b      	ldrb	r3, [r3, #0]
 80037d0:	3301      	adds	r3, #1
 80037d2:	b2da      	uxtb	r2, r3
 80037d4:	4b16      	ldr	r3, [pc, #88]	@ (8003830 <increaseValue+0x90>)
 80037d6:	701a      	strb	r2, [r3, #0]
 80037d8:	e023      	b.n	8003822 <increaseValue+0x82>
        case 1: sensorState.tilt_right++;    break;
 80037da:	4b15      	ldr	r3, [pc, #84]	@ (8003830 <increaseValue+0x90>)
 80037dc:	785b      	ldrb	r3, [r3, #1]
 80037de:	3301      	adds	r3, #1
 80037e0:	b2da      	uxtb	r2, r3
 80037e2:	4b13      	ldr	r3, [pc, #76]	@ (8003830 <increaseValue+0x90>)
 80037e4:	705a      	strb	r2, [r3, #1]
 80037e6:	e01c      	b.n	8003822 <increaseValue+0x82>
        case 2: sensorState.back_up++;       break;
 80037e8:	4b11      	ldr	r3, [pc, #68]	@ (8003830 <increaseValue+0x90>)
 80037ea:	789b      	ldrb	r3, [r3, #2]
 80037ec:	3301      	adds	r3, #1
 80037ee:	b2da      	uxtb	r2, r3
 80037f0:	4b0f      	ldr	r3, [pc, #60]	@ (8003830 <increaseValue+0x90>)
 80037f2:	709a      	strb	r2, [r3, #2]
 80037f4:	e015      	b.n	8003822 <increaseValue+0x82>
        case 3: sensorState.back_down++;     break;
 80037f6:	4b0e      	ldr	r3, [pc, #56]	@ (8003830 <increaseValue+0x90>)
 80037f8:	78db      	ldrb	r3, [r3, #3]
 80037fa:	3301      	adds	r3, #1
 80037fc:	b2da      	uxtb	r2, r3
 80037fe:	4b0c      	ldr	r3, [pc, #48]	@ (8003830 <increaseValue+0x90>)
 8003800:	70da      	strb	r2, [r3, #3]
 8003802:	e00e      	b.n	8003822 <increaseValue+0x82>
        case 4: sensorState.trend++;         break;
 8003804:	4b0a      	ldr	r3, [pc, #40]	@ (8003830 <increaseValue+0x90>)
 8003806:	791b      	ldrb	r3, [r3, #4]
 8003808:	3301      	adds	r3, #1
 800380a:	b2da      	uxtb	r2, r3
 800380c:	4b08      	ldr	r3, [pc, #32]	@ (8003830 <increaseValue+0x90>)
 800380e:	711a      	strb	r2, [r3, #4]
 8003810:	e007      	b.n	8003822 <increaseValue+0x82>
        case 5: sensorState.reverse_trend++; break;
 8003812:	4b07      	ldr	r3, [pc, #28]	@ (8003830 <increaseValue+0x90>)
 8003814:	795b      	ldrb	r3, [r3, #5]
 8003816:	3301      	adds	r3, #1
 8003818:	b2da      	uxtb	r2, r3
 800381a:	4b05      	ldr	r3, [pc, #20]	@ (8003830 <increaseValue+0x90>)
 800381c:	715a      	strb	r2, [r3, #5]
 800381e:	e000      	b.n	8003822 <increaseValue+0x82>
        default: break;
 8003820:	bf00      	nop
    }
}
 8003822:	bf00      	nop
 8003824:	46bd      	mov	sp, r7
 8003826:	bc80      	pop	{r7}
 8003828:	4770      	bx	lr
 800382a:	bf00      	nop
 800382c:	200003fb 	.word	0x200003fb
 8003830:	200003f0 	.word	0x200003f0

08003834 <decreaseValue>:

static void decreaseValue(void)
{
 8003834:	b480      	push	{r7}
 8003836:	af00      	add	r7, sp, #0
    switch(selected_sensor)
 8003838:	4b33      	ldr	r3, [pc, #204]	@ (8003908 <decreaseValue+0xd4>)
 800383a:	781b      	ldrb	r3, [r3, #0]
 800383c:	2b05      	cmp	r3, #5
 800383e:	d851      	bhi.n	80038e4 <decreaseValue+0xb0>
 8003840:	a201      	add	r2, pc, #4	@ (adr r2, 8003848 <decreaseValue+0x14>)
 8003842:	f852 f023 	ldr.w	pc, [r2, r3, lsl #2]
 8003846:	bf00      	nop
 8003848:	08003861 	.word	0x08003861
 800384c:	08003877 	.word	0x08003877
 8003850:	0800388d 	.word	0x0800388d
 8003854:	080038a3 	.word	0x080038a3
 8003858:	080038b9 	.word	0x080038b9
 800385c:	080038cf 	.word	0x080038cf
    {
        case 0:
            if(sensorState.tilt_left > 0) sensorState.tilt_left--;
 8003860:	4b2a      	ldr	r3, [pc, #168]	@ (800390c <decreaseValue+0xd8>)
 8003862:	781b      	ldrb	r3, [r3, #0]
 8003864:	2b00      	cmp	r3, #0
 8003866:	d03f      	beq.n	80038e8 <decreaseValue+0xb4>
 8003868:	4b28      	ldr	r3, [pc, #160]	@ (800390c <decreaseValue+0xd8>)
 800386a:	781b      	ldrb	r3, [r3, #0]
 800386c:	3b01      	subs	r3, #1
 800386e:	b2da      	uxtb	r2, r3
 8003870:	4b26      	ldr	r3, [pc, #152]	@ (800390c <decreaseValue+0xd8>)
 8003872:	701a      	strb	r2, [r3, #0]
            break;
 8003874:	e038      	b.n	80038e8 <decreaseValue+0xb4>

        case 1:
            if(sensorState.tilt_right > 0) sensorState.tilt_right--;
 8003876:	4b25      	ldr	r3, [pc, #148]	@ (800390c <decreaseValue+0xd8>)
 8003878:	785b      	ldrb	r3, [r3, #1]
 800387a:	2b00      	cmp	r3, #0
 800387c:	d036      	beq.n	80038ec <decreaseValue+0xb8>
 800387e:	4b23      	ldr	r3, [pc, #140]	@ (800390c <decreaseValue+0xd8>)
 8003880:	785b      	ldrb	r3, [r3, #1]
 8003882:	3b01      	subs	r3, #1
 8003884:	b2da      	uxtb	r2, r3
 8003886:	4b21      	ldr	r3, [pc, #132]	@ (800390c <decreaseValue+0xd8>)
 8003888:	705a      	strb	r2, [r3, #1]
            break;
 800388a:	e02f      	b.n	80038ec <decreaseValue+0xb8>

        case 2:
            if(sensorState.back_up > 0) sensorState.back_up--;
 800388c:	4b1f      	ldr	r3, [pc, #124]	@ (800390c <decreaseValue+0xd8>)
 800388e:	789b      	ldrb	r3, [r3, #2]
 8003890:	2b00      	cmp	r3, #0
 8003892:	d02d      	beq.n	80038f0 <decreaseValue+0xbc>
 8003894:	4b1d      	ldr	r3, [pc, #116]	@ (800390c <decreaseValue+0xd8>)
 8003896:	789b      	ldrb	r3, [r3, #2]
 8003898:	3b01      	subs	r3, #1
 800389a:	b2da      	uxtb	r2, r3
 800389c:	4b1b      	ldr	r3, [pc, #108]	@ (800390c <decreaseValue+0xd8>)
 800389e:	709a      	strb	r2, [r3, #2]
            break;
 80038a0:	e026      	b.n	80038f0 <decreaseValue+0xbc>

        case 3:
            if(sensorState.back_down > 0) sensorState.back_down--;
 80038a2:	4b1a      	ldr	r3, [pc, #104]	@ (800390c <decreaseValue+0xd8>)
 80038a4:	78db      	ldrb	r3, [r3, #3]
 80038a6:	2b00      	cmp	r3, #0
 80038a8:	d024      	beq.n	80038f4 <decreaseValue+0xc0>
 80038aa:	4b18      	ldr	r3, [pc, #96]	@ (800390c <decreaseValue+0xd8>)
 80038ac:	78db      	ldrb	r3, [r3, #3]
 80038ae:	3b01      	subs	r3, #1
 80038b0:	b2da      	uxtb	r2, r3
 80038b2:	4b16      	ldr	r3, [pc, #88]	@ (800390c <decreaseValue+0xd8>)
 80038b4:	70da      	strb	r2, [r3, #3]
            break;
 80038b6:	e01d      	b.n	80038f4 <decreaseValue+0xc0>

        case 4:
            if(sensorState.trend > 0) sensorState.trend--;
 80038b8:	4b14      	ldr	r3, [pc, #80]	@ (800390c <decreaseValue+0xd8>)
 80038ba:	791b      	ldrb	r3, [r3, #4]
 80038bc:	2b00      	cmp	r3, #0
 80038be:	d01b      	beq.n	80038f8 <decreaseValue+0xc4>
 80038c0:	4b12      	ldr	r3, [pc, #72]	@ (800390c <decreaseValue+0xd8>)
 80038c2:	791b      	ldrb	r3, [r3, #4]
 80038c4:	3b01      	subs	r3, #1
 80038c6:	b2da      	uxtb	r2, r3
 80038c8:	4b10      	ldr	r3, [pc, #64]	@ (800390c <decreaseValue+0xd8>)
 80038ca:	711a      	strb	r2, [r3, #4]
            break;
 80038cc:	e014      	b.n	80038f8 <decreaseValue+0xc4>

        case 5:
            if(sensorState.reverse_trend > 0) sensorState.reverse_trend--;
 80038ce:	4b0f      	ldr	r3, [pc, #60]	@ (800390c <decreaseValue+0xd8>)
 80038d0:	795b      	ldrb	r3, [r3, #5]
 80038d2:	2b00      	cmp	r3, #0
 80038d4:	d012      	beq.n	80038fc <decreaseValue+0xc8>
 80038d6:	4b0d      	ldr	r3, [pc, #52]	@ (800390c <decreaseValue+0xd8>)
 80038d8:	795b      	ldrb	r3, [r3, #5]
 80038da:	3b01      	subs	r3, #1
 80038dc:	b2da      	uxtb	r2, r3
 80038de:	4b0b      	ldr	r3, [pc, #44]	@ (800390c <decreaseValue+0xd8>)
 80038e0:	715a      	strb	r2, [r3, #5]
            break;
 80038e2:	e00b      	b.n	80038fc <decreaseValue+0xc8>

        default:
            break;
 80038e4:	bf00      	nop
 80038e6:	e00a      	b.n	80038fe <decreaseValue+0xca>
            break;
 80038e8:	bf00      	nop
 80038ea:	e008      	b.n	80038fe <decreaseValue+0xca>
            break;
 80038ec:	bf00      	nop
 80038ee:	e006      	b.n	80038fe <decreaseValue+0xca>
            break;
 80038f0:	bf00      	nop
 80038f2:	e004      	b.n	80038fe <decreaseValue+0xca>
            break;
 80038f4:	bf00      	nop
 80038f6:	e002      	b.n	80038fe <decreaseValue+0xca>
            break;
 80038f8:	bf00      	nop
 80038fa:	e000      	b.n	80038fe <decreaseValue+0xca>
            break;
 80038fc:	bf00      	nop
    }
}
 80038fe:	bf00      	nop
 8003900:	46bd      	mov	sp, r7
 8003902:	bc80      	pop	{r7}
 8003904:	4770      	bx	lr
 8003906:	bf00      	nop
 8003908:	200003fb 	.word	0x200003fb
 800390c:	200003f0 	.word	0x200003f0

08003910 <HAL_MspInit>:
/* USER CODE END 0 */
/**
  * Initializes the Global MSP.
  */
void HAL_MspInit(void)
{
 8003910:	b480      	push	{r7}
 8003912:	b085      	sub	sp, #20
 8003914:	af00      	add	r7, sp, #0

  /* USER CODE BEGIN MspInit 0 */

  /* USER CODE END MspInit 0 */

  __HAL_RCC_AFIO_CLK_ENABLE();
 8003916:	4b15      	ldr	r3, [pc, #84]	@ (800396c <HAL_MspInit+0x5c>)
 8003918:	699b      	ldr	r3, [r3, #24]
 800391a:	4a14      	ldr	r2, [pc, #80]	@ (800396c <HAL_MspInit+0x5c>)
 800391c:	f043 0301 	orr.w	r3, r3, #1
 8003920:	6193      	str	r3, [r2, #24]
 8003922:	4b12      	ldr	r3, [pc, #72]	@ (800396c <HAL_MspInit+0x5c>)
 8003924:	699b      	ldr	r3, [r3, #24]
 8003926:	f003 0301 	and.w	r3, r3, #1
 800392a:	60bb      	str	r3, [r7, #8]
 800392c:	68bb      	ldr	r3, [r7, #8]
  __HAL_RCC_PWR_CLK_ENABLE();
 800392e:	4b0f      	ldr	r3, [pc, #60]	@ (800396c <HAL_MspInit+0x5c>)
 8003930:	69db      	ldr	r3, [r3, #28]
 8003932:	4a0e      	ldr	r2, [pc, #56]	@ (800396c <HAL_MspInit+0x5c>)
 8003934:	f043 5380 	orr.w	r3, r3, #268435456	@ 0x10000000
 8003938:	61d3      	str	r3, [r2, #28]
 800393a:	4b0c      	ldr	r3, [pc, #48]	@ (800396c <HAL_MspInit+0x5c>)
 800393c:	69db      	ldr	r3, [r3, #28]
 800393e:	f003 5380 	and.w	r3, r3, #268435456	@ 0x10000000
 8003942:	607b      	str	r3, [r7, #4]
 8003944:	687b      	ldr	r3, [r7, #4]

  /* System interrupt init*/

  /** NOJTAG: JTAG-DP Disabled and SW-DP Enabled
  */
  __HAL_AFIO_REMAP_SWJ_NOJTAG();
 8003946:	4b0a      	ldr	r3, [pc, #40]	@ (8003970 <HAL_MspInit+0x60>)
 8003948:	685b      	ldr	r3, [r3, #4]
 800394a:	60fb      	str	r3, [r7, #12]
 800394c:	68fb      	ldr	r3, [r7, #12]
 800394e:	f023 63e0 	bic.w	r3, r3, #117440512	@ 0x7000000
 8003952:	60fb      	str	r3, [r7, #12]
 8003954:	68fb      	ldr	r3, [r7, #12]
 8003956:	f043 7300 	orr.w	r3, r3, #33554432	@ 0x2000000
 800395a:	60fb      	str	r3, [r7, #12]
 800395c:	4a04      	ldr	r2, [pc, #16]	@ (8003970 <HAL_MspInit+0x60>)
 800395e:	68fb      	ldr	r3, [r7, #12]
 8003960:	6053      	str	r3, [r2, #4]

  /* USER CODE BEGIN MspInit 1 */

  /* USER CODE END MspInit 1 */
}
 8003962:	bf00      	nop
 8003964:	3714      	adds	r7, #20
 8003966:	46bd      	mov	sp, r7
 8003968:	bc80      	pop	{r7}
 800396a:	4770      	bx	lr
 800396c:	40021000 	.word	0x40021000
 8003970:	40010000 	.word	0x40010000

08003974 <HAL_CAN_MspInit>:
  * This function configures the hardware resources used in this example
  * @param hcan: CAN handle pointer
  * @retval None
  */
void HAL_CAN_MspInit(CAN_HandleTypeDef* hcan)
{
 8003974:	b580      	push	{r7, lr}
 8003976:	b088      	sub	sp, #32
 8003978:	af00      	add	r7, sp, #0
 800397a:	6078      	str	r0, [r7, #4]
  GPIO_InitTypeDef GPIO_InitStruct = {0};
 800397c:	f107 0310 	add.w	r3, r7, #16
 8003980:	2200      	movs	r2, #0
 8003982:	601a      	str	r2, [r3, #0]
 8003984:	605a      	str	r2, [r3, #4]
 8003986:	609a      	str	r2, [r3, #8]
 8003988:	60da      	str	r2, [r3, #12]
  if(hcan->Instance==CAN1)
 800398a:	687b      	ldr	r3, [r7, #4]
 800398c:	681b      	ldr	r3, [r3, #0]
 800398e:	4a1c      	ldr	r2, [pc, #112]	@ (8003a00 <HAL_CAN_MspInit+0x8c>)
 8003990:	4293      	cmp	r3, r2
 8003992:	d131      	bne.n	80039f8 <HAL_CAN_MspInit+0x84>
  {
    /* USER CODE BEGIN CAN1_MspInit 0 */

    /* USER CODE END CAN1_MspInit 0 */
    /* Peripheral clock enable */
    __HAL_RCC_CAN1_CLK_ENABLE();
 8003994:	4b1b      	ldr	r3, [pc, #108]	@ (8003a04 <HAL_CAN_MspInit+0x90>)
 8003996:	69db      	ldr	r3, [r3, #28]
 8003998:	4a1a      	ldr	r2, [pc, #104]	@ (8003a04 <HAL_CAN_MspInit+0x90>)
 800399a:	f043 7300 	orr.w	r3, r3, #33554432	@ 0x2000000
 800399e:	61d3      	str	r3, [r2, #28]
 80039a0:	4b18      	ldr	r3, [pc, #96]	@ (8003a04 <HAL_CAN_MspInit+0x90>)
 80039a2:	69db      	ldr	r3, [r3, #28]
 80039a4:	f003 7300 	and.w	r3, r3, #33554432	@ 0x2000000
 80039a8:	60fb      	str	r3, [r7, #12]
 80039aa:	68fb      	ldr	r3, [r7, #12]

    __HAL_RCC_GPIOA_CLK_ENABLE();
 80039ac:	4b15      	ldr	r3, [pc, #84]	@ (8003a04 <HAL_CAN_MspInit+0x90>)
 80039ae:	699b      	ldr	r3, [r3, #24]
 80039b0:	4a14      	ldr	r2, [pc, #80]	@ (8003a04 <HAL_CAN_MspInit+0x90>)
 80039b2:	f043 0304 	orr.w	r3, r3, #4
 80039b6:	6193      	str	r3, [r2, #24]
 80039b8:	4b12      	ldr	r3, [pc, #72]	@ (8003a04 <HAL_CAN_MspInit+0x90>)
 80039ba:	699b      	ldr	r3, [r3, #24]
 80039bc:	f003 0304 	and.w	r3, r3, #4
 80039c0:	60bb      	str	r3, [r7, #8]
 80039c2:	68bb      	ldr	r3, [r7, #8]
    /**CAN GPIO Configuration
    PA11     ------> CAN_RX
    PA12     ------> CAN_TX
    */
    GPIO_InitStruct.Pin = GPIO_PIN_11;
 80039c4:	f44f 6300 	mov.w	r3, #2048	@ 0x800
 80039c8:	613b      	str	r3, [r7, #16]
    GPIO_InitStruct.Mode = GPIO_MODE_INPUT;
 80039ca:	2300      	movs	r3, #0
 80039cc:	617b      	str	r3, [r7, #20]
    GPIO_InitStruct.Pull = GPIO_NOPULL;
 80039ce:	2300      	movs	r3, #0
 80039d0:	61bb      	str	r3, [r7, #24]
    HAL_GPIO_Init(GPIOA, &GPIO_InitStruct);
 80039d2:	f107 0310 	add.w	r3, r7, #16
 80039d6:	4619      	mov	r1, r3
 80039d8:	480b      	ldr	r0, [pc, #44]	@ (8003a08 <HAL_CAN_MspInit+0x94>)
 80039da:	f000 fda7 	bl	800452c <HAL_GPIO_Init>

    GPIO_InitStruct.Pin = GPIO_PIN_12;
 80039de:	f44f 5380 	mov.w	r3, #4096	@ 0x1000
 80039e2:	613b      	str	r3, [r7, #16]
    GPIO_InitStruct.Mode = GPIO_MODE_AF_PP;
 80039e4:	2302      	movs	r3, #2
 80039e6:	617b      	str	r3, [r7, #20]
    GPIO_InitStruct.Speed = GPIO_SPEED_FREQ_HIGH;
 80039e8:	2303      	movs	r3, #3
 80039ea:	61fb      	str	r3, [r7, #28]
    HAL_GPIO_Init(GPIOA, &GPIO_InitStruct);
 80039ec:	f107 0310 	add.w	r3, r7, #16
 80039f0:	4619      	mov	r1, r3
 80039f2:	4805      	ldr	r0, [pc, #20]	@ (8003a08 <HAL_CAN_MspInit+0x94>)
 80039f4:	f000 fd9a 	bl	800452c <HAL_GPIO_Init>

    /* USER CODE END CAN1_MspInit 1 */

  }

}
 80039f8:	bf00      	nop
 80039fa:	3720      	adds	r7, #32
 80039fc:	46bd      	mov	sp, r7
 80039fe:	bd80      	pop	{r7, pc}
 8003a00:	40006400 	.word	0x40006400
 8003a04:	40021000 	.word	0x40021000
 8003a08:	40010800 	.word	0x40010800

08003a0c <HAL_I2C_MspInit>:
  * This function configures the hardware resources used in this example
  * @param hi2c: I2C handle pointer
  * @retval None
  */
void HAL_I2C_MspInit(I2C_HandleTypeDef* hi2c)
{
 8003a0c:	b580      	push	{r7, lr}
 8003a0e:	b088      	sub	sp, #32
 8003a10:	af00      	add	r7, sp, #0
 8003a12:	6078      	str	r0, [r7, #4]
  GPIO_InitTypeDef GPIO_InitStruct = {0};
 8003a14:	f107 0310 	add.w	r3, r7, #16
 8003a18:	2200      	movs	r2, #0
 8003a1a:	601a      	str	r2, [r3, #0]
 8003a1c:	605a      	str	r2, [r3, #4]
 8003a1e:	609a      	str	r2, [r3, #8]
 8003a20:	60da      	str	r2, [r3, #12]
  if(hi2c->Instance==I2C1)
 8003a22:	687b      	ldr	r3, [r7, #4]
 8003a24:	681b      	ldr	r3, [r3, #0]
 8003a26:	4a15      	ldr	r2, [pc, #84]	@ (8003a7c <HAL_I2C_MspInit+0x70>)
 8003a28:	4293      	cmp	r3, r2
 8003a2a:	d123      	bne.n	8003a74 <HAL_I2C_MspInit+0x68>
  {
    /* USER CODE BEGIN I2C1_MspInit 0 */

    /* USER CODE END I2C1_MspInit 0 */

    __HAL_RCC_GPIOB_CLK_ENABLE();
 8003a2c:	4b14      	ldr	r3, [pc, #80]	@ (8003a80 <HAL_I2C_MspInit+0x74>)
 8003a2e:	699b      	ldr	r3, [r3, #24]
 8003a30:	4a13      	ldr	r2, [pc, #76]	@ (8003a80 <HAL_I2C_MspInit+0x74>)
 8003a32:	f043 0308 	orr.w	r3, r3, #8
 8003a36:	6193      	str	r3, [r2, #24]
 8003a38:	4b11      	ldr	r3, [pc, #68]	@ (8003a80 <HAL_I2C_MspInit+0x74>)
 8003a3a:	699b      	ldr	r3, [r3, #24]
 8003a3c:	f003 0308 	and.w	r3, r3, #8
 8003a40:	60fb      	str	r3, [r7, #12]
 8003a42:	68fb      	ldr	r3, [r7, #12]
    /**I2C1 GPIO Configuration
    PB6     ------> I2C1_SCL
    PB7     ------> I2C1_SDA
    */
    GPIO_InitStruct.Pin = GPIO_PIN_6|GPIO_PIN_7;
 8003a44:	23c0      	movs	r3, #192	@ 0xc0
 8003a46:	613b      	str	r3, [r7, #16]
    GPIO_InitStruct.Mode = GPIO_MODE_AF_OD;
 8003a48:	2312      	movs	r3, #18
 8003a4a:	617b      	str	r3, [r7, #20]
    GPIO_InitStruct.Speed = GPIO_SPEED_FREQ_HIGH;
 8003a4c:	2303      	movs	r3, #3
 8003a4e:	61fb      	str	r3, [r7, #28]
    HAL_GPIO_Init(GPIOB, &GPIO_InitStruct);
 8003a50:	f107 0310 	add.w	r3, r7, #16
 8003a54:	4619      	mov	r1, r3
 8003a56:	480b      	ldr	r0, [pc, #44]	@ (8003a84 <HAL_I2C_MspInit+0x78>)
 8003a58:	f000 fd68 	bl	800452c <HAL_GPIO_Init>

    /* Peripheral clock enable */
    __HAL_RCC_I2C1_CLK_ENABLE();
 8003a5c:	4b08      	ldr	r3, [pc, #32]	@ (8003a80 <HAL_I2C_MspInit+0x74>)
 8003a5e:	69db      	ldr	r3, [r3, #28]
 8003a60:	4a07      	ldr	r2, [pc, #28]	@ (8003a80 <HAL_I2C_MspInit+0x74>)
 8003a62:	f443 1300 	orr.w	r3, r3, #2097152	@ 0x200000
 8003a66:	61d3      	str	r3, [r2, #28]
 8003a68:	4b05      	ldr	r3, [pc, #20]	@ (8003a80 <HAL_I2C_MspInit+0x74>)
 8003a6a:	69db      	ldr	r3, [r3, #28]
 8003a6c:	f403 1300 	and.w	r3, r3, #2097152	@ 0x200000
 8003a70:	60bb      	str	r3, [r7, #8]
 8003a72:	68bb      	ldr	r3, [r7, #8]

    /* USER CODE END I2C1_MspInit 1 */

  }

}
 8003a74:	bf00      	nop
 8003a76:	3720      	adds	r7, #32
 8003a78:	46bd      	mov	sp, r7
 8003a7a:	bd80      	pop	{r7, pc}
 8003a7c:	40005400 	.word	0x40005400
 8003a80:	40021000 	.word	0x40021000
 8003a84:	40010c00 	.word	0x40010c00

08003a88 <HAL_UART_MspInit>:
  * This function configures the hardware resources used in this example
  * @param huart: UART handle pointer
  * @retval None
  */
void HAL_UART_MspInit(UART_HandleTypeDef* huart)
{
 8003a88:	b580      	push	{r7, lr}
 8003a8a:	b08c      	sub	sp, #48	@ 0x30
 8003a8c:	af00      	add	r7, sp, #0
 8003a8e:	6078      	str	r0, [r7, #4]
  GPIO_InitTypeDef GPIO_InitStruct = {0};
 8003a90:	f107 0320 	add.w	r3, r7, #32
 8003a94:	2200      	movs	r2, #0
 8003a96:	601a      	str	r2, [r3, #0]
 8003a98:	605a      	str	r2, [r3, #4]
 8003a9a:	609a      	str	r2, [r3, #8]
 8003a9c:	60da      	str	r2, [r3, #12]
  if(huart->Instance==USART1)
 8003a9e:	687b      	ldr	r3, [r7, #4]
 8003aa0:	681b      	ldr	r3, [r3, #0]
 8003aa2:	4a5f      	ldr	r2, [pc, #380]	@ (8003c20 <HAL_UART_MspInit+0x198>)
 8003aa4:	4293      	cmp	r3, r2
 8003aa6:	d13a      	bne.n	8003b1e <HAL_UART_MspInit+0x96>
  {
    /* USER CODE BEGIN USART1_MspInit 0 */

    /* USER CODE END USART1_MspInit 0 */
    /* Peripheral clock enable */
    __HAL_RCC_USART1_CLK_ENABLE();
 8003aa8:	4b5e      	ldr	r3, [pc, #376]	@ (8003c24 <HAL_UART_MspInit+0x19c>)
 8003aaa:	699b      	ldr	r3, [r3, #24]
 8003aac:	4a5d      	ldr	r2, [pc, #372]	@ (8003c24 <HAL_UART_MspInit+0x19c>)
 8003aae:	f443 4380 	orr.w	r3, r3, #16384	@ 0x4000
 8003ab2:	6193      	str	r3, [r2, #24]
 8003ab4:	4b5b      	ldr	r3, [pc, #364]	@ (8003c24 <HAL_UART_MspInit+0x19c>)
 8003ab6:	699b      	ldr	r3, [r3, #24]
 8003ab8:	f403 4380 	and.w	r3, r3, #16384	@ 0x4000
 8003abc:	61fb      	str	r3, [r7, #28]
 8003abe:	69fb      	ldr	r3, [r7, #28]

    __HAL_RCC_GPIOA_CLK_ENABLE();
 8003ac0:	4b58      	ldr	r3, [pc, #352]	@ (8003c24 <HAL_UART_MspInit+0x19c>)
 8003ac2:	699b      	ldr	r3, [r3, #24]
 8003ac4:	4a57      	ldr	r2, [pc, #348]	@ (8003c24 <HAL_UART_MspInit+0x19c>)
 8003ac6:	f043 0304 	orr.w	r3, r3, #4
 8003aca:	6193      	str	r3, [r2, #24]
 8003acc:	4b55      	ldr	r3, [pc, #340]	@ (8003c24 <HAL_UART_MspInit+0x19c>)
 8003ace:	699b      	ldr	r3, [r3, #24]
 8003ad0:	f003 0304 	and.w	r3, r3, #4
 8003ad4:	61bb      	str	r3, [r7, #24]
 8003ad6:	69bb      	ldr	r3, [r7, #24]
    /**USART1 GPIO Configuration
    PA9     ------> USART1_TX
    PA10     ------> USART1_RX
    */
    GPIO_InitStruct.Pin = GPIO_PIN_9;
 8003ad8:	f44f 7300 	mov.w	r3, #512	@ 0x200
 8003adc:	623b      	str	r3, [r7, #32]
    GPIO_InitStruct.Mode = GPIO_MODE_AF_PP;
 8003ade:	2302      	movs	r3, #2
 8003ae0:	627b      	str	r3, [r7, #36]	@ 0x24
    GPIO_InitStruct.Speed = GPIO_SPEED_FREQ_HIGH;
 8003ae2:	2303      	movs	r3, #3
 8003ae4:	62fb      	str	r3, [r7, #44]	@ 0x2c
    HAL_GPIO_Init(GPIOA, &GPIO_InitStruct);
 8003ae6:	f107 0320 	add.w	r3, r7, #32
 8003aea:	4619      	mov	r1, r3
 8003aec:	484e      	ldr	r0, [pc, #312]	@ (8003c28 <HAL_UART_MspInit+0x1a0>)
 8003aee:	f000 fd1d 	bl	800452c <HAL_GPIO_Init>

    GPIO_InitStruct.Pin = GPIO_PIN_10;
 8003af2:	f44f 6380 	mov.w	r3, #1024	@ 0x400
 8003af6:	623b      	str	r3, [r7, #32]
    GPIO_InitStruct.Mode = GPIO_MODE_INPUT;
 8003af8:	2300      	movs	r3, #0
 8003afa:	627b      	str	r3, [r7, #36]	@ 0x24
    GPIO_InitStruct.Pull = GPIO_NOPULL;
 8003afc:	2300      	movs	r3, #0
 8003afe:	62bb      	str	r3, [r7, #40]	@ 0x28
    HAL_GPIO_Init(GPIOA, &GPIO_InitStruct);
 8003b00:	f107 0320 	add.w	r3, r7, #32
 8003b04:	4619      	mov	r1, r3
 8003b06:	4848      	ldr	r0, [pc, #288]	@ (8003c28 <HAL_UART_MspInit+0x1a0>)
 8003b08:	f000 fd10 	bl	800452c <HAL_GPIO_Init>

    /* USART1 interrupt Init */
    HAL_NVIC_SetPriority(USART1_IRQn, 0, 0);
 8003b0c:	2200      	movs	r2, #0
 8003b0e:	2100      	movs	r1, #0
 8003b10:	2025      	movs	r0, #37	@ 0x25
 8003b12:	f000 fc22 	bl	800435a <HAL_NVIC_SetPriority>
    HAL_NVIC_EnableIRQ(USART1_IRQn);
 8003b16:	2025      	movs	r0, #37	@ 0x25
 8003b18:	f000 fc3b 	bl	8004392 <HAL_NVIC_EnableIRQ>
    /* USER CODE BEGIN USART3_MspInit 1 */

    /* USER CODE END USART3_MspInit 1 */
  }

}
 8003b1c:	e07c      	b.n	8003c18 <HAL_UART_MspInit+0x190>
  else if(huart->Instance==USART2)
 8003b1e:	687b      	ldr	r3, [r7, #4]
 8003b20:	681b      	ldr	r3, [r3, #0]
 8003b22:	4a42      	ldr	r2, [pc, #264]	@ (8003c2c <HAL_UART_MspInit+0x1a4>)
 8003b24:	4293      	cmp	r3, r2
 8003b26:	d138      	bne.n	8003b9a <HAL_UART_MspInit+0x112>
    __HAL_RCC_USART2_CLK_ENABLE();
 8003b28:	4b3e      	ldr	r3, [pc, #248]	@ (8003c24 <HAL_UART_MspInit+0x19c>)
 8003b2a:	69db      	ldr	r3, [r3, #28]
 8003b2c:	4a3d      	ldr	r2, [pc, #244]	@ (8003c24 <HAL_UART_MspInit+0x19c>)
 8003b2e:	f443 3300 	orr.w	r3, r3, #131072	@ 0x20000
 8003b32:	61d3      	str	r3, [r2, #28]
 8003b34:	4b3b      	ldr	r3, [pc, #236]	@ (8003c24 <HAL_UART_MspInit+0x19c>)
 8003b36:	69db      	ldr	r3, [r3, #28]
 8003b38:	f403 3300 	and.w	r3, r3, #131072	@ 0x20000
 8003b3c:	617b      	str	r3, [r7, #20]
 8003b3e:	697b      	ldr	r3, [r7, #20]
    __HAL_RCC_GPIOA_CLK_ENABLE();
 8003b40:	4b38      	ldr	r3, [pc, #224]	@ (8003c24 <HAL_UART_MspInit+0x19c>)
 8003b42:	699b      	ldr	r3, [r3, #24]
 8003b44:	4a37      	ldr	r2, [pc, #220]	@ (8003c24 <HAL_UART_MspInit+0x19c>)
 8003b46:	f043 0304 	orr.w	r3, r3, #4
 8003b4a:	6193      	str	r3, [r2, #24]
 8003b4c:	4b35      	ldr	r3, [pc, #212]	@ (8003c24 <HAL_UART_MspInit+0x19c>)
 8003b4e:	699b      	ldr	r3, [r3, #24]
 8003b50:	f003 0304 	and.w	r3, r3, #4
 8003b54:	613b      	str	r3, [r7, #16]
 8003b56:	693b      	ldr	r3, [r7, #16]
    GPIO_InitStruct.Pin = GPIO_PIN_2;
 8003b58:	2304      	movs	r3, #4
 8003b5a:	623b      	str	r3, [r7, #32]
    GPIO_InitStruct.Mode = GPIO_MODE_AF_PP;
 8003b5c:	2302      	movs	r3, #2
 8003b5e:	627b      	str	r3, [r7, #36]	@ 0x24
    GPIO_InitStruct.Speed = GPIO_SPEED_FREQ_HIGH;
 8003b60:	2303      	movs	r3, #3
 8003b62:	62fb      	str	r3, [r7, #44]	@ 0x2c
    HAL_GPIO_Init(GPIOA, &GPIO_InitStruct);
 8003b64:	f107 0320 	add.w	r3, r7, #32
 8003b68:	4619      	mov	r1, r3
 8003b6a:	482f      	ldr	r0, [pc, #188]	@ (8003c28 <HAL_UART_MspInit+0x1a0>)
 8003b6c:	f000 fcde 	bl	800452c <HAL_GPIO_Init>
    GPIO_InitStruct.Pin = GPIO_PIN_3;
 8003b70:	2308      	movs	r3, #8
 8003b72:	623b      	str	r3, [r7, #32]
    GPIO_InitStruct.Mode = GPIO_MODE_INPUT;
 8003b74:	2300      	movs	r3, #0
 8003b76:	627b      	str	r3, [r7, #36]	@ 0x24
    GPIO_InitStruct.Pull = GPIO_NOPULL;
 8003b78:	2300      	movs	r3, #0
 8003b7a:	62bb      	str	r3, [r7, #40]	@ 0x28
    HAL_GPIO_Init(GPIOA, &GPIO_InitStruct);
 8003b7c:	f107 0320 	add.w	r3, r7, #32
 8003b80:	4619      	mov	r1, r3
 8003b82:	4829      	ldr	r0, [pc, #164]	@ (8003c28 <HAL_UART_MspInit+0x1a0>)
 8003b84:	f000 fcd2 	bl	800452c <HAL_GPIO_Init>
    HAL_NVIC_SetPriority(USART2_IRQn, 0, 0);
 8003b88:	2200      	movs	r2, #0
 8003b8a:	2100      	movs	r1, #0
 8003b8c:	2026      	movs	r0, #38	@ 0x26
 8003b8e:	f000 fbe4 	bl	800435a <HAL_NVIC_SetPriority>
    HAL_NVIC_EnableIRQ(USART2_IRQn);
 8003b92:	2026      	movs	r0, #38	@ 0x26
 8003b94:	f000 fbfd 	bl	8004392 <HAL_NVIC_EnableIRQ>
}
 8003b98:	e03e      	b.n	8003c18 <HAL_UART_MspInit+0x190>
  else if(huart->Instance==USART3)
 8003b9a:	687b      	ldr	r3, [r7, #4]
 8003b9c:	681b      	ldr	r3, [r3, #0]
 8003b9e:	4a24      	ldr	r2, [pc, #144]	@ (8003c30 <HAL_UART_MspInit+0x1a8>)
 8003ba0:	4293      	cmp	r3, r2
 8003ba2:	d139      	bne.n	8003c18 <HAL_UART_MspInit+0x190>
    __HAL_RCC_USART3_CLK_ENABLE();
 8003ba4:	4b1f      	ldr	r3, [pc, #124]	@ (8003c24 <HAL_UART_MspInit+0x19c>)
 8003ba6:	69db      	ldr	r3, [r3, #28]
 8003ba8:	4a1e      	ldr	r2, [pc, #120]	@ (8003c24 <HAL_UART_MspInit+0x19c>)
 8003baa:	f443 2380 	orr.w	r3, r3, #262144	@ 0x40000
 8003bae:	61d3      	str	r3, [r2, #28]
 8003bb0:	4b1c      	ldr	r3, [pc, #112]	@ (8003c24 <HAL_UART_MspInit+0x19c>)
 8003bb2:	69db      	ldr	r3, [r3, #28]
 8003bb4:	f403 2380 	and.w	r3, r3, #262144	@ 0x40000
 8003bb8:	60fb      	str	r3, [r7, #12]
 8003bba:	68fb      	ldr	r3, [r7, #12]
    __HAL_RCC_GPIOB_CLK_ENABLE();
 8003bbc:	4b19      	ldr	r3, [pc, #100]	@ (8003c24 <HAL_UART_MspInit+0x19c>)
 8003bbe:	699b      	ldr	r3, [r3, #24]
 8003bc0:	4a18      	ldr	r2, [pc, #96]	@ (8003c24 <HAL_UART_MspInit+0x19c>)
 8003bc2:	f043 0308 	orr.w	r3, r3, #8
 8003bc6:	6193      	str	r3, [r2, #24]
 8003bc8:	4b16      	ldr	r3, [pc, #88]	@ (8003c24 <HAL_UART_MspInit+0x19c>)
 8003bca:	699b      	ldr	r3, [r3, #24]
 8003bcc:	f003 0308 	and.w	r3, r3, #8
 8003bd0:	60bb      	str	r3, [r7, #8]
 8003bd2:	68bb      	ldr	r3, [r7, #8]
    GPIO_InitStruct.Pin = GPIO_PIN_10;
 8003bd4:	f44f 6380 	mov.w	r3, #1024	@ 0x400
 8003bd8:	623b      	str	r3, [r7, #32]
    GPIO_InitStruct.Mode = GPIO_MODE_AF_PP;
 8003bda:	2302      	movs	r3, #2
 8003bdc:	627b      	str	r3, [r7, #36]	@ 0x24
    GPIO_InitStruct.Speed = GPIO_SPEED_FREQ_HIGH;
 8003bde:	2303      	movs	r3, #3
 8003be0:	62fb      	str	r3, [r7, #44]	@ 0x2c
    HAL_GPIO_Init(GPIOB, &GPIO_InitStruct);
 8003be2:	f107 0320 	add.w	r3, r7, #32
 8003be6:	4619      	mov	r1, r3
 8003be8:	4812      	ldr	r0, [pc, #72]	@ (8003c34 <HAL_UART_MspInit+0x1ac>)
 8003bea:	f000 fc9f 	bl	800452c <HAL_GPIO_Init>
    GPIO_InitStruct.Pin = GPIO_PIN_11;
 8003bee:	f44f 6300 	mov.w	r3, #2048	@ 0x800
 8003bf2:	623b      	str	r3, [r7, #32]
    GPIO_InitStruct.Mode = GPIO_MODE_INPUT;
 8003bf4:	2300      	movs	r3, #0
 8003bf6:	627b      	str	r3, [r7, #36]	@ 0x24
    GPIO_InitStruct.Pull = GPIO_NOPULL;
 8003bf8:	2300      	movs	r3, #0
 8003bfa:	62bb      	str	r3, [r7, #40]	@ 0x28
    HAL_GPIO_Init(GPIOB, &GPIO_InitStruct);
 8003bfc:	f107 0320 	add.w	r3, r7, #32
 8003c00:	4619      	mov	r1, r3
 8003c02:	480c      	ldr	r0, [pc, #48]	@ (8003c34 <HAL_UART_MspInit+0x1ac>)
 8003c04:	f000 fc92 	bl	800452c <HAL_GPIO_Init>
    HAL_NVIC_SetPriority(USART3_IRQn, 0, 0);
 8003c08:	2200      	movs	r2, #0
 8003c0a:	2100      	movs	r1, #0
 8003c0c:	2027      	movs	r0, #39	@ 0x27
 8003c0e:	f000 fba4 	bl	800435a <HAL_NVIC_SetPriority>
    HAL_NVIC_EnableIRQ(USART3_IRQn);
 8003c12:	2027      	movs	r0, #39	@ 0x27
 8003c14:	f000 fbbd 	bl	8004392 <HAL_NVIC_EnableIRQ>
}
 8003c18:	bf00      	nop
 8003c1a:	3730      	adds	r7, #48	@ 0x30
 8003c1c:	46bd      	mov	sp, r7
 8003c1e:	bd80      	pop	{r7, pc}
 8003c20:	40013800 	.word	0x40013800
 8003c24:	40021000 	.word	0x40021000
 8003c28:	40010800 	.word	0x40010800
 8003c2c:	40004400 	.word	0x40004400
 8003c30:	40004800 	.word	0x40004800
 8003c34:	40010c00 	.word	0x40010c00

08003c38 <NMI_Handler>:
/******************************************************************************/
/**
  * @brief This function handles Non maskable interrupt.
  */
void NMI_Handler(void)
{
 8003c38:	b480      	push	{r7}
 8003c3a:	af00      	add	r7, sp, #0
  /* USER CODE BEGIN NonMaskableInt_IRQn 0 */

  /* USER CODE END NonMaskableInt_IRQn 0 */
  /* USER CODE BEGIN NonMaskableInt_IRQn 1 */
   while (1)
 8003c3c:	bf00      	nop
 8003c3e:	e7fd      	b.n	8003c3c <NMI_Handler+0x4>

08003c40 <HardFault_Handler>:

/**
  * @brief This function handles Hard fault interrupt.
  */
void HardFault_Handler(void)
{
 8003c40:	b480      	push	{r7}
 8003c42:	af00      	add	r7, sp, #0
  /* USER CODE BEGIN HardFault_IRQn 0 */

  /* USER CODE END HardFault_IRQn 0 */
  while (1)
 8003c44:	bf00      	nop
 8003c46:	e7fd      	b.n	8003c44 <HardFault_Handler+0x4>

08003c48 <MemManage_Handler>:

/**
  * @brief This function handles Memory management fault.
  */
void MemManage_Handler(void)
{
 8003c48:	b480      	push	{r7}
 8003c4a:	af00      	add	r7, sp, #0
  /* USER CODE BEGIN MemoryManagement_IRQn 0 */

  /* USER CODE END MemoryManagement_IRQn 0 */
  while (1)
 8003c4c:	bf00      	nop
 8003c4e:	e7fd      	b.n	8003c4c <MemManage_Handler+0x4>

08003c50 <BusFault_Handler>:

/**
  * @brief This function handles Prefetch fault, memory access fault.
  */
void BusFault_Handler(void)
{
 8003c50:	b480      	push	{r7}
 8003c52:	af00      	add	r7, sp, #0
  /* USER CODE BEGIN BusFault_IRQn 0 */

  /* USER CODE END BusFault_IRQn 0 */
  while (1)
 8003c54:	bf00      	nop
 8003c56:	e7fd      	b.n	8003c54 <BusFault_Handler+0x4>

08003c58 <UsageFault_Handler>:

/**
  * @brief This function handles Undefined instruction or illegal state.
  */
void UsageFault_Handler(void)
{
 8003c58:	b480      	push	{r7}
 8003c5a:	af00      	add	r7, sp, #0
  /* USER CODE BEGIN UsageFault_IRQn 0 */

  /* USER CODE END UsageFault_IRQn 0 */
  while (1)
 8003c5c:	bf00      	nop
 8003c5e:	e7fd      	b.n	8003c5c <UsageFault_Handler+0x4>

08003c60 <SVC_Handler>:

/**
  * @brief This function handles System service call via SWI instruction.
  */
void SVC_Handler(void)
{
 8003c60:	b480      	push	{r7}
 8003c62:	af00      	add	r7, sp, #0

  /* USER CODE END SVCall_IRQn 0 */
  /* USER CODE BEGIN SVCall_IRQn 1 */

  /* USER CODE END SVCall_IRQn 1 */
}
 8003c64:	bf00      	nop
 8003c66:	46bd      	mov	sp, r7
 8003c68:	bc80      	pop	{r7}
 8003c6a:	4770      	bx	lr

08003c6c <DebugMon_Handler>:

/**
  * @brief This function handles Debug monitor.
  */
void DebugMon_Handler(void)
{
 8003c6c:	b480      	push	{r7}
 8003c6e:	af00      	add	r7, sp, #0

  /* USER CODE END DebugMonitor_IRQn 0 */
  /* USER CODE BEGIN DebugMonitor_IRQn 1 */

  /* USER CODE END DebugMonitor_IRQn 1 */
}
 8003c70:	bf00      	nop
 8003c72:	46bd      	mov	sp, r7
 8003c74:	bc80      	pop	{r7}
 8003c76:	4770      	bx	lr

08003c78 <PendSV_Handler>:

/**
  * @brief This function handles Pendable request for system service.
  */
void PendSV_Handler(void)
{
 8003c78:	b480      	push	{r7}
 8003c7a:	af00      	add	r7, sp, #0

  /* USER CODE END PendSV_IRQn 0 */
  /* USER CODE BEGIN PendSV_IRQn 1 */

  /* USER CODE END PendSV_IRQn 1 */
}
 8003c7c:	bf00      	nop
 8003c7e:	46bd      	mov	sp, r7
 8003c80:	bc80      	pop	{r7}
 8003c82:	4770      	bx	lr

08003c84 <SysTick_Handler>:

/**
  * @brief This function handles System tick timer.
  */
void SysTick_Handler(void)
{
 8003c84:	b580      	push	{r7, lr}
 8003c86:	af00      	add	r7, sp, #0
  /* USER CODE BEGIN SysTick_IRQn 0 */

  /* USER CODE END SysTick_IRQn 0 */
  HAL_IncTick();
 8003c88:	f000 f954 	bl	8003f34 <HAL_IncTick>
  /* USER CODE BEGIN SysTick_IRQn 1 */

  /* USER CODE END SysTick_IRQn 1 */
}
 8003c8c:	bf00      	nop
 8003c8e:	bd80      	pop	{r7, pc}

08003c90 <USART1_IRQHandler>:

/**
  * @brief This function handles USART1 global interrupt.
  */
void USART1_IRQHandler(void)
{
 8003c90:	b580      	push	{r7, lr}
 8003c92:	af00      	add	r7, sp, #0
  /* USER CODE BEGIN USART1_IRQn 0 */

  /* USER CODE END USART1_IRQn 0 */
  HAL_UART_IRQHandler(&huart1);
 8003c94:	4802      	ldr	r0, [pc, #8]	@ (8003ca0 <USART1_IRQHandler+0x10>)
 8003c96:	f001 fc51 	bl	800553c <HAL_UART_IRQHandler>
  /* USER CODE BEGIN USART1_IRQn 1 */

  /* USER CODE END USART1_IRQn 1 */
}
 8003c9a:	bf00      	nop
 8003c9c:	bd80      	pop	{r7, pc}
 8003c9e:	bf00      	nop
 8003ca0:	20000308 	.word	0x20000308

08003ca4 <USART2_IRQHandler>:

/**
  * @brief This function handles USART2 global interrupt.
  */
void USART2_IRQHandler(void)
{
 8003ca4:	b580      	push	{r7, lr}
 8003ca6:	af00      	add	r7, sp, #0
  /* USER CODE BEGIN USART2_IRQn 0 */

  /* USER CODE END USART2_IRQn 0 */
  HAL_UART_IRQHandler(&huart2);
 8003ca8:	4802      	ldr	r0, [pc, #8]	@ (8003cb4 <USART2_IRQHandler+0x10>)
 8003caa:	f001 fc47 	bl	800553c <HAL_UART_IRQHandler>
  /* USER CODE BEGIN USART2_IRQn 1 */

  /* USER CODE END USART2_IRQn 1 */
}
 8003cae:	bf00      	nop
 8003cb0:	bd80      	pop	{r7, pc}
 8003cb2:	bf00      	nop
 8003cb4:	20000350 	.word	0x20000350

08003cb8 <USART3_IRQHandler>:

/**
  * @brief This function handles USART3 global interrupt.
  */
void USART3_IRQHandler(void)
{
 8003cb8:	b580      	push	{r7, lr}
 8003cba:	af00      	add	r7, sp, #0
  /* USER CODE BEGIN USART3_IRQn 0 */

  /* USER CODE END USART3_IRQn 0 */
  HAL_UART_IRQHandler(&huart3);
 8003cbc:	4802      	ldr	r0, [pc, #8]	@ (8003cc8 <USART3_IRQHandler+0x10>)
 8003cbe:	f001 fc3d 	bl	800553c <HAL_UART_IRQHandler>
  /* USER CODE BEGIN USART3_IRQn 1 */

  /* USER CODE END USART3_IRQn 1 */
}
 8003cc2:	bf00      	nop
 8003cc4:	bd80      	pop	{r7, pc}
 8003cc6:	bf00      	nop
 8003cc8:	20000398 	.word	0x20000398

08003ccc <_getpid>:
void initialise_monitor_handles()
{
}

int _getpid(void)
{
 8003ccc:	b480      	push	{r7}
 8003cce:	af00      	add	r7, sp, #0
  return 1;
 8003cd0:	2301      	movs	r3, #1
}
 8003cd2:	4618      	mov	r0, r3
 8003cd4:	46bd      	mov	sp, r7
 8003cd6:	bc80      	pop	{r7}
 8003cd8:	4770      	bx	lr

08003cda <_kill>:

int _kill(int pid, int sig)
{
 8003cda:	b580      	push	{r7, lr}
 8003cdc:	b082      	sub	sp, #8
 8003cde:	af00      	add	r7, sp, #0
 8003ce0:	6078      	str	r0, [r7, #4]
 8003ce2:	6039      	str	r1, [r7, #0]
  (void)pid;
  (void)sig;
  errno = EINVAL;
 8003ce4:	f002 fb4c 	bl	8006380 <__errno>
 8003ce8:	4603      	mov	r3, r0
 8003cea:	2216      	movs	r2, #22
 8003cec:	601a      	str	r2, [r3, #0]
  return -1;
 8003cee:	f04f 33ff 	mov.w	r3, #4294967295
}
 8003cf2:	4618      	mov	r0, r3
 8003cf4:	3708      	adds	r7, #8
 8003cf6:	46bd      	mov	sp, r7
 8003cf8:	bd80      	pop	{r7, pc}

08003cfa <_exit>:

void _exit (int status)
{
 8003cfa:	b580      	push	{r7, lr}
 8003cfc:	b082      	sub	sp, #8
 8003cfe:	af00      	add	r7, sp, #0
 8003d00:	6078      	str	r0, [r7, #4]
  _kill(status, -1);
 8003d02:	f04f 31ff 	mov.w	r1, #4294967295
 8003d06:	6878      	ldr	r0, [r7, #4]
 8003d08:	f7ff ffe7 	bl	8003cda <_kill>
  while (1) {}    /* Make sure we hang here */
 8003d0c:	bf00      	nop
 8003d0e:	e7fd      	b.n	8003d0c <_exit+0x12>

08003d10 <_read>:
}

__attribute__((weak)) int _read(int file, char *ptr, int len)
{
 8003d10:	b580      	push	{r7, lr}
 8003d12:	b086      	sub	sp, #24
 8003d14:	af00      	add	r7, sp, #0
 8003d16:	60f8      	str	r0, [r7, #12]
 8003d18:	60b9      	str	r1, [r7, #8]
 8003d1a:	607a      	str	r2, [r7, #4]
  (void)file;
  int DataIdx;

  for (DataIdx = 0; DataIdx < len; DataIdx++)
 8003d1c:	2300      	movs	r3, #0
 8003d1e:	617b      	str	r3, [r7, #20]
 8003d20:	e00a      	b.n	8003d38 <_read+0x28>
  {
    *ptr++ = __io_getchar();
 8003d22:	f3af 8000 	nop.w
 8003d26:	4601      	mov	r1, r0
 8003d28:	68bb      	ldr	r3, [r7, #8]
 8003d2a:	1c5a      	adds	r2, r3, #1
 8003d2c:	60ba      	str	r2, [r7, #8]
 8003d2e:	b2ca      	uxtb	r2, r1
 8003d30:	701a      	strb	r2, [r3, #0]
  for (DataIdx = 0; DataIdx < len; DataIdx++)
 8003d32:	697b      	ldr	r3, [r7, #20]
 8003d34:	3301      	adds	r3, #1
 8003d36:	617b      	str	r3, [r7, #20]
 8003d38:	697a      	ldr	r2, [r7, #20]
 8003d3a:	687b      	ldr	r3, [r7, #4]
 8003d3c:	429a      	cmp	r2, r3
 8003d3e:	dbf0      	blt.n	8003d22 <_read+0x12>
  }

  return len;
 8003d40:	687b      	ldr	r3, [r7, #4]
}
 8003d42:	4618      	mov	r0, r3
 8003d44:	3718      	adds	r7, #24
 8003d46:	46bd      	mov	sp, r7
 8003d48:	bd80      	pop	{r7, pc}

08003d4a <_write>:

__attribute__((weak)) int _write(int file, char *ptr, int len)
{
 8003d4a:	b580      	push	{r7, lr}
 8003d4c:	b086      	sub	sp, #24
 8003d4e:	af00      	add	r7, sp, #0
 8003d50:	60f8      	str	r0, [r7, #12]
 8003d52:	60b9      	str	r1, [r7, #8]
 8003d54:	607a      	str	r2, [r7, #4]
  (void)file;
  int DataIdx;

  for (DataIdx = 0; DataIdx < len; DataIdx++)
 8003d56:	2300      	movs	r3, #0
 8003d58:	617b      	str	r3, [r7, #20]
 8003d5a:	e009      	b.n	8003d70 <_write+0x26>
  {
    __io_putchar(*ptr++);
 8003d5c:	68bb      	ldr	r3, [r7, #8]
 8003d5e:	1c5a      	adds	r2, r3, #1
 8003d60:	60ba      	str	r2, [r7, #8]
 8003d62:	781b      	ldrb	r3, [r3, #0]
 8003d64:	4618      	mov	r0, r3
 8003d66:	f3af 8000 	nop.w
  for (DataIdx = 0; DataIdx < len; DataIdx++)
 8003d6a:	697b      	ldr	r3, [r7, #20]
 8003d6c:	3301      	adds	r3, #1
 8003d6e:	617b      	str	r3, [r7, #20]
 8003d70:	697a      	ldr	r2, [r7, #20]
 8003d72:	687b      	ldr	r3, [r7, #4]
 8003d74:	429a      	cmp	r2, r3
 8003d76:	dbf1      	blt.n	8003d5c <_write+0x12>
  }
  return len;
 8003d78:	687b      	ldr	r3, [r7, #4]
}
 8003d7a:	4618      	mov	r0, r3
 8003d7c:	3718      	adds	r7, #24
 8003d7e:	46bd      	mov	sp, r7
 8003d80:	bd80      	pop	{r7, pc}

08003d82 <_close>:

int _close(int file)
{
 8003d82:	b480      	push	{r7}
 8003d84:	b083      	sub	sp, #12
 8003d86:	af00      	add	r7, sp, #0
 8003d88:	6078      	str	r0, [r7, #4]
  (void)file;
  return -1;
 8003d8a:	f04f 33ff 	mov.w	r3, #4294967295
}
 8003d8e:	4618      	mov	r0, r3
 8003d90:	370c      	adds	r7, #12
 8003d92:	46bd      	mov	sp, r7
 8003d94:	bc80      	pop	{r7}
 8003d96:	4770      	bx	lr

08003d98 <_fstat>:


int _fstat(int file, struct stat *st)
{
 8003d98:	b480      	push	{r7}
 8003d9a:	b083      	sub	sp, #12
 8003d9c:	af00      	add	r7, sp, #0
 8003d9e:	6078      	str	r0, [r7, #4]
 8003da0:	6039      	str	r1, [r7, #0]
  (void)file;
  st->st_mode = S_IFCHR;
 8003da2:	683b      	ldr	r3, [r7, #0]
 8003da4:	f44f 5200 	mov.w	r2, #8192	@ 0x2000
 8003da8:	605a      	str	r2, [r3, #4]
  return 0;
 8003daa:	2300      	movs	r3, #0
}
 8003dac:	4618      	mov	r0, r3
 8003dae:	370c      	adds	r7, #12
 8003db0:	46bd      	mov	sp, r7
 8003db2:	bc80      	pop	{r7}
 8003db4:	4770      	bx	lr

08003db6 <_isatty>:

int _isatty(int file)
{
 8003db6:	b480      	push	{r7}
 8003db8:	b083      	sub	sp, #12
 8003dba:	af00      	add	r7, sp, #0
 8003dbc:	6078      	str	r0, [r7, #4]
  (void)file;
  return 1;
 8003dbe:	2301      	movs	r3, #1
}
 8003dc0:	4618      	mov	r0, r3
 8003dc2:	370c      	adds	r7, #12
 8003dc4:	46bd      	mov	sp, r7
 8003dc6:	bc80      	pop	{r7}
 8003dc8:	4770      	bx	lr

08003dca <_lseek>:

int _lseek(int file, int ptr, int dir)
{
 8003dca:	b480      	push	{r7}
 8003dcc:	b085      	sub	sp, #20
 8003dce:	af00      	add	r7, sp, #0
 8003dd0:	60f8      	str	r0, [r7, #12]
 8003dd2:	60b9      	str	r1, [r7, #8]
 8003dd4:	607a      	str	r2, [r7, #4]
  (void)file;
  (void)ptr;
  (void)dir;
  return 0;
 8003dd6:	2300      	movs	r3, #0
}
 8003dd8:	4618      	mov	r0, r3
 8003dda:	3714      	adds	r7, #20
 8003ddc:	46bd      	mov	sp, r7
 8003dde:	bc80      	pop	{r7}
 8003de0:	4770      	bx	lr
	...

08003de4 <_sbrk>:
 *
 * @param incr Memory size
 * @return Pointer to allocated memory
 */
void *_sbrk(ptrdiff_t incr)
{
 8003de4:	b580      	push	{r7, lr}
 8003de6:	b086      	sub	sp, #24
 8003de8:	af00      	add	r7, sp, #0
 8003dea:	6078      	str	r0, [r7, #4]
  extern uint8_t _end; /* Symbol defined in the linker script */
  extern uint8_t _estack; /* Symbol defined in the linker script */
  extern uint32_t _Min_Stack_Size; /* Symbol defined in the linker script */
  const uint32_t stack_limit = (uint32_t)&_estack - (uint32_t)&_Min_Stack_Size;
 8003dec:	4a14      	ldr	r2, [pc, #80]	@ (8003e40 <_sbrk+0x5c>)
 8003dee:	4b15      	ldr	r3, [pc, #84]	@ (8003e44 <_sbrk+0x60>)
 8003df0:	1ad3      	subs	r3, r2, r3
 8003df2:	617b      	str	r3, [r7, #20]
  const uint8_t *max_heap = (uint8_t *)stack_limit;
 8003df4:	697b      	ldr	r3, [r7, #20]
 8003df6:	613b      	str	r3, [r7, #16]
  uint8_t *prev_heap_end;

  /* Initialize heap end at first call */
  if (NULL == __sbrk_heap_end)
 8003df8:	4b13      	ldr	r3, [pc, #76]	@ (8003e48 <_sbrk+0x64>)
 8003dfa:	681b      	ldr	r3, [r3, #0]
 8003dfc:	2b00      	cmp	r3, #0
 8003dfe:	d102      	bne.n	8003e06 <_sbrk+0x22>
  {
    __sbrk_heap_end = &_end;
 8003e00:	4b11      	ldr	r3, [pc, #68]	@ (8003e48 <_sbrk+0x64>)
 8003e02:	4a12      	ldr	r2, [pc, #72]	@ (8003e4c <_sbrk+0x68>)
 8003e04:	601a      	str	r2, [r3, #0]
  }

  /* Protect heap from growing into the reserved MSP stack */
  if (__sbrk_heap_end + incr > max_heap)
 8003e06:	4b10      	ldr	r3, [pc, #64]	@ (8003e48 <_sbrk+0x64>)
 8003e08:	681a      	ldr	r2, [r3, #0]
 8003e0a:	687b      	ldr	r3, [r7, #4]
 8003e0c:	4413      	add	r3, r2
 8003e0e:	693a      	ldr	r2, [r7, #16]
 8003e10:	429a      	cmp	r2, r3
 8003e12:	d207      	bcs.n	8003e24 <_sbrk+0x40>
  {
    errno = ENOMEM;
 8003e14:	f002 fab4 	bl	8006380 <__errno>
 8003e18:	4603      	mov	r3, r0
 8003e1a:	220c      	movs	r2, #12
 8003e1c:	601a      	str	r2, [r3, #0]
    return (void *)-1;
 8003e1e:	f04f 33ff 	mov.w	r3, #4294967295
 8003e22:	e009      	b.n	8003e38 <_sbrk+0x54>
  }

  prev_heap_end = __sbrk_heap_end;
 8003e24:	4b08      	ldr	r3, [pc, #32]	@ (8003e48 <_sbrk+0x64>)
 8003e26:	681b      	ldr	r3, [r3, #0]
 8003e28:	60fb      	str	r3, [r7, #12]
  __sbrk_heap_end += incr;
 8003e2a:	4b07      	ldr	r3, [pc, #28]	@ (8003e48 <_sbrk+0x64>)
 8003e2c:	681a      	ldr	r2, [r3, #0]
 8003e2e:	687b      	ldr	r3, [r7, #4]
 8003e30:	4413      	add	r3, r2
 8003e32:	4a05      	ldr	r2, [pc, #20]	@ (8003e48 <_sbrk+0x64>)
 8003e34:	6013      	str	r3, [r2, #0]

  return (void *)prev_heap_end;
 8003e36:	68fb      	ldr	r3, [r7, #12]
}
 8003e38:	4618      	mov	r0, r3
 8003e3a:	3718      	adds	r7, #24
 8003e3c:	46bd      	mov	sp, r7
 8003e3e:	bd80      	pop	{r7, pc}
 8003e40:	20005000 	.word	0x20005000
 8003e44:	00000400 	.word	0x00000400
 8003e48:	20000404 	.word	0x20000404
 8003e4c:	20000558 	.word	0x20000558

08003e50 <SystemInit>:
  * @note   This function should be used only after reset.
  * @param  None
  * @retval None
  */
void SystemInit (void)
{
 8003e50:	b480      	push	{r7}
 8003e52:	af00      	add	r7, sp, #0

  /* Configure the Vector Table location -------------------------------------*/
#if defined(USER_VECT_TAB_ADDRESS)
  SCB->VTOR = VECT_TAB_BASE_ADDRESS | VECT_TAB_OFFSET; /* Vector Table Relocation in Internal SRAM. */
#endif /* USER_VECT_TAB_ADDRESS */
}
 8003e54:	bf00      	nop
 8003e56:	46bd      	mov	sp, r7
 8003e58:	bc80      	pop	{r7}
 8003e5a:	4770      	bx	lr

08003e5c <Reset_Handler>:
  .weak Reset_Handler
  .type Reset_Handler, %function
Reset_Handler:

/* Call the clock system initialization function.*/
    bl  SystemInit
 8003e5c:	f7ff fff8 	bl	8003e50 <SystemInit>

/* Copy the data segment initializers from flash to SRAM */
  ldr r0, =_sdata
 8003e60:	480b      	ldr	r0, [pc, #44]	@ (8003e90 <LoopFillZerobss+0xe>)
  ldr r1, =_edata
 8003e62:	490c      	ldr	r1, [pc, #48]	@ (8003e94 <LoopFillZerobss+0x12>)
  ldr r2, =_sidata
 8003e64:	4a0c      	ldr	r2, [pc, #48]	@ (8003e98 <LoopFillZerobss+0x16>)
  movs r3, #0
 8003e66:	2300      	movs	r3, #0
  b LoopCopyDataInit
 8003e68:	e002      	b.n	8003e70 <LoopCopyDataInit>

08003e6a <CopyDataInit>:

CopyDataInit:
  ldr r4, [r2, r3]
 8003e6a:	58d4      	ldr	r4, [r2, r3]
  str r4, [r0, r3]
 8003e6c:	50c4      	str	r4, [r0, r3]
  adds r3, r3, #4
 8003e6e:	3304      	adds	r3, #4

08003e70 <LoopCopyDataInit>:

LoopCopyDataInit:
  adds r4, r0, r3
 8003e70:	18c4      	adds	r4, r0, r3
  cmp r4, r1
 8003e72:	428c      	cmp	r4, r1
  bcc CopyDataInit
 8003e74:	d3f9      	bcc.n	8003e6a <CopyDataInit>
  
/* Zero fill the bss segment. */
  ldr r2, =_sbss
 8003e76:	4a09      	ldr	r2, [pc, #36]	@ (8003e9c <LoopFillZerobss+0x1a>)
  ldr r4, =_ebss
 8003e78:	4c09      	ldr	r4, [pc, #36]	@ (8003ea0 <LoopFillZerobss+0x1e>)
  movs r3, #0
 8003e7a:	2300      	movs	r3, #0
  b LoopFillZerobss
 8003e7c:	e001      	b.n	8003e82 <LoopFillZerobss>

08003e7e <FillZerobss>:

FillZerobss:
  str  r3, [r2]
 8003e7e:	6013      	str	r3, [r2, #0]
  adds r2, r2, #4
 8003e80:	3204      	adds	r2, #4

08003e82 <LoopFillZerobss>:

LoopFillZerobss:
  cmp r2, r4
 8003e82:	42a2      	cmp	r2, r4
  bcc FillZerobss
 8003e84:	d3fb      	bcc.n	8003e7e <FillZerobss>

/* Call static constructors */
    bl __libc_init_array
 8003e86:	f002 fa81 	bl	800638c <__libc_init_array>
/* Call the application's entry point.*/
  bl main
 8003e8a:	f7fe fe53 	bl	8002b34 <main>
  bx lr
 8003e8e:	4770      	bx	lr
  ldr r0, =_sdata
 8003e90:	20000000 	.word	0x20000000
  ldr r1, =_edata
 8003e94:	2000007c 	.word	0x2000007c
  ldr r2, =_sidata
 8003e98:	08007210 	.word	0x08007210
  ldr r2, =_sbss
 8003e9c:	2000007c 	.word	0x2000007c
  ldr r4, =_ebss
 8003ea0:	20000558 	.word	0x20000558

08003ea4 <ADC1_2_IRQHandler>:
 * @retval : None
*/
    .section .text.Default_Handler,"ax",%progbits
Default_Handler:
Infinite_Loop:
  b Infinite_Loop
 8003ea4:	e7fe      	b.n	8003ea4 <ADC1_2_IRQHandler>
	...

08003ea8 <HAL_Init>:
  *         need to ensure that the SysTick time base is always set to 1 millisecond
  *         to have correct HAL operation.
  * @retval HAL status
  */
HAL_StatusTypeDef HAL_Init(void)
{
 8003ea8:	b580      	push	{r7, lr}
 8003eaa:	af00      	add	r7, sp, #0
    defined(STM32F102x6) || defined(STM32F102xB) || \
    defined(STM32F103x6) || defined(STM32F103xB) || defined(STM32F103xE) || defined(STM32F103xG) || \
    defined(STM32F105xC) || defined(STM32F107xC)

  /* Prefetch buffer is not available on value line devices */
  __HAL_FLASH_PREFETCH_BUFFER_ENABLE();
 8003eac:	4b08      	ldr	r3, [pc, #32]	@ (8003ed0 <HAL_Init+0x28>)
 8003eae:	681b      	ldr	r3, [r3, #0]
 8003eb0:	4a07      	ldr	r2, [pc, #28]	@ (8003ed0 <HAL_Init+0x28>)
 8003eb2:	f043 0310 	orr.w	r3, r3, #16
 8003eb6:	6013      	str	r3, [r2, #0]
#endif
#endif /* PREFETCH_ENABLE */

  /* Set Interrupt Group Priority */
  HAL_NVIC_SetPriorityGrouping(NVIC_PRIORITYGROUP_4);
 8003eb8:	2003      	movs	r0, #3
 8003eba:	f000 fa43 	bl	8004344 <HAL_NVIC_SetPriorityGrouping>

  /* Use systick as time base source and configure 1ms tick (default clock after Reset is HSI) */
  HAL_InitTick(TICK_INT_PRIORITY);
 8003ebe:	200f      	movs	r0, #15
 8003ec0:	f000 f808 	bl	8003ed4 <HAL_InitTick>

  /* Init the low level hardware */
  HAL_MspInit();
 8003ec4:	f7ff fd24 	bl	8003910 <HAL_MspInit>

  /* Return function status */
  return HAL_OK;
 8003ec8:	2300      	movs	r3, #0
}
 8003eca:	4618      	mov	r0, r3
 8003ecc:	bd80      	pop	{r7, pc}
 8003ece:	bf00      	nop
 8003ed0:	40022000 	.word	0x40022000

08003ed4 <HAL_InitTick>:
  *       implementation  in user file.
  * @param TickPriority Tick interrupt priority.
  * @retval HAL status
  */
__weak HAL_StatusTypeDef HAL_InitTick(uint32_t TickPriority)
{
 8003ed4:	b580      	push	{r7, lr}
 8003ed6:	b082      	sub	sp, #8
 8003ed8:	af00      	add	r7, sp, #0
 8003eda:	6078      	str	r0, [r7, #4]
  /* Configure the SysTick to have interrupt in 1ms time basis*/
  if (HAL_SYSTICK_Config(SystemCoreClock / (1000U / uwTickFreq)) > 0U)
 8003edc:	4b12      	ldr	r3, [pc, #72]	@ (8003f28 <HAL_InitTick+0x54>)
 8003ede:	681a      	ldr	r2, [r3, #0]
 8003ee0:	4b12      	ldr	r3, [pc, #72]	@ (8003f2c <HAL_InitTick+0x58>)
 8003ee2:	781b      	ldrb	r3, [r3, #0]
 8003ee4:	4619      	mov	r1, r3
 8003ee6:	f44f 737a 	mov.w	r3, #1000	@ 0x3e8
 8003eea:	fbb3 f3f1 	udiv	r3, r3, r1
 8003eee:	fbb2 f3f3 	udiv	r3, r2, r3
 8003ef2:	4618      	mov	r0, r3
 8003ef4:	f000 fa5b 	bl	80043ae <HAL_SYSTICK_Config>
 8003ef8:	4603      	mov	r3, r0
 8003efa:	2b00      	cmp	r3, #0
 8003efc:	d001      	beq.n	8003f02 <HAL_InitTick+0x2e>
  {
    return HAL_ERROR;
 8003efe:	2301      	movs	r3, #1
 8003f00:	e00e      	b.n	8003f20 <HAL_InitTick+0x4c>
  }

  /* Configure the SysTick IRQ priority */
  if (TickPriority < (1UL << __NVIC_PRIO_BITS))
 8003f02:	687b      	ldr	r3, [r7, #4]
 8003f04:	2b0f      	cmp	r3, #15
 8003f06:	d80a      	bhi.n	8003f1e <HAL_InitTick+0x4a>
  {
    HAL_NVIC_SetPriority(SysTick_IRQn, TickPriority, 0U);
 8003f08:	2200      	movs	r2, #0
 8003f0a:	6879      	ldr	r1, [r7, #4]
 8003f0c:	f04f 30ff 	mov.w	r0, #4294967295
 8003f10:	f000 fa23 	bl	800435a <HAL_NVIC_SetPriority>
    uwTickPrio = TickPriority;
 8003f14:	4a06      	ldr	r2, [pc, #24]	@ (8003f30 <HAL_InitTick+0x5c>)
 8003f16:	687b      	ldr	r3, [r7, #4]
 8003f18:	6013      	str	r3, [r2, #0]
  {
    return HAL_ERROR;
  }

  /* Return function status */
  return HAL_OK;
 8003f1a:	2300      	movs	r3, #0
 8003f1c:	e000      	b.n	8003f20 <HAL_InitTick+0x4c>
    return HAL_ERROR;
 8003f1e:	2301      	movs	r3, #1
}
 8003f20:	4618      	mov	r0, r3
 8003f22:	3708      	adds	r7, #8
 8003f24:	46bd      	mov	sp, r7
 8003f26:	bd80      	pop	{r7, pc}
 8003f28:	20000014 	.word	0x20000014
 8003f2c:	2000001c 	.word	0x2000001c
 8003f30:	20000018 	.word	0x20000018

08003f34 <HAL_IncTick>:
  * @note This function is declared as __weak to be overwritten in case of other
  *      implementations in user file.
  * @retval None
  */
__weak void HAL_IncTick(void)
{
 8003f34:	b480      	push	{r7}
 8003f36:	af00      	add	r7, sp, #0
  uwTick += uwTickFreq;
 8003f38:	4b05      	ldr	r3, [pc, #20]	@ (8003f50 <HAL_IncTick+0x1c>)
 8003f3a:	781b      	ldrb	r3, [r3, #0]
 8003f3c:	461a      	mov	r2, r3
 8003f3e:	4b05      	ldr	r3, [pc, #20]	@ (8003f54 <HAL_IncTick+0x20>)
 8003f40:	681b      	ldr	r3, [r3, #0]
 8003f42:	4413      	add	r3, r2
 8003f44:	4a03      	ldr	r2, [pc, #12]	@ (8003f54 <HAL_IncTick+0x20>)
 8003f46:	6013      	str	r3, [r2, #0]
}
 8003f48:	bf00      	nop
 8003f4a:	46bd      	mov	sp, r7
 8003f4c:	bc80      	pop	{r7}
 8003f4e:	4770      	bx	lr
 8003f50:	2000001c 	.word	0x2000001c
 8003f54:	20000408 	.word	0x20000408

08003f58 <HAL_GetTick>:
  * @note  This function is declared as __weak to be overwritten in case of other
  *       implementations in user file.
  * @retval tick value
  */
__weak uint32_t HAL_GetTick(void)
{
 8003f58:	b480      	push	{r7}
 8003f5a:	af00      	add	r7, sp, #0
  return uwTick;
 8003f5c:	4b02      	ldr	r3, [pc, #8]	@ (8003f68 <HAL_GetTick+0x10>)
 8003f5e:	681b      	ldr	r3, [r3, #0]
}
 8003f60:	4618      	mov	r0, r3
 8003f62:	46bd      	mov	sp, r7
 8003f64:	bc80      	pop	{r7}
 8003f66:	4770      	bx	lr
 8003f68:	20000408 	.word	0x20000408

08003f6c <HAL_Delay>:
  *       implementations in user file.
  * @param Delay specifies the delay time length, in milliseconds.
  * @retval None
  */
__weak void HAL_Delay(uint32_t Delay)
{
 8003f6c:	b580      	push	{r7, lr}
 8003f6e:	b084      	sub	sp, #16
 8003f70:	af00      	add	r7, sp, #0
 8003f72:	6078      	str	r0, [r7, #4]
  uint32_t tickstart = HAL_GetTick();
 8003f74:	f7ff fff0 	bl	8003f58 <HAL_GetTick>
 8003f78:	60b8      	str	r0, [r7, #8]
  uint32_t wait = Delay;
 8003f7a:	687b      	ldr	r3, [r7, #4]
 8003f7c:	60fb      	str	r3, [r7, #12]

  /* Add a freq to guarantee minimum wait */
  if (wait < HAL_MAX_DELAY)
 8003f7e:	68fb      	ldr	r3, [r7, #12]
 8003f80:	f1b3 3fff 	cmp.w	r3, #4294967295
 8003f84:	d005      	beq.n	8003f92 <HAL_Delay+0x26>
  {
    wait += (uint32_t)(uwTickFreq);
 8003f86:	4b0a      	ldr	r3, [pc, #40]	@ (8003fb0 <HAL_Delay+0x44>)
 8003f88:	781b      	ldrb	r3, [r3, #0]
 8003f8a:	461a      	mov	r2, r3
 8003f8c:	68fb      	ldr	r3, [r7, #12]
 8003f8e:	4413      	add	r3, r2
 8003f90:	60fb      	str	r3, [r7, #12]
  }

  while ((HAL_GetTick() - tickstart) < wait)
 8003f92:	bf00      	nop
 8003f94:	f7ff ffe0 	bl	8003f58 <HAL_GetTick>
 8003f98:	4602      	mov	r2, r0
 8003f9a:	68bb      	ldr	r3, [r7, #8]
 8003f9c:	1ad3      	subs	r3, r2, r3
 8003f9e:	68fa      	ldr	r2, [r7, #12]
 8003fa0:	429a      	cmp	r2, r3
 8003fa2:	d8f7      	bhi.n	8003f94 <HAL_Delay+0x28>
  {
  }
}
 8003fa4:	bf00      	nop
 8003fa6:	bf00      	nop
 8003fa8:	3710      	adds	r7, #16
 8003faa:	46bd      	mov	sp, r7
 8003fac:	bd80      	pop	{r7, pc}
 8003fae:	bf00      	nop
 8003fb0:	2000001c 	.word	0x2000001c

08003fb4 <HAL_CAN_Init>:
  * @param  hcan pointer to a CAN_HandleTypeDef structure that contains
  *         the configuration information for the specified CAN.
  * @retval HAL status
  */
HAL_StatusTypeDef HAL_CAN_Init(CAN_HandleTypeDef *hcan)
{
 8003fb4:	b580      	push	{r7, lr}
 8003fb6:	b084      	sub	sp, #16
 8003fb8:	af00      	add	r7, sp, #0
 8003fba:	6078      	str	r0, [r7, #4]
  uint32_t tickstart;

  /* Check CAN handle */
  if (hcan == NULL)
 8003fbc:	687b      	ldr	r3, [r7, #4]
 8003fbe:	2b00      	cmp	r3, #0
 8003fc0:	d101      	bne.n	8003fc6 <HAL_CAN_Init+0x12>
  {
    return HAL_ERROR;
 8003fc2:	2301      	movs	r3, #1
 8003fc4:	e0ed      	b.n	80041a2 <HAL_CAN_Init+0x1ee>
    /* Init the low level hardware: CLOCK, NVIC */
    hcan->MspInitCallback(hcan);
  }

#else
  if (hcan->State == HAL_CAN_STATE_RESET)
 8003fc6:	687b      	ldr	r3, [r7, #4]
 8003fc8:	f893 3020 	ldrb.w	r3, [r3, #32]
 8003fcc:	b2db      	uxtb	r3, r3
 8003fce:	2b00      	cmp	r3, #0
 8003fd0:	d102      	bne.n	8003fd8 <HAL_CAN_Init+0x24>
  {
    /* Init the low level hardware: CLOCK, NVIC */
    HAL_CAN_MspInit(hcan);
 8003fd2:	6878      	ldr	r0, [r7, #4]
 8003fd4:	f7ff fcce 	bl	8003974 <HAL_CAN_MspInit>
  }
#endif /* USE_HAL_CAN_REGISTER_CALLBACKS */

  /* Request initialisation */
  SET_BIT(hcan->Instance->MCR, CAN_MCR_INRQ);
 8003fd8:	687b      	ldr	r3, [r7, #4]
 8003fda:	681b      	ldr	r3, [r3, #0]
 8003fdc:	681a      	ldr	r2, [r3, #0]
 8003fde:	687b      	ldr	r3, [r7, #4]
 8003fe0:	681b      	ldr	r3, [r3, #0]
 8003fe2:	f042 0201 	orr.w	r2, r2, #1
 8003fe6:	601a      	str	r2, [r3, #0]

  /* Get tick */
  tickstart = HAL_GetTick();
 8003fe8:	f7ff ffb6 	bl	8003f58 <HAL_GetTick>
 8003fec:	60f8      	str	r0, [r7, #12]

  /* Wait initialisation acknowledge */
  while ((hcan->Instance->MSR & CAN_MSR_INAK) == 0U)
 8003fee:	e012      	b.n	8004016 <HAL_CAN_Init+0x62>
  {
    if ((HAL_GetTick() - tickstart) > CAN_TIMEOUT_VALUE)
 8003ff0:	f7ff ffb2 	bl	8003f58 <HAL_GetTick>
 8003ff4:	4602      	mov	r2, r0
 8003ff6:	68fb      	ldr	r3, [r7, #12]
 8003ff8:	1ad3      	subs	r3, r2, r3
 8003ffa:	2b0a      	cmp	r3, #10
 8003ffc:	d90b      	bls.n	8004016 <HAL_CAN_Init+0x62>
    {
      /* Update error code */
      hcan->ErrorCode |= HAL_CAN_ERROR_TIMEOUT;
 8003ffe:	687b      	ldr	r3, [r7, #4]
 8004000:	6a5b      	ldr	r3, [r3, #36]	@ 0x24
 8004002:	f443 3200 	orr.w	r2, r3, #131072	@ 0x20000
 8004006:	687b      	ldr	r3, [r7, #4]
 8004008:	625a      	str	r2, [r3, #36]	@ 0x24

      /* Change CAN state */
      hcan->State = HAL_CAN_STATE_ERROR;
 800400a:	687b      	ldr	r3, [r7, #4]
 800400c:	2205      	movs	r2, #5
 800400e:	f883 2020 	strb.w	r2, [r3, #32]

      return HAL_ERROR;
 8004012:	2301      	movs	r3, #1
 8004014:	e0c5      	b.n	80041a2 <HAL_CAN_Init+0x1ee>
  while ((hcan->Instance->MSR & CAN_MSR_INAK) == 0U)
 8004016:	687b      	ldr	r3, [r7, #4]
 8004018:	681b      	ldr	r3, [r3, #0]
 800401a:	685b      	ldr	r3, [r3, #4]
 800401c:	f003 0301 	and.w	r3, r3, #1
 8004020:	2b00      	cmp	r3, #0
 8004022:	d0e5      	beq.n	8003ff0 <HAL_CAN_Init+0x3c>
    }
  }

  /* Exit from sleep mode */
  CLEAR_BIT(hcan->Instance->MCR, CAN_MCR_SLEEP);
 8004024:	687b      	ldr	r3, [r7, #4]
 8004026:	681b      	ldr	r3, [r3, #0]
 8004028:	681a      	ldr	r2, [r3, #0]
 800402a:	687b      	ldr	r3, [r7, #4]
 800402c:	681b      	ldr	r3, [r3, #0]
 800402e:	f022 0202 	bic.w	r2, r2, #2
 8004032:	601a      	str	r2, [r3, #0]

  /* Get tick */
  tickstart = HAL_GetTick();
 8004034:	f7ff ff90 	bl	8003f58 <HAL_GetTick>
 8004038:	60f8      	str	r0, [r7, #12]

  /* Check Sleep mode leave acknowledge */
  while ((hcan->Instance->MSR & CAN_MSR_SLAK) != 0U)
 800403a:	e012      	b.n	8004062 <HAL_CAN_Init+0xae>
  {
    if ((HAL_GetTick() - tickstart) > CAN_TIMEOUT_VALUE)
 800403c:	f7ff ff8c 	bl	8003f58 <HAL_GetTick>
 8004040:	4602      	mov	r2, r0
 8004042:	68fb      	ldr	r3, [r7, #12]
 8004044:	1ad3      	subs	r3, r2, r3
 8004046:	2b0a      	cmp	r3, #10
 8004048:	d90b      	bls.n	8004062 <HAL_CAN_Init+0xae>
    {
      /* Update error code */
      hcan->ErrorCode |= HAL_CAN_ERROR_TIMEOUT;
 800404a:	687b      	ldr	r3, [r7, #4]
 800404c:	6a5b      	ldr	r3, [r3, #36]	@ 0x24
 800404e:	f443 3200 	orr.w	r2, r3, #131072	@ 0x20000
 8004052:	687b      	ldr	r3, [r7, #4]
 8004054:	625a      	str	r2, [r3, #36]	@ 0x24

      /* Change CAN state */
      hcan->State = HAL_CAN_STATE_ERROR;
 8004056:	687b      	ldr	r3, [r7, #4]
 8004058:	2205      	movs	r2, #5
 800405a:	f883 2020 	strb.w	r2, [r3, #32]

      return HAL_ERROR;
 800405e:	2301      	movs	r3, #1
 8004060:	e09f      	b.n	80041a2 <HAL_CAN_Init+0x1ee>
  while ((hcan->Instance->MSR & CAN_MSR_SLAK) != 0U)
 8004062:	687b      	ldr	r3, [r7, #4]
 8004064:	681b      	ldr	r3, [r3, #0]
 8004066:	685b      	ldr	r3, [r3, #4]
 8004068:	f003 0302 	and.w	r3, r3, #2
 800406c:	2b00      	cmp	r3, #0
 800406e:	d1e5      	bne.n	800403c <HAL_CAN_Init+0x88>
    }
  }

  /* Set the time triggered communication mode */
  if (hcan->Init.TimeTriggeredMode == ENABLE)
 8004070:	687b      	ldr	r3, [r7, #4]
 8004072:	7e1b      	ldrb	r3, [r3, #24]
 8004074:	2b01      	cmp	r3, #1
 8004076:	d108      	bne.n	800408a <HAL_CAN_Init+0xd6>
  {
    SET_BIT(hcan->Instance->MCR, CAN_MCR_TTCM);
 8004078:	687b      	ldr	r3, [r7, #4]
 800407a:	681b      	ldr	r3, [r3, #0]
 800407c:	681a      	ldr	r2, [r3, #0]
 800407e:	687b      	ldr	r3, [r7, #4]
 8004080:	681b      	ldr	r3, [r3, #0]
 8004082:	f042 0280 	orr.w	r2, r2, #128	@ 0x80
 8004086:	601a      	str	r2, [r3, #0]
 8004088:	e007      	b.n	800409a <HAL_CAN_Init+0xe6>
  }
  else
  {
    CLEAR_BIT(hcan->Instance->MCR, CAN_MCR_TTCM);
 800408a:	687b      	ldr	r3, [r7, #4]
 800408c:	681b      	ldr	r3, [r3, #0]
 800408e:	681a      	ldr	r2, [r3, #0]
 8004090:	687b      	ldr	r3, [r7, #4]
 8004092:	681b      	ldr	r3, [r3, #0]
 8004094:	f022 0280 	bic.w	r2, r2, #128	@ 0x80
 8004098:	601a      	str	r2, [r3, #0]
  }

  /* Set the automatic bus-off management */
  if (hcan->Init.AutoBusOff == ENABLE)
 800409a:	687b      	ldr	r3, [r7, #4]
 800409c:	7e5b      	ldrb	r3, [r3, #25]
 800409e:	2b01      	cmp	r3, #1
 80040a0:	d108      	bne.n	80040b4 <HAL_CAN_Init+0x100>
  {
    SET_BIT(hcan->Instance->MCR, CAN_MCR_ABOM);
 80040a2:	687b      	ldr	r3, [r7, #4]
 80040a4:	681b      	ldr	r3, [r3, #0]
 80040a6:	681a      	ldr	r2, [r3, #0]
 80040a8:	687b      	ldr	r3, [r7, #4]
 80040aa:	681b      	ldr	r3, [r3, #0]
 80040ac:	f042 0240 	orr.w	r2, r2, #64	@ 0x40
 80040b0:	601a      	str	r2, [r3, #0]
 80040b2:	e007      	b.n	80040c4 <HAL_CAN_Init+0x110>
  }
  else
  {
    CLEAR_BIT(hcan->Instance->MCR, CAN_MCR_ABOM);
 80040b4:	687b      	ldr	r3, [r7, #4]
 80040b6:	681b      	ldr	r3, [r3, #0]
 80040b8:	681a      	ldr	r2, [r3, #0]
 80040ba:	687b      	ldr	r3, [r7, #4]
 80040bc:	681b      	ldr	r3, [r3, #0]
 80040be:	f022 0240 	bic.w	r2, r2, #64	@ 0x40
 80040c2:	601a      	str	r2, [r3, #0]
  }

  /* Set the automatic wake-up mode */
  if (hcan->Init.AutoWakeUp == ENABLE)
 80040c4:	687b      	ldr	r3, [r7, #4]
 80040c6:	7e9b      	ldrb	r3, [r3, #26]
 80040c8:	2b01      	cmp	r3, #1
 80040ca:	d108      	bne.n	80040de <HAL_CAN_Init+0x12a>
  {
    SET_BIT(hcan->Instance->MCR, CAN_MCR_AWUM);
 80040cc:	687b      	ldr	r3, [r7, #4]
 80040ce:	681b      	ldr	r3, [r3, #0]
 80040d0:	681a      	ldr	r2, [r3, #0]
 80040d2:	687b      	ldr	r3, [r7, #4]
 80040d4:	681b      	ldr	r3, [r3, #0]
 80040d6:	f042 0220 	orr.w	r2, r2, #32
 80040da:	601a      	str	r2, [r3, #0]
 80040dc:	e007      	b.n	80040ee <HAL_CAN_Init+0x13a>
  }
  else
  {
    CLEAR_BIT(hcan->Instance->MCR, CAN_MCR_AWUM);
 80040de:	687b      	ldr	r3, [r7, #4]
 80040e0:	681b      	ldr	r3, [r3, #0]
 80040e2:	681a      	ldr	r2, [r3, #0]
 80040e4:	687b      	ldr	r3, [r7, #4]
 80040e6:	681b      	ldr	r3, [r3, #0]
 80040e8:	f022 0220 	bic.w	r2, r2, #32
 80040ec:	601a      	str	r2, [r3, #0]
  }

  /* Set the automatic retransmission */
  if (hcan->Init.AutoRetransmission == ENABLE)
 80040ee:	687b      	ldr	r3, [r7, #4]
 80040f0:	7edb      	ldrb	r3, [r3, #27]
 80040f2:	2b01      	cmp	r3, #1
 80040f4:	d108      	bne.n	8004108 <HAL_CAN_Init+0x154>
  {
    CLEAR_BIT(hcan->Instance->MCR, CAN_MCR_NART);
 80040f6:	687b      	ldr	r3, [r7, #4]
 80040f8:	681b      	ldr	r3, [r3, #0]
 80040fa:	681a      	ldr	r2, [r3, #0]
 80040fc:	687b      	ldr	r3, [r7, #4]
 80040fe:	681b      	ldr	r3, [r3, #0]
 8004100:	f022 0210 	bic.w	r2, r2, #16
 8004104:	601a      	str	r2, [r3, #0]
 8004106:	e007      	b.n	8004118 <HAL_CAN_Init+0x164>
  }
  else
  {
    SET_BIT(hcan->Instance->MCR, CAN_MCR_NART);
 8004108:	687b      	ldr	r3, [r7, #4]
 800410a:	681b      	ldr	r3, [r3, #0]
 800410c:	681a      	ldr	r2, [r3, #0]
 800410e:	687b      	ldr	r3, [r7, #4]
 8004110:	681b      	ldr	r3, [r3, #0]
 8004112:	f042 0210 	orr.w	r2, r2, #16
 8004116:	601a      	str	r2, [r3, #0]
  }

  /* Set the receive FIFO locked mode */
  if (hcan->Init.ReceiveFifoLocked == ENABLE)
 8004118:	687b      	ldr	r3, [r7, #4]
 800411a:	7f1b      	ldrb	r3, [r3, #28]
 800411c:	2b01      	cmp	r3, #1
 800411e:	d108      	bne.n	8004132 <HAL_CAN_Init+0x17e>
  {
    SET_BIT(hcan->Instance->MCR, CAN_MCR_RFLM);
 8004120:	687b      	ldr	r3, [r7, #4]
 8004122:	681b      	ldr	r3, [r3, #0]
 8004124:	681a      	ldr	r2, [r3, #0]
 8004126:	687b      	ldr	r3, [r7, #4]
 8004128:	681b      	ldr	r3, [r3, #0]
 800412a:	f042 0208 	orr.w	r2, r2, #8
 800412e:	601a      	str	r2, [r3, #0]
 8004130:	e007      	b.n	8004142 <HAL_CAN_Init+0x18e>
  }
  else
  {
    CLEAR_BIT(hcan->Instance->MCR, CAN_MCR_RFLM);
 8004132:	687b      	ldr	r3, [r7, #4]
 8004134:	681b      	ldr	r3, [r3, #0]
 8004136:	681a      	ldr	r2, [r3, #0]
 8004138:	687b      	ldr	r3, [r7, #4]
 800413a:	681b      	ldr	r3, [r3, #0]
 800413c:	f022 0208 	bic.w	r2, r2, #8
 8004140:	601a      	str	r2, [r3, #0]
  }

  /* Set the transmit FIFO priority */
  if (hcan->Init.TransmitFifoPriority == ENABLE)
 8004142:	687b      	ldr	r3, [r7, #4]
 8004144:	7f5b      	ldrb	r3, [r3, #29]
 8004146:	2b01      	cmp	r3, #1
 8004148:	d108      	bne.n	800415c <HAL_CAN_Init+0x1a8>
  {
    SET_BIT(hcan->Instance->MCR, CAN_MCR_TXFP);
 800414a:	687b      	ldr	r3, [r7, #4]
 800414c:	681b      	ldr	r3, [r3, #0]
 800414e:	681a      	ldr	r2, [r3, #0]
 8004150:	687b      	ldr	r3, [r7, #4]
 8004152:	681b      	ldr	r3, [r3, #0]
 8004154:	f042 0204 	orr.w	r2, r2, #4
 8004158:	601a      	str	r2, [r3, #0]
 800415a:	e007      	b.n	800416c <HAL_CAN_Init+0x1b8>
  }
  else
  {
    CLEAR_BIT(hcan->Instance->MCR, CAN_MCR_TXFP);
 800415c:	687b      	ldr	r3, [r7, #4]
 800415e:	681b      	ldr	r3, [r3, #0]
 8004160:	681a      	ldr	r2, [r3, #0]
 8004162:	687b      	ldr	r3, [r7, #4]
 8004164:	681b      	ldr	r3, [r3, #0]
 8004166:	f022 0204 	bic.w	r2, r2, #4
 800416a:	601a      	str	r2, [r3, #0]
  }

  /* Set the bit timing register */
  WRITE_REG(hcan->Instance->BTR, (uint32_t)(hcan->Init.Mode           |
 800416c:	687b      	ldr	r3, [r7, #4]
 800416e:	689a      	ldr	r2, [r3, #8]
 8004170:	687b      	ldr	r3, [r7, #4]
 8004172:	68db      	ldr	r3, [r3, #12]
 8004174:	431a      	orrs	r2, r3
 8004176:	687b      	ldr	r3, [r7, #4]
 8004178:	691b      	ldr	r3, [r3, #16]
 800417a:	431a      	orrs	r2, r3
 800417c:	687b      	ldr	r3, [r7, #4]
 800417e:	695b      	ldr	r3, [r3, #20]
 8004180:	ea42 0103 	orr.w	r1, r2, r3
 8004184:	687b      	ldr	r3, [r7, #4]
 8004186:	685b      	ldr	r3, [r3, #4]
 8004188:	1e5a      	subs	r2, r3, #1
 800418a:	687b      	ldr	r3, [r7, #4]
 800418c:	681b      	ldr	r3, [r3, #0]
 800418e:	430a      	orrs	r2, r1
 8004190:	61da      	str	r2, [r3, #28]
                                            hcan->Init.TimeSeg1       |
                                            hcan->Init.TimeSeg2       |
                                            (hcan->Init.Prescaler - 1U)));

  /* Initialize the error code */
  hcan->ErrorCode = HAL_CAN_ERROR_NONE;
 8004192:	687b      	ldr	r3, [r7, #4]
 8004194:	2200      	movs	r2, #0
 8004196:	625a      	str	r2, [r3, #36]	@ 0x24

  /* Initialize the CAN state */
  hcan->State = HAL_CAN_STATE_READY;
 8004198:	687b      	ldr	r3, [r7, #4]
 800419a:	2201      	movs	r2, #1
 800419c:	f883 2020 	strb.w	r2, [r3, #32]

  /* Return function status */
  return HAL_OK;
 80041a0:	2300      	movs	r3, #0
}
 80041a2:	4618      	mov	r0, r3
 80041a4:	3710      	adds	r7, #16
 80041a6:	46bd      	mov	sp, r7
 80041a8:	bd80      	pop	{r7, pc}
	...

080041ac <__NVIC_SetPriorityGrouping>:
           In case of a conflict between priority grouping and available
           priority bits (__NVIC_PRIO_BITS), the smallest possible priority group is set.
  \param [in]      PriorityGroup  Priority grouping field.
 */
__STATIC_INLINE void __NVIC_SetPriorityGrouping(uint32_t PriorityGroup)
{
 80041ac:	b480      	push	{r7}
 80041ae:	b085      	sub	sp, #20
 80041b0:	af00      	add	r7, sp, #0
 80041b2:	6078      	str	r0, [r7, #4]
  uint32_t reg_value;
  uint32_t PriorityGroupTmp = (PriorityGroup & (uint32_t)0x07UL);             /* only values 0..7 are used          */
 80041b4:	687b      	ldr	r3, [r7, #4]
 80041b6:	f003 0307 	and.w	r3, r3, #7
 80041ba:	60fb      	str	r3, [r7, #12]

  reg_value  =  SCB->AIRCR;                                                   /* read old register configuration    */
 80041bc:	4b0c      	ldr	r3, [pc, #48]	@ (80041f0 <__NVIC_SetPriorityGrouping+0x44>)
 80041be:	68db      	ldr	r3, [r3, #12]
 80041c0:	60bb      	str	r3, [r7, #8]
  reg_value &= ~((uint32_t)(SCB_AIRCR_VECTKEY_Msk | SCB_AIRCR_PRIGROUP_Msk)); /* clear bits to change               */
 80041c2:	68ba      	ldr	r2, [r7, #8]
 80041c4:	f64f 03ff 	movw	r3, #63743	@ 0xf8ff
 80041c8:	4013      	ands	r3, r2
 80041ca:	60bb      	str	r3, [r7, #8]
  reg_value  =  (reg_value                                   |
                ((uint32_t)0x5FAUL << SCB_AIRCR_VECTKEY_Pos) |
                (PriorityGroupTmp << SCB_AIRCR_PRIGROUP_Pos) );               /* Insert write key and priority group */
 80041cc:	68fb      	ldr	r3, [r7, #12]
 80041ce:	021a      	lsls	r2, r3, #8
                ((uint32_t)0x5FAUL << SCB_AIRCR_VECTKEY_Pos) |
 80041d0:	68bb      	ldr	r3, [r7, #8]
 80041d2:	4313      	orrs	r3, r2
  reg_value  =  (reg_value                                   |
 80041d4:	f043 63bf 	orr.w	r3, r3, #100139008	@ 0x5f80000
 80041d8:	f443 3300 	orr.w	r3, r3, #131072	@ 0x20000
 80041dc:	60bb      	str	r3, [r7, #8]
  SCB->AIRCR =  reg_value;
 80041de:	4a04      	ldr	r2, [pc, #16]	@ (80041f0 <__NVIC_SetPriorityGrouping+0x44>)
 80041e0:	68bb      	ldr	r3, [r7, #8]
 80041e2:	60d3      	str	r3, [r2, #12]
}
 80041e4:	bf00      	nop
 80041e6:	3714      	adds	r7, #20
 80041e8:	46bd      	mov	sp, r7
 80041ea:	bc80      	pop	{r7}
 80041ec:	4770      	bx	lr
 80041ee:	bf00      	nop
 80041f0:	e000ed00 	.word	0xe000ed00

080041f4 <__NVIC_GetPriorityGrouping>:
  \brief   Get Priority Grouping
  \details Reads the priority grouping field from the NVIC Interrupt Controller.
  \return                Priority grouping field (SCB->AIRCR [10:8] PRIGROUP field).
 */
__STATIC_INLINE uint32_t __NVIC_GetPriorityGrouping(void)
{
 80041f4:	b480      	push	{r7}
 80041f6:	af00      	add	r7, sp, #0
  return ((uint32_t)((SCB->AIRCR & SCB_AIRCR_PRIGROUP_Msk) >> SCB_AIRCR_PRIGROUP_Pos));
 80041f8:	4b04      	ldr	r3, [pc, #16]	@ (800420c <__NVIC_GetPriorityGrouping+0x18>)
 80041fa:	68db      	ldr	r3, [r3, #12]
 80041fc:	0a1b      	lsrs	r3, r3, #8
 80041fe:	f003 0307 	and.w	r3, r3, #7
}
 8004202:	4618      	mov	r0, r3
 8004204:	46bd      	mov	sp, r7
 8004206:	bc80      	pop	{r7}
 8004208:	4770      	bx	lr
 800420a:	bf00      	nop
 800420c:	e000ed00 	.word	0xe000ed00

08004210 <__NVIC_EnableIRQ>:
  \details Enables a device specific interrupt in the NVIC interrupt controller.
  \param [in]      IRQn  Device specific interrupt number.
  \note    IRQn must not be negative.
 */
__STATIC_INLINE void __NVIC_EnableIRQ(IRQn_Type IRQn)
{
 8004210:	b480      	push	{r7}
 8004212:	b083      	sub	sp, #12
 8004214:	af00      	add	r7, sp, #0
 8004216:	4603      	mov	r3, r0
 8004218:	71fb      	strb	r3, [r7, #7]
  if ((int32_t)(IRQn) >= 0)
 800421a:	f997 3007 	ldrsb.w	r3, [r7, #7]
 800421e:	2b00      	cmp	r3, #0
 8004220:	db0b      	blt.n	800423a <__NVIC_EnableIRQ+0x2a>
  {
    NVIC->ISER[(((uint32_t)IRQn) >> 5UL)] = (uint32_t)(1UL << (((uint32_t)IRQn) & 0x1FUL));
 8004222:	79fb      	ldrb	r3, [r7, #7]
 8004224:	f003 021f 	and.w	r2, r3, #31
 8004228:	4906      	ldr	r1, [pc, #24]	@ (8004244 <__NVIC_EnableIRQ+0x34>)
 800422a:	f997 3007 	ldrsb.w	r3, [r7, #7]
 800422e:	095b      	lsrs	r3, r3, #5
 8004230:	2001      	movs	r0, #1
 8004232:	fa00 f202 	lsl.w	r2, r0, r2
 8004236:	f841 2023 	str.w	r2, [r1, r3, lsl #2]
  }
}
 800423a:	bf00      	nop
 800423c:	370c      	adds	r7, #12
 800423e:	46bd      	mov	sp, r7
 8004240:	bc80      	pop	{r7}
 8004242:	4770      	bx	lr
 8004244:	e000e100 	.word	0xe000e100

08004248 <__NVIC_SetPriority>:
  \param [in]      IRQn  Interrupt number.
  \param [in]  priority  Priority to set.
  \note    The priority cannot be set for every processor exception.
 */
__STATIC_INLINE void __NVIC_SetPriority(IRQn_Type IRQn, uint32_t priority)
{
 8004248:	b480      	push	{r7}
 800424a:	b083      	sub	sp, #12
 800424c:	af00      	add	r7, sp, #0
 800424e:	4603      	mov	r3, r0
 8004250:	6039      	str	r1, [r7, #0]
 8004252:	71fb      	strb	r3, [r7, #7]
  if ((int32_t)(IRQn) >= 0)
 8004254:	f997 3007 	ldrsb.w	r3, [r7, #7]
 8004258:	2b00      	cmp	r3, #0
 800425a:	db0a      	blt.n	8004272 <__NVIC_SetPriority+0x2a>
  {
    NVIC->IP[((uint32_t)IRQn)]               = (uint8_t)((priority << (8U - __NVIC_PRIO_BITS)) & (uint32_t)0xFFUL);
 800425c:	683b      	ldr	r3, [r7, #0]
 800425e:	b2da      	uxtb	r2, r3
 8004260:	490c      	ldr	r1, [pc, #48]	@ (8004294 <__NVIC_SetPriority+0x4c>)
 8004262:	f997 3007 	ldrsb.w	r3, [r7, #7]
 8004266:	0112      	lsls	r2, r2, #4
 8004268:	b2d2      	uxtb	r2, r2
 800426a:	440b      	add	r3, r1
 800426c:	f883 2300 	strb.w	r2, [r3, #768]	@ 0x300
  }
  else
  {
    SCB->SHP[(((uint32_t)IRQn) & 0xFUL)-4UL] = (uint8_t)((priority << (8U - __NVIC_PRIO_BITS)) & (uint32_t)0xFFUL);
  }
}
 8004270:	e00a      	b.n	8004288 <__NVIC_SetPriority+0x40>
    SCB->SHP[(((uint32_t)IRQn) & 0xFUL)-4UL] = (uint8_t)((priority << (8U - __NVIC_PRIO_BITS)) & (uint32_t)0xFFUL);
 8004272:	683b      	ldr	r3, [r7, #0]
 8004274:	b2da      	uxtb	r2, r3
 8004276:	4908      	ldr	r1, [pc, #32]	@ (8004298 <__NVIC_SetPriority+0x50>)
 8004278:	79fb      	ldrb	r3, [r7, #7]
 800427a:	f003 030f 	and.w	r3, r3, #15
 800427e:	3b04      	subs	r3, #4
 8004280:	0112      	lsls	r2, r2, #4
 8004282:	b2d2      	uxtb	r2, r2
 8004284:	440b      	add	r3, r1
 8004286:	761a      	strb	r2, [r3, #24]
}
 8004288:	bf00      	nop
 800428a:	370c      	adds	r7, #12
 800428c:	46bd      	mov	sp, r7
 800428e:	bc80      	pop	{r7}
 8004290:	4770      	bx	lr
 8004292:	bf00      	nop
 8004294:	e000e100 	.word	0xe000e100
 8004298:	e000ed00 	.word	0xe000ed00

0800429c <NVIC_EncodePriority>:
  \param [in]   PreemptPriority  Preemptive priority value (starting from 0).
  \param [in]       SubPriority  Subpriority value (starting from 0).
  \return                        Encoded priority. Value can be used in the function \ref NVIC_SetPriority().
 */
__STATIC_INLINE uint32_t NVIC_EncodePriority (uint32_t PriorityGroup, uint32_t PreemptPriority, uint32_t SubPriority)
{
 800429c:	b480      	push	{r7}
 800429e:	b089      	sub	sp, #36	@ 0x24
 80042a0:	af00      	add	r7, sp, #0
 80042a2:	60f8      	str	r0, [r7, #12]
 80042a4:	60b9      	str	r1, [r7, #8]
 80042a6:	607a      	str	r2, [r7, #4]
  uint32_t PriorityGroupTmp = (PriorityGroup & (uint32_t)0x07UL);   /* only values 0..7 are used          */
 80042a8:	68fb      	ldr	r3, [r7, #12]
 80042aa:	f003 0307 	and.w	r3, r3, #7
 80042ae:	61fb      	str	r3, [r7, #28]
  uint32_t PreemptPriorityBits;
  uint32_t SubPriorityBits;

  PreemptPriorityBits = ((7UL - PriorityGroupTmp) > (uint32_t)(__NVIC_PRIO_BITS)) ? (uint32_t)(__NVIC_PRIO_BITS) : (uint32_t)(7UL - PriorityGroupTmp);
 80042b0:	69fb      	ldr	r3, [r7, #28]
 80042b2:	f1c3 0307 	rsb	r3, r3, #7
 80042b6:	2b04      	cmp	r3, #4
 80042b8:	bf28      	it	cs
 80042ba:	2304      	movcs	r3, #4
 80042bc:	61bb      	str	r3, [r7, #24]
  SubPriorityBits     = ((PriorityGroupTmp + (uint32_t)(__NVIC_PRIO_BITS)) < (uint32_t)7UL) ? (uint32_t)0UL : (uint32_t)((PriorityGroupTmp - 7UL) + (uint32_t)(__NVIC_PRIO_BITS));
 80042be:	69fb      	ldr	r3, [r7, #28]
 80042c0:	3304      	adds	r3, #4
 80042c2:	2b06      	cmp	r3, #6
 80042c4:	d902      	bls.n	80042cc <NVIC_EncodePriority+0x30>
 80042c6:	69fb      	ldr	r3, [r7, #28]
 80042c8:	3b03      	subs	r3, #3
 80042ca:	e000      	b.n	80042ce <NVIC_EncodePriority+0x32>
 80042cc:	2300      	movs	r3, #0
 80042ce:	617b      	str	r3, [r7, #20]

  return (
           ((PreemptPriority & (uint32_t)((1UL << (PreemptPriorityBits)) - 1UL)) << SubPriorityBits) |
 80042d0:	f04f 32ff 	mov.w	r2, #4294967295
 80042d4:	69bb      	ldr	r3, [r7, #24]
 80042d6:	fa02 f303 	lsl.w	r3, r2, r3
 80042da:	43da      	mvns	r2, r3
 80042dc:	68bb      	ldr	r3, [r7, #8]
 80042de:	401a      	ands	r2, r3
 80042e0:	697b      	ldr	r3, [r7, #20]
 80042e2:	409a      	lsls	r2, r3
           ((SubPriority     & (uint32_t)((1UL << (SubPriorityBits    )) - 1UL)))
 80042e4:	f04f 31ff 	mov.w	r1, #4294967295
 80042e8:	697b      	ldr	r3, [r7, #20]
 80042ea:	fa01 f303 	lsl.w	r3, r1, r3
 80042ee:	43d9      	mvns	r1, r3
 80042f0:	687b      	ldr	r3, [r7, #4]
 80042f2:	400b      	ands	r3, r1
           ((PreemptPriority & (uint32_t)((1UL << (PreemptPriorityBits)) - 1UL)) << SubPriorityBits) |
 80042f4:	4313      	orrs	r3, r2
         );
}
 80042f6:	4618      	mov	r0, r3
 80042f8:	3724      	adds	r7, #36	@ 0x24
 80042fa:	46bd      	mov	sp, r7
 80042fc:	bc80      	pop	{r7}
 80042fe:	4770      	bx	lr

08004300 <SysTick_Config>:
  \note    When the variable <b>__Vendor_SysTickConfig</b> is set to 1, then the
           function <b>SysTick_Config</b> is not included. In this case, the file <b><i>device</i>.h</b>
           must contain a vendor-specific implementation of this function.
 */
__STATIC_INLINE uint32_t SysTick_Config(uint32_t ticks)
{
 8004300:	b580      	push	{r7, lr}
 8004302:	b082      	sub	sp, #8
 8004304:	af00      	add	r7, sp, #0
 8004306:	6078      	str	r0, [r7, #4]
  if ((ticks - 1UL) > SysTick_LOAD_RELOAD_Msk)
 8004308:	687b      	ldr	r3, [r7, #4]
 800430a:	3b01      	subs	r3, #1
 800430c:	f1b3 7f80 	cmp.w	r3, #16777216	@ 0x1000000
 8004310:	d301      	bcc.n	8004316 <SysTick_Config+0x16>
  {
    return (1UL);                                                   /* Reload value impossible */
 8004312:	2301      	movs	r3, #1
 8004314:	e00f      	b.n	8004336 <SysTick_Config+0x36>
  }

  SysTick->LOAD  = (uint32_t)(ticks - 1UL);                         /* set reload register */
 8004316:	4a0a      	ldr	r2, [pc, #40]	@ (8004340 <SysTick_Config+0x40>)
 8004318:	687b      	ldr	r3, [r7, #4]
 800431a:	3b01      	subs	r3, #1
 800431c:	6053      	str	r3, [r2, #4]
  NVIC_SetPriority (SysTick_IRQn, (1UL << __NVIC_PRIO_BITS) - 1UL); /* set Priority for Systick Interrupt */
 800431e:	210f      	movs	r1, #15
 8004320:	f04f 30ff 	mov.w	r0, #4294967295
 8004324:	f7ff ff90 	bl	8004248 <__NVIC_SetPriority>
  SysTick->VAL   = 0UL;                                             /* Load the SysTick Counter Value */
 8004328:	4b05      	ldr	r3, [pc, #20]	@ (8004340 <SysTick_Config+0x40>)
 800432a:	2200      	movs	r2, #0
 800432c:	609a      	str	r2, [r3, #8]
  SysTick->CTRL  = SysTick_CTRL_CLKSOURCE_Msk |
 800432e:	4b04      	ldr	r3, [pc, #16]	@ (8004340 <SysTick_Config+0x40>)
 8004330:	2207      	movs	r2, #7
 8004332:	601a      	str	r2, [r3, #0]
                   SysTick_CTRL_TICKINT_Msk   |
                   SysTick_CTRL_ENABLE_Msk;                         /* Enable SysTick IRQ and SysTick Timer */
  return (0UL);                                                     /* Function successful */
 8004334:	2300      	movs	r3, #0
}
 8004336:	4618      	mov	r0, r3
 8004338:	3708      	adds	r7, #8
 800433a:	46bd      	mov	sp, r7
 800433c:	bd80      	pop	{r7, pc}
 800433e:	bf00      	nop
 8004340:	e000e010 	.word	0xe000e010

08004344 <HAL_NVIC_SetPriorityGrouping>:
  * @note   When the NVIC_PriorityGroup_0 is selected, IRQ preemption is no more possible. 
  *         The pending IRQ priority will be managed only by the subpriority. 
  * @retval None
  */
void HAL_NVIC_SetPriorityGrouping(uint32_t PriorityGroup)
{
 8004344:	b580      	push	{r7, lr}
 8004346:	b082      	sub	sp, #8
 8004348:	af00      	add	r7, sp, #0
 800434a:	6078      	str	r0, [r7, #4]
  /* Check the parameters */
  assert_param(IS_NVIC_PRIORITY_GROUP(PriorityGroup));
  
  /* Set the PRIGROUP[10:8] bits according to the PriorityGroup parameter value */
  NVIC_SetPriorityGrouping(PriorityGroup);
 800434c:	6878      	ldr	r0, [r7, #4]
 800434e:	f7ff ff2d 	bl	80041ac <__NVIC_SetPriorityGrouping>
}
 8004352:	bf00      	nop
 8004354:	3708      	adds	r7, #8
 8004356:	46bd      	mov	sp, r7
 8004358:	bd80      	pop	{r7, pc}

0800435a <HAL_NVIC_SetPriority>:
  *         This parameter can be a value between 0 and 15
  *         A lower priority value indicates a higher priority.          
  * @retval None
  */
void HAL_NVIC_SetPriority(IRQn_Type IRQn, uint32_t PreemptPriority, uint32_t SubPriority)
{ 
 800435a:	b580      	push	{r7, lr}
 800435c:	b086      	sub	sp, #24
 800435e:	af00      	add	r7, sp, #0
 8004360:	4603      	mov	r3, r0
 8004362:	60b9      	str	r1, [r7, #8]
 8004364:	607a      	str	r2, [r7, #4]
 8004366:	73fb      	strb	r3, [r7, #15]
  uint32_t prioritygroup = 0x00U;
 8004368:	2300      	movs	r3, #0
 800436a:	617b      	str	r3, [r7, #20]
  
  /* Check the parameters */
  assert_param(IS_NVIC_SUB_PRIORITY(SubPriority));
  assert_param(IS_NVIC_PREEMPTION_PRIORITY(PreemptPriority));
  
  prioritygroup = NVIC_GetPriorityGrouping();
 800436c:	f7ff ff42 	bl	80041f4 <__NVIC_GetPriorityGrouping>
 8004370:	6178      	str	r0, [r7, #20]
  
  NVIC_SetPriority(IRQn, NVIC_EncodePriority(prioritygroup, PreemptPriority, SubPriority));
 8004372:	687a      	ldr	r2, [r7, #4]
 8004374:	68b9      	ldr	r1, [r7, #8]
 8004376:	6978      	ldr	r0, [r7, #20]
 8004378:	f7ff ff90 	bl	800429c <NVIC_EncodePriority>
 800437c:	4602      	mov	r2, r0
 800437e:	f997 300f 	ldrsb.w	r3, [r7, #15]
 8004382:	4611      	mov	r1, r2
 8004384:	4618      	mov	r0, r3
 8004386:	f7ff ff5f 	bl	8004248 <__NVIC_SetPriority>
}
 800438a:	bf00      	nop
 800438c:	3718      	adds	r7, #24
 800438e:	46bd      	mov	sp, r7
 8004390:	bd80      	pop	{r7, pc}

08004392 <HAL_NVIC_EnableIRQ>:
  *         This parameter can be an enumerator of IRQn_Type enumeration
  *         (For the complete STM32 Devices IRQ Channels list, please refer to the appropriate CMSIS device file (stm32f10xxx.h))
  * @retval None
  */
void HAL_NVIC_EnableIRQ(IRQn_Type IRQn)
{
 8004392:	b580      	push	{r7, lr}
 8004394:	b082      	sub	sp, #8
 8004396:	af00      	add	r7, sp, #0
 8004398:	4603      	mov	r3, r0
 800439a:	71fb      	strb	r3, [r7, #7]
  /* Check the parameters */
  assert_param(IS_NVIC_DEVICE_IRQ(IRQn));

  /* Enable interrupt */
  NVIC_EnableIRQ(IRQn);
 800439c:	f997 3007 	ldrsb.w	r3, [r7, #7]
 80043a0:	4618      	mov	r0, r3
 80043a2:	f7ff ff35 	bl	8004210 <__NVIC_EnableIRQ>
}
 80043a6:	bf00      	nop
 80043a8:	3708      	adds	r7, #8
 80043aa:	46bd      	mov	sp, r7
 80043ac:	bd80      	pop	{r7, pc}

080043ae <HAL_SYSTICK_Config>:
  * @param  TicksNumb: Specifies the ticks Number of ticks between two interrupts.
  * @retval status:  - 0  Function succeeded.
  *                  - 1  Function failed.
  */
uint32_t HAL_SYSTICK_Config(uint32_t TicksNumb)
{
 80043ae:	b580      	push	{r7, lr}
 80043b0:	b082      	sub	sp, #8
 80043b2:	af00      	add	r7, sp, #0
 80043b4:	6078      	str	r0, [r7, #4]
   return SysTick_Config(TicksNumb);
 80043b6:	6878      	ldr	r0, [r7, #4]
 80043b8:	f7ff ffa2 	bl	8004300 <SysTick_Config>
 80043bc:	4603      	mov	r3, r0
}
 80043be:	4618      	mov	r0, r3
 80043c0:	3708      	adds	r7, #8
 80043c2:	46bd      	mov	sp, r7
 80043c4:	bd80      	pop	{r7, pc}

080043c6 <HAL_DMA_Abort>:
  * @param  hdma: pointer to a DMA_HandleTypeDef structure that contains
  *               the configuration information for the specified DMA Channel.
  * @retval HAL status
  */
HAL_StatusTypeDef HAL_DMA_Abort(DMA_HandleTypeDef *hdma)
{
 80043c6:	b480      	push	{r7}
 80043c8:	b085      	sub	sp, #20
 80043ca:	af00      	add	r7, sp, #0
 80043cc:	6078      	str	r0, [r7, #4]
  HAL_StatusTypeDef status = HAL_OK;
 80043ce:	2300      	movs	r3, #0
 80043d0:	73fb      	strb	r3, [r7, #15]
  
  if(hdma->State != HAL_DMA_STATE_BUSY)
 80043d2:	687b      	ldr	r3, [r7, #4]
 80043d4:	f893 3021 	ldrb.w	r3, [r3, #33]	@ 0x21
 80043d8:	b2db      	uxtb	r3, r3
 80043da:	2b02      	cmp	r3, #2
 80043dc:	d008      	beq.n	80043f0 <HAL_DMA_Abort+0x2a>
  {
    /* no transfer ongoing */
    hdma->ErrorCode = HAL_DMA_ERROR_NO_XFER;
 80043de:	687b      	ldr	r3, [r7, #4]
 80043e0:	2204      	movs	r2, #4
 80043e2:	639a      	str	r2, [r3, #56]	@ 0x38
    
    /* Process Unlocked */
    __HAL_UNLOCK(hdma);
 80043e4:	687b      	ldr	r3, [r7, #4]
 80043e6:	2200      	movs	r2, #0
 80043e8:	f883 2020 	strb.w	r2, [r3, #32]
    
    return HAL_ERROR;
 80043ec:	2301      	movs	r3, #1
 80043ee:	e020      	b.n	8004432 <HAL_DMA_Abort+0x6c>
  }
  else

  {
    /* Disable DMA IT */
    __HAL_DMA_DISABLE_IT(hdma, (DMA_IT_TC | DMA_IT_HT | DMA_IT_TE));
 80043f0:	687b      	ldr	r3, [r7, #4]
 80043f2:	681b      	ldr	r3, [r3, #0]
 80043f4:	681a      	ldr	r2, [r3, #0]
 80043f6:	687b      	ldr	r3, [r7, #4]
 80043f8:	681b      	ldr	r3, [r3, #0]
 80043fa:	f022 020e 	bic.w	r2, r2, #14
 80043fe:	601a      	str	r2, [r3, #0]
      
    /* Disable the channel */
    __HAL_DMA_DISABLE(hdma);
 8004400:	687b      	ldr	r3, [r7, #4]
 8004402:	681b      	ldr	r3, [r3, #0]
 8004404:	681a      	ldr	r2, [r3, #0]
 8004406:	687b      	ldr	r3, [r7, #4]
 8004408:	681b      	ldr	r3, [r3, #0]
 800440a:	f022 0201 	bic.w	r2, r2, #1
 800440e:	601a      	str	r2, [r3, #0]
      
    /* Clear all flags */
    hdma->DmaBaseAddress->IFCR = (DMA_ISR_GIF1 << hdma->ChannelIndex);
 8004410:	687b      	ldr	r3, [r7, #4]
 8004412:	6c1a      	ldr	r2, [r3, #64]	@ 0x40
 8004414:	687b      	ldr	r3, [r7, #4]
 8004416:	6bdb      	ldr	r3, [r3, #60]	@ 0x3c
 8004418:	2101      	movs	r1, #1
 800441a:	fa01 f202 	lsl.w	r2, r1, r2
 800441e:	605a      	str	r2, [r3, #4]
  }
  /* Change the DMA state */
  hdma->State = HAL_DMA_STATE_READY;
 8004420:	687b      	ldr	r3, [r7, #4]
 8004422:	2201      	movs	r2, #1
 8004424:	f883 2021 	strb.w	r2, [r3, #33]	@ 0x21

  /* Process Unlocked */
  __HAL_UNLOCK(hdma);      
 8004428:	687b      	ldr	r3, [r7, #4]
 800442a:	2200      	movs	r2, #0
 800442c:	f883 2020 	strb.w	r2, [r3, #32]
  
  return status; 
 8004430:	7bfb      	ldrb	r3, [r7, #15]
}
 8004432:	4618      	mov	r0, r3
 8004434:	3714      	adds	r7, #20
 8004436:	46bd      	mov	sp, r7
 8004438:	bc80      	pop	{r7}
 800443a:	4770      	bx	lr

0800443c <HAL_DMA_Abort_IT>:
  * @param  hdma  : pointer to a DMA_HandleTypeDef structure that contains
  *                 the configuration information for the specified DMA Channel.
  * @retval HAL status
  */
HAL_StatusTypeDef HAL_DMA_Abort_IT(DMA_HandleTypeDef *hdma)
{  
 800443c:	b580      	push	{r7, lr}
 800443e:	b084      	sub	sp, #16
 8004440:	af00      	add	r7, sp, #0
 8004442:	6078      	str	r0, [r7, #4]
  HAL_StatusTypeDef status = HAL_OK;
 8004444:	2300      	movs	r3, #0
 8004446:	73fb      	strb	r3, [r7, #15]
  
  if(HAL_DMA_STATE_BUSY != hdma->State)
 8004448:	687b      	ldr	r3, [r7, #4]
 800444a:	f893 3021 	ldrb.w	r3, [r3, #33]	@ 0x21
 800444e:	b2db      	uxtb	r3, r3
 8004450:	2b02      	cmp	r3, #2
 8004452:	d005      	beq.n	8004460 <HAL_DMA_Abort_IT+0x24>
  {
    /* no transfer ongoing */
    hdma->ErrorCode = HAL_DMA_ERROR_NO_XFER;
 8004454:	687b      	ldr	r3, [r7, #4]
 8004456:	2204      	movs	r2, #4
 8004458:	639a      	str	r2, [r3, #56]	@ 0x38
        
    status = HAL_ERROR;
 800445a:	2301      	movs	r3, #1
 800445c:	73fb      	strb	r3, [r7, #15]
 800445e:	e051      	b.n	8004504 <HAL_DMA_Abort_IT+0xc8>
  }
  else
  { 
    /* Disable DMA IT */
    __HAL_DMA_DISABLE_IT(hdma, (DMA_IT_TC | DMA_IT_HT | DMA_IT_TE));
 8004460:	687b      	ldr	r3, [r7, #4]
 8004462:	681b      	ldr	r3, [r3, #0]
 8004464:	681a      	ldr	r2, [r3, #0]
 8004466:	687b      	ldr	r3, [r7, #4]
 8004468:	681b      	ldr	r3, [r3, #0]
 800446a:	f022 020e 	bic.w	r2, r2, #14
 800446e:	601a      	str	r2, [r3, #0]

    /* Disable the channel */
    __HAL_DMA_DISABLE(hdma);
 8004470:	687b      	ldr	r3, [r7, #4]
 8004472:	681b      	ldr	r3, [r3, #0]
 8004474:	681a      	ldr	r2, [r3, #0]
 8004476:	687b      	ldr	r3, [r7, #4]
 8004478:	681b      	ldr	r3, [r3, #0]
 800447a:	f022 0201 	bic.w	r2, r2, #1
 800447e:	601a      	str	r2, [r3, #0]

    /* Clear all flags */
    __HAL_DMA_CLEAR_FLAG(hdma, __HAL_DMA_GET_GI_FLAG_INDEX(hdma));
 8004480:	687b      	ldr	r3, [r7, #4]
 8004482:	681b      	ldr	r3, [r3, #0]
 8004484:	4a22      	ldr	r2, [pc, #136]	@ (8004510 <HAL_DMA_Abort_IT+0xd4>)
 8004486:	4293      	cmp	r3, r2
 8004488:	d029      	beq.n	80044de <HAL_DMA_Abort_IT+0xa2>
 800448a:	687b      	ldr	r3, [r7, #4]
 800448c:	681b      	ldr	r3, [r3, #0]
 800448e:	4a21      	ldr	r2, [pc, #132]	@ (8004514 <HAL_DMA_Abort_IT+0xd8>)
 8004490:	4293      	cmp	r3, r2
 8004492:	d022      	beq.n	80044da <HAL_DMA_Abort_IT+0x9e>
 8004494:	687b      	ldr	r3, [r7, #4]
 8004496:	681b      	ldr	r3, [r3, #0]
 8004498:	4a1f      	ldr	r2, [pc, #124]	@ (8004518 <HAL_DMA_Abort_IT+0xdc>)
 800449a:	4293      	cmp	r3, r2
 800449c:	d01a      	beq.n	80044d4 <HAL_DMA_Abort_IT+0x98>
 800449e:	687b      	ldr	r3, [r7, #4]
 80044a0:	681b      	ldr	r3, [r3, #0]
 80044a2:	4a1e      	ldr	r2, [pc, #120]	@ (800451c <HAL_DMA_Abort_IT+0xe0>)
 80044a4:	4293      	cmp	r3, r2
 80044a6:	d012      	beq.n	80044ce <HAL_DMA_Abort_IT+0x92>
 80044a8:	687b      	ldr	r3, [r7, #4]
 80044aa:	681b      	ldr	r3, [r3, #0]
 80044ac:	4a1c      	ldr	r2, [pc, #112]	@ (8004520 <HAL_DMA_Abort_IT+0xe4>)
 80044ae:	4293      	cmp	r3, r2
 80044b0:	d00a      	beq.n	80044c8 <HAL_DMA_Abort_IT+0x8c>
 80044b2:	687b      	ldr	r3, [r7, #4]
 80044b4:	681b      	ldr	r3, [r3, #0]
 80044b6:	4a1b      	ldr	r2, [pc, #108]	@ (8004524 <HAL_DMA_Abort_IT+0xe8>)
 80044b8:	4293      	cmp	r3, r2
 80044ba:	d102      	bne.n	80044c2 <HAL_DMA_Abort_IT+0x86>
 80044bc:	f44f 1380 	mov.w	r3, #1048576	@ 0x100000
 80044c0:	e00e      	b.n	80044e0 <HAL_DMA_Abort_IT+0xa4>
 80044c2:	f04f 7380 	mov.w	r3, #16777216	@ 0x1000000
 80044c6:	e00b      	b.n	80044e0 <HAL_DMA_Abort_IT+0xa4>
 80044c8:	f44f 3380 	mov.w	r3, #65536	@ 0x10000
 80044cc:	e008      	b.n	80044e0 <HAL_DMA_Abort_IT+0xa4>
 80044ce:	f44f 5380 	mov.w	r3, #4096	@ 0x1000
 80044d2:	e005      	b.n	80044e0 <HAL_DMA_Abort_IT+0xa4>
 80044d4:	f44f 7380 	mov.w	r3, #256	@ 0x100
 80044d8:	e002      	b.n	80044e0 <HAL_DMA_Abort_IT+0xa4>
 80044da:	2310      	movs	r3, #16
 80044dc:	e000      	b.n	80044e0 <HAL_DMA_Abort_IT+0xa4>
 80044de:	2301      	movs	r3, #1
 80044e0:	4a11      	ldr	r2, [pc, #68]	@ (8004528 <HAL_DMA_Abort_IT+0xec>)
 80044e2:	6053      	str	r3, [r2, #4]

    /* Change the DMA state */
    hdma->State = HAL_DMA_STATE_READY;
 80044e4:	687b      	ldr	r3, [r7, #4]
 80044e6:	2201      	movs	r2, #1
 80044e8:	f883 2021 	strb.w	r2, [r3, #33]	@ 0x21

    /* Process Unlocked */
    __HAL_UNLOCK(hdma);
 80044ec:	687b      	ldr	r3, [r7, #4]
 80044ee:	2200      	movs	r2, #0
 80044f0:	f883 2020 	strb.w	r2, [r3, #32]

    /* Call User Abort callback */
    if(hdma->XferAbortCallback != NULL)
 80044f4:	687b      	ldr	r3, [r7, #4]
 80044f6:	6b5b      	ldr	r3, [r3, #52]	@ 0x34
 80044f8:	2b00      	cmp	r3, #0
 80044fa:	d003      	beq.n	8004504 <HAL_DMA_Abort_IT+0xc8>
    {
      hdma->XferAbortCallback(hdma);
 80044fc:	687b      	ldr	r3, [r7, #4]
 80044fe:	6b5b      	ldr	r3, [r3, #52]	@ 0x34
 8004500:	6878      	ldr	r0, [r7, #4]
 8004502:	4798      	blx	r3
    } 
  }
  return status;
 8004504:	7bfb      	ldrb	r3, [r7, #15]
}
 8004506:	4618      	mov	r0, r3
 8004508:	3710      	adds	r7, #16
 800450a:	46bd      	mov	sp, r7
 800450c:	bd80      	pop	{r7, pc}
 800450e:	bf00      	nop
 8004510:	40020008 	.word	0x40020008
 8004514:	4002001c 	.word	0x4002001c
 8004518:	40020030 	.word	0x40020030
 800451c:	40020044 	.word	0x40020044
 8004520:	40020058 	.word	0x40020058
 8004524:	4002006c 	.word	0x4002006c
 8004528:	40020000 	.word	0x40020000

0800452c <HAL_GPIO_Init>:
  * @param  GPIO_Init: pointer to a GPIO_InitTypeDef structure that contains
  *         the configuration information for the specified GPIO peripheral.
  * @retval None
  */
void HAL_GPIO_Init(GPIO_TypeDef  *GPIOx, GPIO_InitTypeDef *GPIO_Init)
{
 800452c:	b480      	push	{r7}
 800452e:	b08b      	sub	sp, #44	@ 0x2c
 8004530:	af00      	add	r7, sp, #0
 8004532:	6078      	str	r0, [r7, #4]
 8004534:	6039      	str	r1, [r7, #0]
  uint32_t position = 0x00u;
 8004536:	2300      	movs	r3, #0
 8004538:	627b      	str	r3, [r7, #36]	@ 0x24
  uint32_t ioposition;
  uint32_t iocurrent;
  uint32_t temp;
  uint32_t config = 0x00u;
 800453a:	2300      	movs	r3, #0
 800453c:	623b      	str	r3, [r7, #32]
  assert_param(IS_GPIO_ALL_INSTANCE(GPIOx));
  assert_param(IS_GPIO_PIN(GPIO_Init->Pin));
  assert_param(IS_GPIO_MODE(GPIO_Init->Mode));

  /* Configure the port pins */
  while (((GPIO_Init->Pin) >> position) != 0x00u)
 800453e:	e169      	b.n	8004814 <HAL_GPIO_Init+0x2e8>
  {
    /* Get the IO position */
    ioposition = (0x01uL << position);
 8004540:	2201      	movs	r2, #1
 8004542:	6a7b      	ldr	r3, [r7, #36]	@ 0x24
 8004544:	fa02 f303 	lsl.w	r3, r2, r3
 8004548:	61fb      	str	r3, [r7, #28]

    /* Get the current IO position */
    iocurrent = (uint32_t)(GPIO_Init->Pin) & ioposition;
 800454a:	683b      	ldr	r3, [r7, #0]
 800454c:	681b      	ldr	r3, [r3, #0]
 800454e:	69fa      	ldr	r2, [r7, #28]
 8004550:	4013      	ands	r3, r2
 8004552:	61bb      	str	r3, [r7, #24]

    if (iocurrent == ioposition)
 8004554:	69ba      	ldr	r2, [r7, #24]
 8004556:	69fb      	ldr	r3, [r7, #28]
 8004558:	429a      	cmp	r2, r3
 800455a:	f040 8158 	bne.w	800480e <HAL_GPIO_Init+0x2e2>
    {
      /* Check the Alternate function parameters */
      assert_param(IS_GPIO_AF_INSTANCE(GPIOx));

      /* Based on the required mode, filling config variable with MODEy[1:0] and CNFy[3:2] corresponding bits */
      switch (GPIO_Init->Mode)
 800455e:	683b      	ldr	r3, [r7, #0]
 8004560:	685b      	ldr	r3, [r3, #4]
 8004562:	4a9a      	ldr	r2, [pc, #616]	@ (80047cc <HAL_GPIO_Init+0x2a0>)
 8004564:	4293      	cmp	r3, r2
 8004566:	d05e      	beq.n	8004626 <HAL_GPIO_Init+0xfa>
 8004568:	4a98      	ldr	r2, [pc, #608]	@ (80047cc <HAL_GPIO_Init+0x2a0>)
 800456a:	4293      	cmp	r3, r2
 800456c:	d875      	bhi.n	800465a <HAL_GPIO_Init+0x12e>
 800456e:	4a98      	ldr	r2, [pc, #608]	@ (80047d0 <HAL_GPIO_Init+0x2a4>)
 8004570:	4293      	cmp	r3, r2
 8004572:	d058      	beq.n	8004626 <HAL_GPIO_Init+0xfa>
 8004574:	4a96      	ldr	r2, [pc, #600]	@ (80047d0 <HAL_GPIO_Init+0x2a4>)
 8004576:	4293      	cmp	r3, r2
 8004578:	d86f      	bhi.n	800465a <HAL_GPIO_Init+0x12e>
 800457a:	4a96      	ldr	r2, [pc, #600]	@ (80047d4 <HAL_GPIO_Init+0x2a8>)
 800457c:	4293      	cmp	r3, r2
 800457e:	d052      	beq.n	8004626 <HAL_GPIO_Init+0xfa>
 8004580:	4a94      	ldr	r2, [pc, #592]	@ (80047d4 <HAL_GPIO_Init+0x2a8>)
 8004582:	4293      	cmp	r3, r2
 8004584:	d869      	bhi.n	800465a <HAL_GPIO_Init+0x12e>
 8004586:	4a94      	ldr	r2, [pc, #592]	@ (80047d8 <HAL_GPIO_Init+0x2ac>)
 8004588:	4293      	cmp	r3, r2
 800458a:	d04c      	beq.n	8004626 <HAL_GPIO_Init+0xfa>
 800458c:	4a92      	ldr	r2, [pc, #584]	@ (80047d8 <HAL_GPIO_Init+0x2ac>)
 800458e:	4293      	cmp	r3, r2
 8004590:	d863      	bhi.n	800465a <HAL_GPIO_Init+0x12e>
 8004592:	4a92      	ldr	r2, [pc, #584]	@ (80047dc <HAL_GPIO_Init+0x2b0>)
 8004594:	4293      	cmp	r3, r2
 8004596:	d046      	beq.n	8004626 <HAL_GPIO_Init+0xfa>
 8004598:	4a90      	ldr	r2, [pc, #576]	@ (80047dc <HAL_GPIO_Init+0x2b0>)
 800459a:	4293      	cmp	r3, r2
 800459c:	d85d      	bhi.n	800465a <HAL_GPIO_Init+0x12e>
 800459e:	2b12      	cmp	r3, #18
 80045a0:	d82a      	bhi.n	80045f8 <HAL_GPIO_Init+0xcc>
 80045a2:	2b12      	cmp	r3, #18
 80045a4:	d859      	bhi.n	800465a <HAL_GPIO_Init+0x12e>
 80045a6:	a201      	add	r2, pc, #4	@ (adr r2, 80045ac <HAL_GPIO_Init+0x80>)
 80045a8:	f852 f023 	ldr.w	pc, [r2, r3, lsl #2]
 80045ac:	08004627 	.word	0x08004627
 80045b0:	08004601 	.word	0x08004601
 80045b4:	08004613 	.word	0x08004613
 80045b8:	08004655 	.word	0x08004655
 80045bc:	0800465b 	.word	0x0800465b
 80045c0:	0800465b 	.word	0x0800465b
 80045c4:	0800465b 	.word	0x0800465b
 80045c8:	0800465b 	.word	0x0800465b
 80045cc:	0800465b 	.word	0x0800465b
 80045d0:	0800465b 	.word	0x0800465b
 80045d4:	0800465b 	.word	0x0800465b
 80045d8:	0800465b 	.word	0x0800465b
 80045dc:	0800465b 	.word	0x0800465b
 80045e0:	0800465b 	.word	0x0800465b
 80045e4:	0800465b 	.word	0x0800465b
 80045e8:	0800465b 	.word	0x0800465b
 80045ec:	0800465b 	.word	0x0800465b
 80045f0:	08004609 	.word	0x08004609
 80045f4:	0800461d 	.word	0x0800461d
 80045f8:	4a79      	ldr	r2, [pc, #484]	@ (80047e0 <HAL_GPIO_Init+0x2b4>)
 80045fa:	4293      	cmp	r3, r2
 80045fc:	d013      	beq.n	8004626 <HAL_GPIO_Init+0xfa>
          config = GPIO_CR_MODE_INPUT + GPIO_CR_CNF_ANALOG;
          break;

        /* Parameters are checked with assert_param */
        default:
          break;
 80045fe:	e02c      	b.n	800465a <HAL_GPIO_Init+0x12e>
          config = GPIO_Init->Speed + GPIO_CR_CNF_GP_OUTPUT_PP;
 8004600:	683b      	ldr	r3, [r7, #0]
 8004602:	68db      	ldr	r3, [r3, #12]
 8004604:	623b      	str	r3, [r7, #32]
          break;
 8004606:	e029      	b.n	800465c <HAL_GPIO_Init+0x130>
          config = GPIO_Init->Speed + GPIO_CR_CNF_GP_OUTPUT_OD;
 8004608:	683b      	ldr	r3, [r7, #0]
 800460a:	68db      	ldr	r3, [r3, #12]
 800460c:	3304      	adds	r3, #4
 800460e:	623b      	str	r3, [r7, #32]
          break;
 8004610:	e024      	b.n	800465c <HAL_GPIO_Init+0x130>
          config = GPIO_Init->Speed + GPIO_CR_CNF_AF_OUTPUT_PP;
 8004612:	683b      	ldr	r3, [r7, #0]
 8004614:	68db      	ldr	r3, [r3, #12]
 8004616:	3308      	adds	r3, #8
 8004618:	623b      	str	r3, [r7, #32]
          break;
 800461a:	e01f      	b.n	800465c <HAL_GPIO_Init+0x130>
          config = GPIO_Init->Speed + GPIO_CR_CNF_AF_OUTPUT_OD;
 800461c:	683b      	ldr	r3, [r7, #0]
 800461e:	68db      	ldr	r3, [r3, #12]
 8004620:	330c      	adds	r3, #12
 8004622:	623b      	str	r3, [r7, #32]
          break;
 8004624:	e01a      	b.n	800465c <HAL_GPIO_Init+0x130>
          if (GPIO_Init->Pull == GPIO_NOPULL)
 8004626:	683b      	ldr	r3, [r7, #0]
 8004628:	689b      	ldr	r3, [r3, #8]
 800462a:	2b00      	cmp	r3, #0
 800462c:	d102      	bne.n	8004634 <HAL_GPIO_Init+0x108>
            config = GPIO_CR_MODE_INPUT + GPIO_CR_CNF_INPUT_FLOATING;
 800462e:	2304      	movs	r3, #4
 8004630:	623b      	str	r3, [r7, #32]
          break;
 8004632:	e013      	b.n	800465c <HAL_GPIO_Init+0x130>
          else if (GPIO_Init->Pull == GPIO_PULLUP)
 8004634:	683b      	ldr	r3, [r7, #0]
 8004636:	689b      	ldr	r3, [r3, #8]
 8004638:	2b01      	cmp	r3, #1
 800463a:	d105      	bne.n	8004648 <HAL_GPIO_Init+0x11c>
            config = GPIO_CR_MODE_INPUT + GPIO_CR_CNF_INPUT_PU_PD;
 800463c:	2308      	movs	r3, #8
 800463e:	623b      	str	r3, [r7, #32]
            GPIOx->BSRR = ioposition;
 8004640:	687b      	ldr	r3, [r7, #4]
 8004642:	69fa      	ldr	r2, [r7, #28]
 8004644:	611a      	str	r2, [r3, #16]
          break;
 8004646:	e009      	b.n	800465c <HAL_GPIO_Init+0x130>
            config = GPIO_CR_MODE_INPUT + GPIO_CR_CNF_INPUT_PU_PD;
 8004648:	2308      	movs	r3, #8
 800464a:	623b      	str	r3, [r7, #32]
            GPIOx->BRR = ioposition;
 800464c:	687b      	ldr	r3, [r7, #4]
 800464e:	69fa      	ldr	r2, [r7, #28]
 8004650:	615a      	str	r2, [r3, #20]
          break;
 8004652:	e003      	b.n	800465c <HAL_GPIO_Init+0x130>
          config = GPIO_CR_MODE_INPUT + GPIO_CR_CNF_ANALOG;
 8004654:	2300      	movs	r3, #0
 8004656:	623b      	str	r3, [r7, #32]
          break;
 8004658:	e000      	b.n	800465c <HAL_GPIO_Init+0x130>
          break;
 800465a:	bf00      	nop
      }

      /* Check if the current bit belongs to first half or last half of the pin count number
       in order to address CRH or CRL register*/
      configregister = (iocurrent < GPIO_PIN_8) ? &GPIOx->CRL     : &GPIOx->CRH;
 800465c:	69bb      	ldr	r3, [r7, #24]
 800465e:	2bff      	cmp	r3, #255	@ 0xff
 8004660:	d801      	bhi.n	8004666 <HAL_GPIO_Init+0x13a>
 8004662:	687b      	ldr	r3, [r7, #4]
 8004664:	e001      	b.n	800466a <HAL_GPIO_Init+0x13e>
 8004666:	687b      	ldr	r3, [r7, #4]
 8004668:	3304      	adds	r3, #4
 800466a:	617b      	str	r3, [r7, #20]
      registeroffset = (iocurrent < GPIO_PIN_8) ? (position << 2u) : ((position - 8u) << 2u);
 800466c:	69bb      	ldr	r3, [r7, #24]
 800466e:	2bff      	cmp	r3, #255	@ 0xff
 8004670:	d802      	bhi.n	8004678 <HAL_GPIO_Init+0x14c>
 8004672:	6a7b      	ldr	r3, [r7, #36]	@ 0x24
 8004674:	009b      	lsls	r3, r3, #2
 8004676:	e002      	b.n	800467e <HAL_GPIO_Init+0x152>
 8004678:	6a7b      	ldr	r3, [r7, #36]	@ 0x24
 800467a:	3b08      	subs	r3, #8
 800467c:	009b      	lsls	r3, r3, #2
 800467e:	613b      	str	r3, [r7, #16]

      /* Apply the new configuration of the pin to the register */
      MODIFY_REG((*configregister), ((GPIO_CRL_MODE0 | GPIO_CRL_CNF0) << registeroffset), (config << registeroffset));
 8004680:	697b      	ldr	r3, [r7, #20]
 8004682:	681a      	ldr	r2, [r3, #0]
 8004684:	210f      	movs	r1, #15
 8004686:	693b      	ldr	r3, [r7, #16]
 8004688:	fa01 f303 	lsl.w	r3, r1, r3
 800468c:	43db      	mvns	r3, r3
 800468e:	401a      	ands	r2, r3
 8004690:	6a39      	ldr	r1, [r7, #32]
 8004692:	693b      	ldr	r3, [r7, #16]
 8004694:	fa01 f303 	lsl.w	r3, r1, r3
 8004698:	431a      	orrs	r2, r3
 800469a:	697b      	ldr	r3, [r7, #20]
 800469c:	601a      	str	r2, [r3, #0]

      /*--------------------- EXTI Mode Configuration ------------------------*/
      /* Configure the External Interrupt or event for the current IO */
      if ((GPIO_Init->Mode & EXTI_MODE) == EXTI_MODE)
 800469e:	683b      	ldr	r3, [r7, #0]
 80046a0:	685b      	ldr	r3, [r3, #4]
 80046a2:	f003 5380 	and.w	r3, r3, #268435456	@ 0x10000000
 80046a6:	2b00      	cmp	r3, #0
 80046a8:	f000 80b1 	beq.w	800480e <HAL_GPIO_Init+0x2e2>
      {
        /* Enable AFIO Clock */
        __HAL_RCC_AFIO_CLK_ENABLE();
 80046ac:	4b4d      	ldr	r3, [pc, #308]	@ (80047e4 <HAL_GPIO_Init+0x2b8>)
 80046ae:	699b      	ldr	r3, [r3, #24]
 80046b0:	4a4c      	ldr	r2, [pc, #304]	@ (80047e4 <HAL_GPIO_Init+0x2b8>)
 80046b2:	f043 0301 	orr.w	r3, r3, #1
 80046b6:	6193      	str	r3, [r2, #24]
 80046b8:	4b4a      	ldr	r3, [pc, #296]	@ (80047e4 <HAL_GPIO_Init+0x2b8>)
 80046ba:	699b      	ldr	r3, [r3, #24]
 80046bc:	f003 0301 	and.w	r3, r3, #1
 80046c0:	60bb      	str	r3, [r7, #8]
 80046c2:	68bb      	ldr	r3, [r7, #8]
        temp = AFIO->EXTICR[position >> 2u];
 80046c4:	4a48      	ldr	r2, [pc, #288]	@ (80047e8 <HAL_GPIO_Init+0x2bc>)
 80046c6:	6a7b      	ldr	r3, [r7, #36]	@ 0x24
 80046c8:	089b      	lsrs	r3, r3, #2
 80046ca:	3302      	adds	r3, #2
 80046cc:	f852 3023 	ldr.w	r3, [r2, r3, lsl #2]
 80046d0:	60fb      	str	r3, [r7, #12]
        CLEAR_BIT(temp, (0x0Fu) << (4u * (position & 0x03u)));
 80046d2:	6a7b      	ldr	r3, [r7, #36]	@ 0x24
 80046d4:	f003 0303 	and.w	r3, r3, #3
 80046d8:	009b      	lsls	r3, r3, #2
 80046da:	220f      	movs	r2, #15
 80046dc:	fa02 f303 	lsl.w	r3, r2, r3
 80046e0:	43db      	mvns	r3, r3
 80046e2:	68fa      	ldr	r2, [r7, #12]
 80046e4:	4013      	ands	r3, r2
 80046e6:	60fb      	str	r3, [r7, #12]
        SET_BIT(temp, (GPIO_GET_INDEX(GPIOx)) << (4u * (position & 0x03u)));
 80046e8:	687b      	ldr	r3, [r7, #4]
 80046ea:	4a40      	ldr	r2, [pc, #256]	@ (80047ec <HAL_GPIO_Init+0x2c0>)
 80046ec:	4293      	cmp	r3, r2
 80046ee:	d013      	beq.n	8004718 <HAL_GPIO_Init+0x1ec>
 80046f0:	687b      	ldr	r3, [r7, #4]
 80046f2:	4a3f      	ldr	r2, [pc, #252]	@ (80047f0 <HAL_GPIO_Init+0x2c4>)
 80046f4:	4293      	cmp	r3, r2
 80046f6:	d00d      	beq.n	8004714 <HAL_GPIO_Init+0x1e8>
 80046f8:	687b      	ldr	r3, [r7, #4]
 80046fa:	4a3e      	ldr	r2, [pc, #248]	@ (80047f4 <HAL_GPIO_Init+0x2c8>)
 80046fc:	4293      	cmp	r3, r2
 80046fe:	d007      	beq.n	8004710 <HAL_GPIO_Init+0x1e4>
 8004700:	687b      	ldr	r3, [r7, #4]
 8004702:	4a3d      	ldr	r2, [pc, #244]	@ (80047f8 <HAL_GPIO_Init+0x2cc>)
 8004704:	4293      	cmp	r3, r2
 8004706:	d101      	bne.n	800470c <HAL_GPIO_Init+0x1e0>
 8004708:	2303      	movs	r3, #3
 800470a:	e006      	b.n	800471a <HAL_GPIO_Init+0x1ee>
 800470c:	2304      	movs	r3, #4
 800470e:	e004      	b.n	800471a <HAL_GPIO_Init+0x1ee>
 8004710:	2302      	movs	r3, #2
 8004712:	e002      	b.n	800471a <HAL_GPIO_Init+0x1ee>
 8004714:	2301      	movs	r3, #1
 8004716:	e000      	b.n	800471a <HAL_GPIO_Init+0x1ee>
 8004718:	2300      	movs	r3, #0
 800471a:	6a7a      	ldr	r2, [r7, #36]	@ 0x24
 800471c:	f002 0203 	and.w	r2, r2, #3
 8004720:	0092      	lsls	r2, r2, #2
 8004722:	4093      	lsls	r3, r2
 8004724:	68fa      	ldr	r2, [r7, #12]
 8004726:	4313      	orrs	r3, r2
 8004728:	60fb      	str	r3, [r7, #12]
        AFIO->EXTICR[position >> 2u] = temp;
 800472a:	492f      	ldr	r1, [pc, #188]	@ (80047e8 <HAL_GPIO_Init+0x2bc>)
 800472c:	6a7b      	ldr	r3, [r7, #36]	@ 0x24
 800472e:	089b      	lsrs	r3, r3, #2
 8004730:	3302      	adds	r3, #2
 8004732:	68fa      	ldr	r2, [r7, #12]
 8004734:	f841 2023 	str.w	r2, [r1, r3, lsl #2]


        /* Enable or disable the rising trigger */
        if ((GPIO_Init->Mode & RISING_EDGE) == RISING_EDGE)
 8004738:	683b      	ldr	r3, [r7, #0]
 800473a:	685b      	ldr	r3, [r3, #4]
 800473c:	f403 1380 	and.w	r3, r3, #1048576	@ 0x100000
 8004740:	2b00      	cmp	r3, #0
 8004742:	d006      	beq.n	8004752 <HAL_GPIO_Init+0x226>
        {
          SET_BIT(EXTI->RTSR, iocurrent);
 8004744:	4b2d      	ldr	r3, [pc, #180]	@ (80047fc <HAL_GPIO_Init+0x2d0>)
 8004746:	689a      	ldr	r2, [r3, #8]
 8004748:	492c      	ldr	r1, [pc, #176]	@ (80047fc <HAL_GPIO_Init+0x2d0>)
 800474a:	69bb      	ldr	r3, [r7, #24]
 800474c:	4313      	orrs	r3, r2
 800474e:	608b      	str	r3, [r1, #8]
 8004750:	e006      	b.n	8004760 <HAL_GPIO_Init+0x234>
        }
        else
        {
          CLEAR_BIT(EXTI->RTSR, iocurrent);
 8004752:	4b2a      	ldr	r3, [pc, #168]	@ (80047fc <HAL_GPIO_Init+0x2d0>)
 8004754:	689a      	ldr	r2, [r3, #8]
 8004756:	69bb      	ldr	r3, [r7, #24]
 8004758:	43db      	mvns	r3, r3
 800475a:	4928      	ldr	r1, [pc, #160]	@ (80047fc <HAL_GPIO_Init+0x2d0>)
 800475c:	4013      	ands	r3, r2
 800475e:	608b      	str	r3, [r1, #8]
        }

        /* Enable or disable the falling trigger */
        if ((GPIO_Init->Mode & FALLING_EDGE) == FALLING_EDGE)
 8004760:	683b      	ldr	r3, [r7, #0]
 8004762:	685b      	ldr	r3, [r3, #4]
 8004764:	f403 1300 	and.w	r3, r3, #2097152	@ 0x200000
 8004768:	2b00      	cmp	r3, #0
 800476a:	d006      	beq.n	800477a <HAL_GPIO_Init+0x24e>
        {
          SET_BIT(EXTI->FTSR, iocurrent);
 800476c:	4b23      	ldr	r3, [pc, #140]	@ (80047fc <HAL_GPIO_Init+0x2d0>)
 800476e:	68da      	ldr	r2, [r3, #12]
 8004770:	4922      	ldr	r1, [pc, #136]	@ (80047fc <HAL_GPIO_Init+0x2d0>)
 8004772:	69bb      	ldr	r3, [r7, #24]
 8004774:	4313      	orrs	r3, r2
 8004776:	60cb      	str	r3, [r1, #12]
 8004778:	e006      	b.n	8004788 <HAL_GPIO_Init+0x25c>
        }
        else
        {
          CLEAR_BIT(EXTI->FTSR, iocurrent);
 800477a:	4b20      	ldr	r3, [pc, #128]	@ (80047fc <HAL_GPIO_Init+0x2d0>)
 800477c:	68da      	ldr	r2, [r3, #12]
 800477e:	69bb      	ldr	r3, [r7, #24]
 8004780:	43db      	mvns	r3, r3
 8004782:	491e      	ldr	r1, [pc, #120]	@ (80047fc <HAL_GPIO_Init+0x2d0>)
 8004784:	4013      	ands	r3, r2
 8004786:	60cb      	str	r3, [r1, #12]
        }

        /* Configure the event mask */
        if ((GPIO_Init->Mode & GPIO_MODE_EVT) == GPIO_MODE_EVT)
 8004788:	683b      	ldr	r3, [r7, #0]
 800478a:	685b      	ldr	r3, [r3, #4]
 800478c:	f403 3300 	and.w	r3, r3, #131072	@ 0x20000
 8004790:	2b00      	cmp	r3, #0
 8004792:	d006      	beq.n	80047a2 <HAL_GPIO_Init+0x276>
        {
          SET_BIT(EXTI->EMR, iocurrent);
 8004794:	4b19      	ldr	r3, [pc, #100]	@ (80047fc <HAL_GPIO_Init+0x2d0>)
 8004796:	685a      	ldr	r2, [r3, #4]
 8004798:	4918      	ldr	r1, [pc, #96]	@ (80047fc <HAL_GPIO_Init+0x2d0>)
 800479a:	69bb      	ldr	r3, [r7, #24]
 800479c:	4313      	orrs	r3, r2
 800479e:	604b      	str	r3, [r1, #4]
 80047a0:	e006      	b.n	80047b0 <HAL_GPIO_Init+0x284>
        }
        else
        {
          CLEAR_BIT(EXTI->EMR, iocurrent);
 80047a2:	4b16      	ldr	r3, [pc, #88]	@ (80047fc <HAL_GPIO_Init+0x2d0>)
 80047a4:	685a      	ldr	r2, [r3, #4]
 80047a6:	69bb      	ldr	r3, [r7, #24]
 80047a8:	43db      	mvns	r3, r3
 80047aa:	4914      	ldr	r1, [pc, #80]	@ (80047fc <HAL_GPIO_Init+0x2d0>)
 80047ac:	4013      	ands	r3, r2
 80047ae:	604b      	str	r3, [r1, #4]
        }

        /* Configure the interrupt mask */
        if ((GPIO_Init->Mode & GPIO_MODE_IT) == GPIO_MODE_IT)
 80047b0:	683b      	ldr	r3, [r7, #0]
 80047b2:	685b      	ldr	r3, [r3, #4]
 80047b4:	f403 3380 	and.w	r3, r3, #65536	@ 0x10000
 80047b8:	2b00      	cmp	r3, #0
 80047ba:	d021      	beq.n	8004800 <HAL_GPIO_Init+0x2d4>
        {
          SET_BIT(EXTI->IMR, iocurrent);
 80047bc:	4b0f      	ldr	r3, [pc, #60]	@ (80047fc <HAL_GPIO_Init+0x2d0>)
 80047be:	681a      	ldr	r2, [r3, #0]
 80047c0:	490e      	ldr	r1, [pc, #56]	@ (80047fc <HAL_GPIO_Init+0x2d0>)
 80047c2:	69bb      	ldr	r3, [r7, #24]
 80047c4:	4313      	orrs	r3, r2
 80047c6:	600b      	str	r3, [r1, #0]
 80047c8:	e021      	b.n	800480e <HAL_GPIO_Init+0x2e2>
 80047ca:	bf00      	nop
 80047cc:	10320000 	.word	0x10320000
 80047d0:	10310000 	.word	0x10310000
 80047d4:	10220000 	.word	0x10220000
 80047d8:	10210000 	.word	0x10210000
 80047dc:	10120000 	.word	0x10120000
 80047e0:	10110000 	.word	0x10110000
 80047e4:	40021000 	.word	0x40021000
 80047e8:	40010000 	.word	0x40010000
 80047ec:	40010800 	.word	0x40010800
 80047f0:	40010c00 	.word	0x40010c00
 80047f4:	40011000 	.word	0x40011000
 80047f8:	40011400 	.word	0x40011400
 80047fc:	40010400 	.word	0x40010400
        }
        else
        {
          CLEAR_BIT(EXTI->IMR, iocurrent);
 8004800:	4b0b      	ldr	r3, [pc, #44]	@ (8004830 <HAL_GPIO_Init+0x304>)
 8004802:	681a      	ldr	r2, [r3, #0]
 8004804:	69bb      	ldr	r3, [r7, #24]
 8004806:	43db      	mvns	r3, r3
 8004808:	4909      	ldr	r1, [pc, #36]	@ (8004830 <HAL_GPIO_Init+0x304>)
 800480a:	4013      	ands	r3, r2
 800480c:	600b      	str	r3, [r1, #0]
        }
      }
    }

	position++;
 800480e:	6a7b      	ldr	r3, [r7, #36]	@ 0x24
 8004810:	3301      	adds	r3, #1
 8004812:	627b      	str	r3, [r7, #36]	@ 0x24
  while (((GPIO_Init->Pin) >> position) != 0x00u)
 8004814:	683b      	ldr	r3, [r7, #0]
 8004816:	681a      	ldr	r2, [r3, #0]
 8004818:	6a7b      	ldr	r3, [r7, #36]	@ 0x24
 800481a:	fa22 f303 	lsr.w	r3, r2, r3
 800481e:	2b00      	cmp	r3, #0
 8004820:	f47f ae8e 	bne.w	8004540 <HAL_GPIO_Init+0x14>
  }
}
 8004824:	bf00      	nop
 8004826:	bf00      	nop
 8004828:	372c      	adds	r7, #44	@ 0x2c
 800482a:	46bd      	mov	sp, r7
 800482c:	bc80      	pop	{r7}
 800482e:	4770      	bx	lr
 8004830:	40010400 	.word	0x40010400

08004834 <HAL_GPIO_ReadPin>:
  * @param  GPIO_Pin: specifies the port bit to read.
  *         This parameter can be GPIO_PIN_x where x can be (0..15).
  * @retval The input port pin value.
  */
GPIO_PinState HAL_GPIO_ReadPin(GPIO_TypeDef *GPIOx, uint16_t GPIO_Pin)
{
 8004834:	b480      	push	{r7}
 8004836:	b085      	sub	sp, #20
 8004838:	af00      	add	r7, sp, #0
 800483a:	6078      	str	r0, [r7, #4]
 800483c:	460b      	mov	r3, r1
 800483e:	807b      	strh	r3, [r7, #2]
  GPIO_PinState bitstatus;

  /* Check the parameters */
  assert_param(IS_GPIO_PIN(GPIO_Pin));

  if ((GPIOx->IDR & GPIO_Pin) != (uint32_t)GPIO_PIN_RESET)
 8004840:	687b      	ldr	r3, [r7, #4]
 8004842:	689a      	ldr	r2, [r3, #8]
 8004844:	887b      	ldrh	r3, [r7, #2]
 8004846:	4013      	ands	r3, r2
 8004848:	2b00      	cmp	r3, #0
 800484a:	d002      	beq.n	8004852 <HAL_GPIO_ReadPin+0x1e>
  {
    bitstatus = GPIO_PIN_SET;
 800484c:	2301      	movs	r3, #1
 800484e:	73fb      	strb	r3, [r7, #15]
 8004850:	e001      	b.n	8004856 <HAL_GPIO_ReadPin+0x22>
  }
  else
  {
    bitstatus = GPIO_PIN_RESET;
 8004852:	2300      	movs	r3, #0
 8004854:	73fb      	strb	r3, [r7, #15]
  }
  return bitstatus;
 8004856:	7bfb      	ldrb	r3, [r7, #15]
}
 8004858:	4618      	mov	r0, r3
 800485a:	3714      	adds	r7, #20
 800485c:	46bd      	mov	sp, r7
 800485e:	bc80      	pop	{r7}
 8004860:	4770      	bx	lr

08004862 <HAL_GPIO_WritePin>:
  *            @arg GPIO_PIN_RESET: to clear the port pin
  *            @arg GPIO_PIN_SET: to set the port pin
  * @retval None
  */
void HAL_GPIO_WritePin(GPIO_TypeDef *GPIOx, uint16_t GPIO_Pin, GPIO_PinState PinState)
{
 8004862:	b480      	push	{r7}
 8004864:	b083      	sub	sp, #12
 8004866:	af00      	add	r7, sp, #0
 8004868:	6078      	str	r0, [r7, #4]
 800486a:	460b      	mov	r3, r1
 800486c:	807b      	strh	r3, [r7, #2]
 800486e:	4613      	mov	r3, r2
 8004870:	707b      	strb	r3, [r7, #1]
  /* Check the parameters */
  assert_param(IS_GPIO_PIN(GPIO_Pin));
  assert_param(IS_GPIO_PIN_ACTION(PinState));

  if (PinState != GPIO_PIN_RESET)
 8004872:	787b      	ldrb	r3, [r7, #1]
 8004874:	2b00      	cmp	r3, #0
 8004876:	d003      	beq.n	8004880 <HAL_GPIO_WritePin+0x1e>
  {
    GPIOx->BSRR = GPIO_Pin;
 8004878:	887a      	ldrh	r2, [r7, #2]
 800487a:	687b      	ldr	r3, [r7, #4]
 800487c:	611a      	str	r2, [r3, #16]
  }
  else
  {
    GPIOx->BSRR = (uint32_t)GPIO_Pin << 16u;
  }
}
 800487e:	e003      	b.n	8004888 <HAL_GPIO_WritePin+0x26>
    GPIOx->BSRR = (uint32_t)GPIO_Pin << 16u;
 8004880:	887b      	ldrh	r3, [r7, #2]
 8004882:	041a      	lsls	r2, r3, #16
 8004884:	687b      	ldr	r3, [r7, #4]
 8004886:	611a      	str	r2, [r3, #16]
}
 8004888:	bf00      	nop
 800488a:	370c      	adds	r7, #12
 800488c:	46bd      	mov	sp, r7
 800488e:	bc80      	pop	{r7}
 8004890:	4770      	bx	lr
	...

08004894 <HAL_I2C_Init>:
  * @param  hi2c Pointer to a I2C_HandleTypeDef structure that contains
  *                the configuration information for the specified I2C.
  * @retval HAL status
  */
HAL_StatusTypeDef HAL_I2C_Init(I2C_HandleTypeDef *hi2c)
{
 8004894:	b580      	push	{r7, lr}
 8004896:	b084      	sub	sp, #16
 8004898:	af00      	add	r7, sp, #0
 800489a:	6078      	str	r0, [r7, #4]
  uint32_t freqrange;
  uint32_t pclk1;

  /* Check the I2C handle allocation */
  if (hi2c == NULL)
 800489c:	687b      	ldr	r3, [r7, #4]
 800489e:	2b00      	cmp	r3, #0
 80048a0:	d101      	bne.n	80048a6 <HAL_I2C_Init+0x12>
  {
    return HAL_ERROR;
 80048a2:	2301      	movs	r3, #1
 80048a4:	e12b      	b.n	8004afe <HAL_I2C_Init+0x26a>
  assert_param(IS_I2C_DUAL_ADDRESS(hi2c->Init.DualAddressMode));
  assert_param(IS_I2C_OWN_ADDRESS2(hi2c->Init.OwnAddress2));
  assert_param(IS_I2C_GENERAL_CALL(hi2c->Init.GeneralCallMode));
  assert_param(IS_I2C_NO_STRETCH(hi2c->Init.NoStretchMode));

  if (hi2c->State == HAL_I2C_STATE_RESET)
 80048a6:	687b      	ldr	r3, [r7, #4]
 80048a8:	f893 303d 	ldrb.w	r3, [r3, #61]	@ 0x3d
 80048ac:	b2db      	uxtb	r3, r3
 80048ae:	2b00      	cmp	r3, #0
 80048b0:	d106      	bne.n	80048c0 <HAL_I2C_Init+0x2c>
  {
    /* Allocate lock resource and initialize it */
    hi2c->Lock = HAL_UNLOCKED;
 80048b2:	687b      	ldr	r3, [r7, #4]
 80048b4:	2200      	movs	r2, #0
 80048b6:	f883 203c 	strb.w	r2, [r3, #60]	@ 0x3c

    /* Init the low level hardware : GPIO, CLOCK, NVIC */
    hi2c->MspInitCallback(hi2c);
#else
    /* Init the low level hardware : GPIO, CLOCK, NVIC */
    HAL_I2C_MspInit(hi2c);
 80048ba:	6878      	ldr	r0, [r7, #4]
 80048bc:	f7ff f8a6 	bl	8003a0c <HAL_I2C_MspInit>
#endif /* USE_HAL_I2C_REGISTER_CALLBACKS */
  }

  hi2c->State = HAL_I2C_STATE_BUSY;
 80048c0:	687b      	ldr	r3, [r7, #4]
 80048c2:	2224      	movs	r2, #36	@ 0x24
 80048c4:	f883 203d 	strb.w	r2, [r3, #61]	@ 0x3d

  /* Disable the selected I2C peripheral */
  __HAL_I2C_DISABLE(hi2c);
 80048c8:	687b      	ldr	r3, [r7, #4]
 80048ca:	681b      	ldr	r3, [r3, #0]
 80048cc:	681a      	ldr	r2, [r3, #0]
 80048ce:	687b      	ldr	r3, [r7, #4]
 80048d0:	681b      	ldr	r3, [r3, #0]
 80048d2:	f022 0201 	bic.w	r2, r2, #1
 80048d6:	601a      	str	r2, [r3, #0]

  /*Reset I2C*/
  hi2c->Instance->CR1 |= I2C_CR1_SWRST;
 80048d8:	687b      	ldr	r3, [r7, #4]
 80048da:	681b      	ldr	r3, [r3, #0]
 80048dc:	681a      	ldr	r2, [r3, #0]
 80048de:	687b      	ldr	r3, [r7, #4]
 80048e0:	681b      	ldr	r3, [r3, #0]
 80048e2:	f442 4200 	orr.w	r2, r2, #32768	@ 0x8000
 80048e6:	601a      	str	r2, [r3, #0]
  hi2c->Instance->CR1 &= ~I2C_CR1_SWRST;
 80048e8:	687b      	ldr	r3, [r7, #4]
 80048ea:	681b      	ldr	r3, [r3, #0]
 80048ec:	681a      	ldr	r2, [r3, #0]
 80048ee:	687b      	ldr	r3, [r7, #4]
 80048f0:	681b      	ldr	r3, [r3, #0]
 80048f2:	f422 4200 	bic.w	r2, r2, #32768	@ 0x8000
 80048f6:	601a      	str	r2, [r3, #0]

  /* Get PCLK1 frequency */
  pclk1 = HAL_RCC_GetPCLK1Freq();
 80048f8:	f000 fcda 	bl	80052b0 <HAL_RCC_GetPCLK1Freq>
 80048fc:	60f8      	str	r0, [r7, #12]

  /* Check the minimum allowed PCLK1 frequency */
  if (I2C_MIN_PCLK_FREQ(pclk1, hi2c->Init.ClockSpeed) == 1U)
 80048fe:	687b      	ldr	r3, [r7, #4]
 8004900:	685b      	ldr	r3, [r3, #4]
 8004902:	4a81      	ldr	r2, [pc, #516]	@ (8004b08 <HAL_I2C_Init+0x274>)
 8004904:	4293      	cmp	r3, r2
 8004906:	d807      	bhi.n	8004918 <HAL_I2C_Init+0x84>
 8004908:	68fb      	ldr	r3, [r7, #12]
 800490a:	4a80      	ldr	r2, [pc, #512]	@ (8004b0c <HAL_I2C_Init+0x278>)
 800490c:	4293      	cmp	r3, r2
 800490e:	bf94      	ite	ls
 8004910:	2301      	movls	r3, #1
 8004912:	2300      	movhi	r3, #0
 8004914:	b2db      	uxtb	r3, r3
 8004916:	e006      	b.n	8004926 <HAL_I2C_Init+0x92>
 8004918:	68fb      	ldr	r3, [r7, #12]
 800491a:	4a7d      	ldr	r2, [pc, #500]	@ (8004b10 <HAL_I2C_Init+0x27c>)
 800491c:	4293      	cmp	r3, r2
 800491e:	bf94      	ite	ls
 8004920:	2301      	movls	r3, #1
 8004922:	2300      	movhi	r3, #0
 8004924:	b2db      	uxtb	r3, r3
 8004926:	2b00      	cmp	r3, #0
 8004928:	d001      	beq.n	800492e <HAL_I2C_Init+0x9a>
  {
    return HAL_ERROR;
 800492a:	2301      	movs	r3, #1
 800492c:	e0e7      	b.n	8004afe <HAL_I2C_Init+0x26a>
  }

  /* Calculate frequency range */
  freqrange = I2C_FREQRANGE(pclk1);
 800492e:	68fb      	ldr	r3, [r7, #12]
 8004930:	4a78      	ldr	r2, [pc, #480]	@ (8004b14 <HAL_I2C_Init+0x280>)
 8004932:	fba2 2303 	umull	r2, r3, r2, r3
 8004936:	0c9b      	lsrs	r3, r3, #18
 8004938:	60bb      	str	r3, [r7, #8]

  /*---------------------------- I2Cx CR2 Configuration ----------------------*/
  /* Configure I2Cx: Frequency range */
  MODIFY_REG(hi2c->Instance->CR2, I2C_CR2_FREQ, freqrange);
 800493a:	687b      	ldr	r3, [r7, #4]
 800493c:	681b      	ldr	r3, [r3, #0]
 800493e:	685b      	ldr	r3, [r3, #4]
 8004940:	f023 013f 	bic.w	r1, r3, #63	@ 0x3f
 8004944:	687b      	ldr	r3, [r7, #4]
 8004946:	681b      	ldr	r3, [r3, #0]
 8004948:	68ba      	ldr	r2, [r7, #8]
 800494a:	430a      	orrs	r2, r1
 800494c:	605a      	str	r2, [r3, #4]

  /*---------------------------- I2Cx TRISE Configuration --------------------*/
  /* Configure I2Cx: Rise Time */
  MODIFY_REG(hi2c->Instance->TRISE, I2C_TRISE_TRISE, I2C_RISE_TIME(freqrange, hi2c->Init.ClockSpeed));
 800494e:	687b      	ldr	r3, [r7, #4]
 8004950:	681b      	ldr	r3, [r3, #0]
 8004952:	6a1b      	ldr	r3, [r3, #32]
 8004954:	f023 013f 	bic.w	r1, r3, #63	@ 0x3f
 8004958:	687b      	ldr	r3, [r7, #4]
 800495a:	685b      	ldr	r3, [r3, #4]
 800495c:	4a6a      	ldr	r2, [pc, #424]	@ (8004b08 <HAL_I2C_Init+0x274>)
 800495e:	4293      	cmp	r3, r2
 8004960:	d802      	bhi.n	8004968 <HAL_I2C_Init+0xd4>
 8004962:	68bb      	ldr	r3, [r7, #8]
 8004964:	3301      	adds	r3, #1
 8004966:	e009      	b.n	800497c <HAL_I2C_Init+0xe8>
 8004968:	68bb      	ldr	r3, [r7, #8]
 800496a:	f44f 7296 	mov.w	r2, #300	@ 0x12c
 800496e:	fb02 f303 	mul.w	r3, r2, r3
 8004972:	4a69      	ldr	r2, [pc, #420]	@ (8004b18 <HAL_I2C_Init+0x284>)
 8004974:	fba2 2303 	umull	r2, r3, r2, r3
 8004978:	099b      	lsrs	r3, r3, #6
 800497a:	3301      	adds	r3, #1
 800497c:	687a      	ldr	r2, [r7, #4]
 800497e:	6812      	ldr	r2, [r2, #0]
 8004980:	430b      	orrs	r3, r1
 8004982:	6213      	str	r3, [r2, #32]

  /*---------------------------- I2Cx CCR Configuration ----------------------*/
  /* Configure I2Cx: Speed */
  MODIFY_REG(hi2c->Instance->CCR, (I2C_CCR_FS | I2C_CCR_DUTY | I2C_CCR_CCR), I2C_SPEED(pclk1, hi2c->Init.ClockSpeed, hi2c->Init.DutyCycle));
 8004984:	687b      	ldr	r3, [r7, #4]
 8004986:	681b      	ldr	r3, [r3, #0]
 8004988:	69db      	ldr	r3, [r3, #28]
 800498a:	f423 424f 	bic.w	r2, r3, #52992	@ 0xcf00
 800498e:	f022 02ff 	bic.w	r2, r2, #255	@ 0xff
 8004992:	687b      	ldr	r3, [r7, #4]
 8004994:	685b      	ldr	r3, [r3, #4]
 8004996:	495c      	ldr	r1, [pc, #368]	@ (8004b08 <HAL_I2C_Init+0x274>)
 8004998:	428b      	cmp	r3, r1
 800499a:	d819      	bhi.n	80049d0 <HAL_I2C_Init+0x13c>
 800499c:	68fb      	ldr	r3, [r7, #12]
 800499e:	1e59      	subs	r1, r3, #1
 80049a0:	687b      	ldr	r3, [r7, #4]
 80049a2:	685b      	ldr	r3, [r3, #4]
 80049a4:	005b      	lsls	r3, r3, #1
 80049a6:	fbb1 f3f3 	udiv	r3, r1, r3
 80049aa:	1c59      	adds	r1, r3, #1
 80049ac:	f640 73fc 	movw	r3, #4092	@ 0xffc
 80049b0:	400b      	ands	r3, r1
 80049b2:	2b00      	cmp	r3, #0
 80049b4:	d00a      	beq.n	80049cc <HAL_I2C_Init+0x138>
 80049b6:	68fb      	ldr	r3, [r7, #12]
 80049b8:	1e59      	subs	r1, r3, #1
 80049ba:	687b      	ldr	r3, [r7, #4]
 80049bc:	685b      	ldr	r3, [r3, #4]
 80049be:	005b      	lsls	r3, r3, #1
 80049c0:	fbb1 f3f3 	udiv	r3, r1, r3
 80049c4:	3301      	adds	r3, #1
 80049c6:	f3c3 030b 	ubfx	r3, r3, #0, #12
 80049ca:	e051      	b.n	8004a70 <HAL_I2C_Init+0x1dc>
 80049cc:	2304      	movs	r3, #4
 80049ce:	e04f      	b.n	8004a70 <HAL_I2C_Init+0x1dc>
 80049d0:	687b      	ldr	r3, [r7, #4]
 80049d2:	689b      	ldr	r3, [r3, #8]
 80049d4:	2b00      	cmp	r3, #0
 80049d6:	d111      	bne.n	80049fc <HAL_I2C_Init+0x168>
 80049d8:	68fb      	ldr	r3, [r7, #12]
 80049da:	1e58      	subs	r0, r3, #1
 80049dc:	687b      	ldr	r3, [r7, #4]
 80049de:	6859      	ldr	r1, [r3, #4]
 80049e0:	460b      	mov	r3, r1
 80049e2:	005b      	lsls	r3, r3, #1
 80049e4:	440b      	add	r3, r1
 80049e6:	fbb0 f3f3 	udiv	r3, r0, r3
 80049ea:	3301      	adds	r3, #1
 80049ec:	f3c3 030b 	ubfx	r3, r3, #0, #12
 80049f0:	2b00      	cmp	r3, #0
 80049f2:	bf0c      	ite	eq
 80049f4:	2301      	moveq	r3, #1
 80049f6:	2300      	movne	r3, #0
 80049f8:	b2db      	uxtb	r3, r3
 80049fa:	e012      	b.n	8004a22 <HAL_I2C_Init+0x18e>
 80049fc:	68fb      	ldr	r3, [r7, #12]
 80049fe:	1e58      	subs	r0, r3, #1
 8004a00:	687b      	ldr	r3, [r7, #4]
 8004a02:	6859      	ldr	r1, [r3, #4]
 8004a04:	460b      	mov	r3, r1
 8004a06:	009b      	lsls	r3, r3, #2
 8004a08:	440b      	add	r3, r1
 8004a0a:	0099      	lsls	r1, r3, #2
 8004a0c:	440b      	add	r3, r1
 8004a0e:	fbb0 f3f3 	udiv	r3, r0, r3
 8004a12:	3301      	adds	r3, #1
 8004a14:	f3c3 030b 	ubfx	r3, r3, #0, #12
 8004a18:	2b00      	cmp	r3, #0
 8004a1a:	bf0c      	ite	eq
 8004a1c:	2301      	moveq	r3, #1
 8004a1e:	2300      	movne	r3, #0
 8004a20:	b2db      	uxtb	r3, r3
 8004a22:	2b00      	cmp	r3, #0
 8004a24:	d001      	beq.n	8004a2a <HAL_I2C_Init+0x196>
 8004a26:	2301      	movs	r3, #1
 8004a28:	e022      	b.n	8004a70 <HAL_I2C_Init+0x1dc>
 8004a2a:	687b      	ldr	r3, [r7, #4]
 8004a2c:	689b      	ldr	r3, [r3, #8]
 8004a2e:	2b00      	cmp	r3, #0
 8004a30:	d10e      	bne.n	8004a50 <HAL_I2C_Init+0x1bc>
 8004a32:	68fb      	ldr	r3, [r7, #12]
 8004a34:	1e58      	subs	r0, r3, #1
 8004a36:	687b      	ldr	r3, [r7, #4]
 8004a38:	6859      	ldr	r1, [r3, #4]
 8004a3a:	460b      	mov	r3, r1
 8004a3c:	005b      	lsls	r3, r3, #1
 8004a3e:	440b      	add	r3, r1
 8004a40:	fbb0 f3f3 	udiv	r3, r0, r3
 8004a44:	3301      	adds	r3, #1
 8004a46:	f3c3 030b 	ubfx	r3, r3, #0, #12
 8004a4a:	f443 4300 	orr.w	r3, r3, #32768	@ 0x8000
 8004a4e:	e00f      	b.n	8004a70 <HAL_I2C_Init+0x1dc>
 8004a50:	68fb      	ldr	r3, [r7, #12]
 8004a52:	1e58      	subs	r0, r3, #1
 8004a54:	687b      	ldr	r3, [r7, #4]
 8004a56:	6859      	ldr	r1, [r3, #4]
 8004a58:	460b      	mov	r3, r1
 8004a5a:	009b      	lsls	r3, r3, #2
 8004a5c:	440b      	add	r3, r1
 8004a5e:	0099      	lsls	r1, r3, #2
 8004a60:	440b      	add	r3, r1
 8004a62:	fbb0 f3f3 	udiv	r3, r0, r3
 8004a66:	3301      	adds	r3, #1
 8004a68:	f3c3 030b 	ubfx	r3, r3, #0, #12
 8004a6c:	f443 4340 	orr.w	r3, r3, #49152	@ 0xc000
 8004a70:	6879      	ldr	r1, [r7, #4]
 8004a72:	6809      	ldr	r1, [r1, #0]
 8004a74:	4313      	orrs	r3, r2
 8004a76:	61cb      	str	r3, [r1, #28]

  /*---------------------------- I2Cx CR1 Configuration ----------------------*/
  /* Configure I2Cx: Generalcall and NoStretch mode */
  MODIFY_REG(hi2c->Instance->CR1, (I2C_CR1_ENGC | I2C_CR1_NOSTRETCH), (hi2c->Init.GeneralCallMode | hi2c->Init.NoStretchMode));
 8004a78:	687b      	ldr	r3, [r7, #4]
 8004a7a:	681b      	ldr	r3, [r3, #0]
 8004a7c:	681b      	ldr	r3, [r3, #0]
 8004a7e:	f023 01c0 	bic.w	r1, r3, #192	@ 0xc0
 8004a82:	687b      	ldr	r3, [r7, #4]
 8004a84:	69da      	ldr	r2, [r3, #28]
 8004a86:	687b      	ldr	r3, [r7, #4]
 8004a88:	6a1b      	ldr	r3, [r3, #32]
 8004a8a:	431a      	orrs	r2, r3
 8004a8c:	687b      	ldr	r3, [r7, #4]
 8004a8e:	681b      	ldr	r3, [r3, #0]
 8004a90:	430a      	orrs	r2, r1
 8004a92:	601a      	str	r2, [r3, #0]

  /*---------------------------- I2Cx OAR1 Configuration ---------------------*/
  /* Configure I2Cx: Own Address1 and addressing mode */
  MODIFY_REG(hi2c->Instance->OAR1, (I2C_OAR1_ADDMODE | I2C_OAR1_ADD8_9 | I2C_OAR1_ADD1_7 | I2C_OAR1_ADD0), (hi2c->Init.AddressingMode | hi2c->Init.OwnAddress1));
 8004a94:	687b      	ldr	r3, [r7, #4]
 8004a96:	681b      	ldr	r3, [r3, #0]
 8004a98:	689b      	ldr	r3, [r3, #8]
 8004a9a:	f423 4303 	bic.w	r3, r3, #33536	@ 0x8300
 8004a9e:	f023 03ff 	bic.w	r3, r3, #255	@ 0xff
 8004aa2:	687a      	ldr	r2, [r7, #4]
 8004aa4:	6911      	ldr	r1, [r2, #16]
 8004aa6:	687a      	ldr	r2, [r7, #4]
 8004aa8:	68d2      	ldr	r2, [r2, #12]
 8004aaa:	4311      	orrs	r1, r2
 8004aac:	687a      	ldr	r2, [r7, #4]
 8004aae:	6812      	ldr	r2, [r2, #0]
 8004ab0:	430b      	orrs	r3, r1
 8004ab2:	6093      	str	r3, [r2, #8]

  /*---------------------------- I2Cx OAR2 Configuration ---------------------*/
  /* Configure I2Cx: Dual mode and Own Address2 */
  MODIFY_REG(hi2c->Instance->OAR2, (I2C_OAR2_ENDUAL | I2C_OAR2_ADD2), (hi2c->Init.DualAddressMode | hi2c->Init.OwnAddress2));
 8004ab4:	687b      	ldr	r3, [r7, #4]
 8004ab6:	681b      	ldr	r3, [r3, #0]
 8004ab8:	68db      	ldr	r3, [r3, #12]
 8004aba:	f023 01ff 	bic.w	r1, r3, #255	@ 0xff
 8004abe:	687b      	ldr	r3, [r7, #4]
 8004ac0:	695a      	ldr	r2, [r3, #20]
 8004ac2:	687b      	ldr	r3, [r7, #4]
 8004ac4:	699b      	ldr	r3, [r3, #24]
 8004ac6:	431a      	orrs	r2, r3
 8004ac8:	687b      	ldr	r3, [r7, #4]
 8004aca:	681b      	ldr	r3, [r3, #0]
 8004acc:	430a      	orrs	r2, r1
 8004ace:	60da      	str	r2, [r3, #12]

  /* Enable the selected I2C peripheral */
  __HAL_I2C_ENABLE(hi2c);
 8004ad0:	687b      	ldr	r3, [r7, #4]
 8004ad2:	681b      	ldr	r3, [r3, #0]
 8004ad4:	681a      	ldr	r2, [r3, #0]
 8004ad6:	687b      	ldr	r3, [r7, #4]
 8004ad8:	681b      	ldr	r3, [r3, #0]
 8004ada:	f042 0201 	orr.w	r2, r2, #1
 8004ade:	601a      	str	r2, [r3, #0]

  hi2c->ErrorCode = HAL_I2C_ERROR_NONE;
 8004ae0:	687b      	ldr	r3, [r7, #4]
 8004ae2:	2200      	movs	r2, #0
 8004ae4:	641a      	str	r2, [r3, #64]	@ 0x40
  hi2c->State = HAL_I2C_STATE_READY;
 8004ae6:	687b      	ldr	r3, [r7, #4]
 8004ae8:	2220      	movs	r2, #32
 8004aea:	f883 203d 	strb.w	r2, [r3, #61]	@ 0x3d
  hi2c->PreviousState = I2C_STATE_NONE;
 8004aee:	687b      	ldr	r3, [r7, #4]
 8004af0:	2200      	movs	r2, #0
 8004af2:	631a      	str	r2, [r3, #48]	@ 0x30
  hi2c->Mode = HAL_I2C_MODE_NONE;
 8004af4:	687b      	ldr	r3, [r7, #4]
 8004af6:	2200      	movs	r2, #0
 8004af8:	f883 203e 	strb.w	r2, [r3, #62]	@ 0x3e

  return HAL_OK;
 8004afc:	2300      	movs	r3, #0
}
 8004afe:	4618      	mov	r0, r3
 8004b00:	3710      	adds	r7, #16
 8004b02:	46bd      	mov	sp, r7
 8004b04:	bd80      	pop	{r7, pc}
 8004b06:	bf00      	nop
 8004b08:	000186a0 	.word	0x000186a0
 8004b0c:	001e847f 	.word	0x001e847f
 8004b10:	003d08ff 	.word	0x003d08ff
 8004b14:	431bde83 	.word	0x431bde83
 8004b18:	10624dd3 	.word	0x10624dd3

08004b1c <HAL_RCC_OscConfig>:
  *         supported by this macro. User should request a transition to HSE Off
  *         first and then HSE On or HSE Bypass.
  * @retval HAL status
  */
HAL_StatusTypeDef HAL_RCC_OscConfig(RCC_OscInitTypeDef  *RCC_OscInitStruct)
{
 8004b1c:	b580      	push	{r7, lr}
 8004b1e:	b086      	sub	sp, #24
 8004b20:	af00      	add	r7, sp, #0
 8004b22:	6078      	str	r0, [r7, #4]
  uint32_t tickstart;
  uint32_t pll_config;

  /* Check Null pointer */
  if (RCC_OscInitStruct == NULL)
 8004b24:	687b      	ldr	r3, [r7, #4]
 8004b26:	2b00      	cmp	r3, #0
 8004b28:	d101      	bne.n	8004b2e <HAL_RCC_OscConfig+0x12>
  {
    return HAL_ERROR;
 8004b2a:	2301      	movs	r3, #1
 8004b2c:	e272      	b.n	8005014 <HAL_RCC_OscConfig+0x4f8>

  /* Check the parameters */
  assert_param(IS_RCC_OSCILLATORTYPE(RCC_OscInitStruct->OscillatorType));

  /*------------------------------- HSE Configuration ------------------------*/
  if (((RCC_OscInitStruct->OscillatorType) & RCC_OSCILLATORTYPE_HSE) == RCC_OSCILLATORTYPE_HSE)
 8004b2e:	687b      	ldr	r3, [r7, #4]
 8004b30:	681b      	ldr	r3, [r3, #0]
 8004b32:	f003 0301 	and.w	r3, r3, #1
 8004b36:	2b00      	cmp	r3, #0
 8004b38:	f000 8087 	beq.w	8004c4a <HAL_RCC_OscConfig+0x12e>
  {
    /* Check the parameters */
    assert_param(IS_RCC_HSE(RCC_OscInitStruct->HSEState));

    /* When the HSE is used as system clock or clock source for PLL in these cases it is not allowed to be disabled */
    if ((__HAL_RCC_GET_SYSCLK_SOURCE() == RCC_SYSCLKSOURCE_STATUS_HSE)
 8004b3c:	4b92      	ldr	r3, [pc, #584]	@ (8004d88 <HAL_RCC_OscConfig+0x26c>)
 8004b3e:	685b      	ldr	r3, [r3, #4]
 8004b40:	f003 030c 	and.w	r3, r3, #12
 8004b44:	2b04      	cmp	r3, #4
 8004b46:	d00c      	beq.n	8004b62 <HAL_RCC_OscConfig+0x46>
        || ((__HAL_RCC_GET_SYSCLK_SOURCE() == RCC_SYSCLKSOURCE_STATUS_PLLCLK) && (__HAL_RCC_GET_PLL_OSCSOURCE() == RCC_PLLSOURCE_HSE)))
 8004b48:	4b8f      	ldr	r3, [pc, #572]	@ (8004d88 <HAL_RCC_OscConfig+0x26c>)
 8004b4a:	685b      	ldr	r3, [r3, #4]
 8004b4c:	f003 030c 	and.w	r3, r3, #12
 8004b50:	2b08      	cmp	r3, #8
 8004b52:	d112      	bne.n	8004b7a <HAL_RCC_OscConfig+0x5e>
 8004b54:	4b8c      	ldr	r3, [pc, #560]	@ (8004d88 <HAL_RCC_OscConfig+0x26c>)
 8004b56:	685b      	ldr	r3, [r3, #4]
 8004b58:	f403 3380 	and.w	r3, r3, #65536	@ 0x10000
 8004b5c:	f5b3 3f80 	cmp.w	r3, #65536	@ 0x10000
 8004b60:	d10b      	bne.n	8004b7a <HAL_RCC_OscConfig+0x5e>
    {
      if ((__HAL_RCC_GET_FLAG(RCC_FLAG_HSERDY) != RESET) && (RCC_OscInitStruct->HSEState == RCC_HSE_OFF))
 8004b62:	4b89      	ldr	r3, [pc, #548]	@ (8004d88 <HAL_RCC_OscConfig+0x26c>)
 8004b64:	681b      	ldr	r3, [r3, #0]
 8004b66:	f403 3300 	and.w	r3, r3, #131072	@ 0x20000
 8004b6a:	2b00      	cmp	r3, #0
 8004b6c:	d06c      	beq.n	8004c48 <HAL_RCC_OscConfig+0x12c>
 8004b6e:	687b      	ldr	r3, [r7, #4]
 8004b70:	685b      	ldr	r3, [r3, #4]
 8004b72:	2b00      	cmp	r3, #0
 8004b74:	d168      	bne.n	8004c48 <HAL_RCC_OscConfig+0x12c>
      {
        return HAL_ERROR;
 8004b76:	2301      	movs	r3, #1
 8004b78:	e24c      	b.n	8005014 <HAL_RCC_OscConfig+0x4f8>
      }
    }
    else
    {
      /* Set the new HSE configuration ---------------------------------------*/
      __HAL_RCC_HSE_CONFIG(RCC_OscInitStruct->HSEState);
 8004b7a:	687b      	ldr	r3, [r7, #4]
 8004b7c:	685b      	ldr	r3, [r3, #4]
 8004b7e:	f5b3 3f80 	cmp.w	r3, #65536	@ 0x10000
 8004b82:	d106      	bne.n	8004b92 <HAL_RCC_OscConfig+0x76>
 8004b84:	4b80      	ldr	r3, [pc, #512]	@ (8004d88 <HAL_RCC_OscConfig+0x26c>)
 8004b86:	681b      	ldr	r3, [r3, #0]
 8004b88:	4a7f      	ldr	r2, [pc, #508]	@ (8004d88 <HAL_RCC_OscConfig+0x26c>)
 8004b8a:	f443 3380 	orr.w	r3, r3, #65536	@ 0x10000
 8004b8e:	6013      	str	r3, [r2, #0]
 8004b90:	e02e      	b.n	8004bf0 <HAL_RCC_OscConfig+0xd4>
 8004b92:	687b      	ldr	r3, [r7, #4]
 8004b94:	685b      	ldr	r3, [r3, #4]
 8004b96:	2b00      	cmp	r3, #0
 8004b98:	d10c      	bne.n	8004bb4 <HAL_RCC_OscConfig+0x98>
 8004b9a:	4b7b      	ldr	r3, [pc, #492]	@ (8004d88 <HAL_RCC_OscConfig+0x26c>)
 8004b9c:	681b      	ldr	r3, [r3, #0]
 8004b9e:	4a7a      	ldr	r2, [pc, #488]	@ (8004d88 <HAL_RCC_OscConfig+0x26c>)
 8004ba0:	f423 3380 	bic.w	r3, r3, #65536	@ 0x10000
 8004ba4:	6013      	str	r3, [r2, #0]
 8004ba6:	4b78      	ldr	r3, [pc, #480]	@ (8004d88 <HAL_RCC_OscConfig+0x26c>)
 8004ba8:	681b      	ldr	r3, [r3, #0]
 8004baa:	4a77      	ldr	r2, [pc, #476]	@ (8004d88 <HAL_RCC_OscConfig+0x26c>)
 8004bac:	f423 2380 	bic.w	r3, r3, #262144	@ 0x40000
 8004bb0:	6013      	str	r3, [r2, #0]
 8004bb2:	e01d      	b.n	8004bf0 <HAL_RCC_OscConfig+0xd4>
 8004bb4:	687b      	ldr	r3, [r7, #4]
 8004bb6:	685b      	ldr	r3, [r3, #4]
 8004bb8:	f5b3 2fa0 	cmp.w	r3, #327680	@ 0x50000
 8004bbc:	d10c      	bne.n	8004bd8 <HAL_RCC_OscConfig+0xbc>
 8004bbe:	4b72      	ldr	r3, [pc, #456]	@ (8004d88 <HAL_RCC_OscConfig+0x26c>)
 8004bc0:	681b      	ldr	r3, [r3, #0]
 8004bc2:	4a71      	ldr	r2, [pc, #452]	@ (8004d88 <HAL_RCC_OscConfig+0x26c>)
 8004bc4:	f443 2380 	orr.w	r3, r3, #262144	@ 0x40000
 8004bc8:	6013      	str	r3, [r2, #0]
 8004bca:	4b6f      	ldr	r3, [pc, #444]	@ (8004d88 <HAL_RCC_OscConfig+0x26c>)
 8004bcc:	681b      	ldr	r3, [r3, #0]
 8004bce:	4a6e      	ldr	r2, [pc, #440]	@ (8004d88 <HAL_RCC_OscConfig+0x26c>)
 8004bd0:	f443 3380 	orr.w	r3, r3, #65536	@ 0x10000
 8004bd4:	6013      	str	r3, [r2, #0]
 8004bd6:	e00b      	b.n	8004bf0 <HAL_RCC_OscConfig+0xd4>
 8004bd8:	4b6b      	ldr	r3, [pc, #428]	@ (8004d88 <HAL_RCC_OscConfig+0x26c>)
 8004bda:	681b      	ldr	r3, [r3, #0]
 8004bdc:	4a6a      	ldr	r2, [pc, #424]	@ (8004d88 <HAL_RCC_OscConfig+0x26c>)
 8004bde:	f423 3380 	bic.w	r3, r3, #65536	@ 0x10000
 8004be2:	6013      	str	r3, [r2, #0]
 8004be4:	4b68      	ldr	r3, [pc, #416]	@ (8004d88 <HAL_RCC_OscConfig+0x26c>)
 8004be6:	681b      	ldr	r3, [r3, #0]
 8004be8:	4a67      	ldr	r2, [pc, #412]	@ (8004d88 <HAL_RCC_OscConfig+0x26c>)
 8004bea:	f423 2380 	bic.w	r3, r3, #262144	@ 0x40000
 8004bee:	6013      	str	r3, [r2, #0]


      /* Check the HSE State */
      if (RCC_OscInitStruct->HSEState != RCC_HSE_OFF)
 8004bf0:	687b      	ldr	r3, [r7, #4]
 8004bf2:	685b      	ldr	r3, [r3, #4]
 8004bf4:	2b00      	cmp	r3, #0
 8004bf6:	d013      	beq.n	8004c20 <HAL_RCC_OscConfig+0x104>
      {
        /* Get Start Tick */
        tickstart = HAL_GetTick();
 8004bf8:	f7ff f9ae 	bl	8003f58 <HAL_GetTick>
 8004bfc:	6138      	str	r0, [r7, #16]

        /* Wait till HSE is ready */
        while (__HAL_RCC_GET_FLAG(RCC_FLAG_HSERDY) == RESET)
 8004bfe:	e008      	b.n	8004c12 <HAL_RCC_OscConfig+0xf6>
        {
          if ((HAL_GetTick() - tickstart) > HSE_TIMEOUT_VALUE)
 8004c00:	f7ff f9aa 	bl	8003f58 <HAL_GetTick>
 8004c04:	4602      	mov	r2, r0
 8004c06:	693b      	ldr	r3, [r7, #16]
 8004c08:	1ad3      	subs	r3, r2, r3
 8004c0a:	2b64      	cmp	r3, #100	@ 0x64
 8004c0c:	d901      	bls.n	8004c12 <HAL_RCC_OscConfig+0xf6>
          {
            return HAL_TIMEOUT;
 8004c0e:	2303      	movs	r3, #3
 8004c10:	e200      	b.n	8005014 <HAL_RCC_OscConfig+0x4f8>
        while (__HAL_RCC_GET_FLAG(RCC_FLAG_HSERDY) == RESET)
 8004c12:	4b5d      	ldr	r3, [pc, #372]	@ (8004d88 <HAL_RCC_OscConfig+0x26c>)
 8004c14:	681b      	ldr	r3, [r3, #0]
 8004c16:	f403 3300 	and.w	r3, r3, #131072	@ 0x20000
 8004c1a:	2b00      	cmp	r3, #0
 8004c1c:	d0f0      	beq.n	8004c00 <HAL_RCC_OscConfig+0xe4>
 8004c1e:	e014      	b.n	8004c4a <HAL_RCC_OscConfig+0x12e>
        }
      }
      else
      {
        /* Get Start Tick */
        tickstart = HAL_GetTick();
 8004c20:	f7ff f99a 	bl	8003f58 <HAL_GetTick>
 8004c24:	6138      	str	r0, [r7, #16]

        /* Wait till HSE is disabled */
        while (__HAL_RCC_GET_FLAG(RCC_FLAG_HSERDY) != RESET)
 8004c26:	e008      	b.n	8004c3a <HAL_RCC_OscConfig+0x11e>
        {
          if ((HAL_GetTick() - tickstart) > HSE_TIMEOUT_VALUE)
 8004c28:	f7ff f996 	bl	8003f58 <HAL_GetTick>
 8004c2c:	4602      	mov	r2, r0
 8004c2e:	693b      	ldr	r3, [r7, #16]
 8004c30:	1ad3      	subs	r3, r2, r3
 8004c32:	2b64      	cmp	r3, #100	@ 0x64
 8004c34:	d901      	bls.n	8004c3a <HAL_RCC_OscConfig+0x11e>
          {
            return HAL_TIMEOUT;
 8004c36:	2303      	movs	r3, #3
 8004c38:	e1ec      	b.n	8005014 <HAL_RCC_OscConfig+0x4f8>
        while (__HAL_RCC_GET_FLAG(RCC_FLAG_HSERDY) != RESET)
 8004c3a:	4b53      	ldr	r3, [pc, #332]	@ (8004d88 <HAL_RCC_OscConfig+0x26c>)
 8004c3c:	681b      	ldr	r3, [r3, #0]
 8004c3e:	f403 3300 	and.w	r3, r3, #131072	@ 0x20000
 8004c42:	2b00      	cmp	r3, #0
 8004c44:	d1f0      	bne.n	8004c28 <HAL_RCC_OscConfig+0x10c>
 8004c46:	e000      	b.n	8004c4a <HAL_RCC_OscConfig+0x12e>
      if ((__HAL_RCC_GET_FLAG(RCC_FLAG_HSERDY) != RESET) && (RCC_OscInitStruct->HSEState == RCC_HSE_OFF))
 8004c48:	bf00      	nop
        }
      }
    }
  }
  /*----------------------------- HSI Configuration --------------------------*/
  if (((RCC_OscInitStruct->OscillatorType) & RCC_OSCILLATORTYPE_HSI) == RCC_OSCILLATORTYPE_HSI)
 8004c4a:	687b      	ldr	r3, [r7, #4]
 8004c4c:	681b      	ldr	r3, [r3, #0]
 8004c4e:	f003 0302 	and.w	r3, r3, #2
 8004c52:	2b00      	cmp	r3, #0
 8004c54:	d063      	beq.n	8004d1e <HAL_RCC_OscConfig+0x202>
    /* Check the parameters */
    assert_param(IS_RCC_HSI(RCC_OscInitStruct->HSIState));
    assert_param(IS_RCC_CALIBRATION_VALUE(RCC_OscInitStruct->HSICalibrationValue));

    /* Check if HSI is used as system clock or as PLL source when PLL is selected as system clock */
    if ((__HAL_RCC_GET_SYSCLK_SOURCE() == RCC_SYSCLKSOURCE_STATUS_HSI)
 8004c56:	4b4c      	ldr	r3, [pc, #304]	@ (8004d88 <HAL_RCC_OscConfig+0x26c>)
 8004c58:	685b      	ldr	r3, [r3, #4]
 8004c5a:	f003 030c 	and.w	r3, r3, #12
 8004c5e:	2b00      	cmp	r3, #0
 8004c60:	d00b      	beq.n	8004c7a <HAL_RCC_OscConfig+0x15e>
        || ((__HAL_RCC_GET_SYSCLK_SOURCE() == RCC_SYSCLKSOURCE_STATUS_PLLCLK) && (__HAL_RCC_GET_PLL_OSCSOURCE() == RCC_PLLSOURCE_HSI_DIV2)))
 8004c62:	4b49      	ldr	r3, [pc, #292]	@ (8004d88 <HAL_RCC_OscConfig+0x26c>)
 8004c64:	685b      	ldr	r3, [r3, #4]
 8004c66:	f003 030c 	and.w	r3, r3, #12
 8004c6a:	2b08      	cmp	r3, #8
 8004c6c:	d11c      	bne.n	8004ca8 <HAL_RCC_OscConfig+0x18c>
 8004c6e:	4b46      	ldr	r3, [pc, #280]	@ (8004d88 <HAL_RCC_OscConfig+0x26c>)
 8004c70:	685b      	ldr	r3, [r3, #4]
 8004c72:	f403 3380 	and.w	r3, r3, #65536	@ 0x10000
 8004c76:	2b00      	cmp	r3, #0
 8004c78:	d116      	bne.n	8004ca8 <HAL_RCC_OscConfig+0x18c>
    {
      /* When HSI is used as system clock it will not disabled */
      if ((__HAL_RCC_GET_FLAG(RCC_FLAG_HSIRDY) != RESET) && (RCC_OscInitStruct->HSIState != RCC_HSI_ON))
 8004c7a:	4b43      	ldr	r3, [pc, #268]	@ (8004d88 <HAL_RCC_OscConfig+0x26c>)
 8004c7c:	681b      	ldr	r3, [r3, #0]
 8004c7e:	f003 0302 	and.w	r3, r3, #2
 8004c82:	2b00      	cmp	r3, #0
 8004c84:	d005      	beq.n	8004c92 <HAL_RCC_OscConfig+0x176>
 8004c86:	687b      	ldr	r3, [r7, #4]
 8004c88:	691b      	ldr	r3, [r3, #16]
 8004c8a:	2b01      	cmp	r3, #1
 8004c8c:	d001      	beq.n	8004c92 <HAL_RCC_OscConfig+0x176>
      {
        return HAL_ERROR;
 8004c8e:	2301      	movs	r3, #1
 8004c90:	e1c0      	b.n	8005014 <HAL_RCC_OscConfig+0x4f8>
      }
      /* Otherwise, just the calibration is allowed */
      else
      {
        /* Adjusts the Internal High Speed oscillator (HSI) calibration value.*/
        __HAL_RCC_HSI_CALIBRATIONVALUE_ADJUST(RCC_OscInitStruct->HSICalibrationValue);
 8004c92:	4b3d      	ldr	r3, [pc, #244]	@ (8004d88 <HAL_RCC_OscConfig+0x26c>)
 8004c94:	681b      	ldr	r3, [r3, #0]
 8004c96:	f023 02f8 	bic.w	r2, r3, #248	@ 0xf8
 8004c9a:	687b      	ldr	r3, [r7, #4]
 8004c9c:	695b      	ldr	r3, [r3, #20]
 8004c9e:	00db      	lsls	r3, r3, #3
 8004ca0:	4939      	ldr	r1, [pc, #228]	@ (8004d88 <HAL_RCC_OscConfig+0x26c>)
 8004ca2:	4313      	orrs	r3, r2
 8004ca4:	600b      	str	r3, [r1, #0]
      if ((__HAL_RCC_GET_FLAG(RCC_FLAG_HSIRDY) != RESET) && (RCC_OscInitStruct->HSIState != RCC_HSI_ON))
 8004ca6:	e03a      	b.n	8004d1e <HAL_RCC_OscConfig+0x202>
      }
    }
    else
    {
      /* Check the HSI State */
      if (RCC_OscInitStruct->HSIState != RCC_HSI_OFF)
 8004ca8:	687b      	ldr	r3, [r7, #4]
 8004caa:	691b      	ldr	r3, [r3, #16]
 8004cac:	2b00      	cmp	r3, #0
 8004cae:	d020      	beq.n	8004cf2 <HAL_RCC_OscConfig+0x1d6>
      {
        /* Enable the Internal High Speed oscillator (HSI). */
        __HAL_RCC_HSI_ENABLE();
 8004cb0:	4b36      	ldr	r3, [pc, #216]	@ (8004d8c <HAL_RCC_OscConfig+0x270>)
 8004cb2:	2201      	movs	r2, #1
 8004cb4:	601a      	str	r2, [r3, #0]

        /* Get Start Tick */
        tickstart = HAL_GetTick();
 8004cb6:	f7ff f94f 	bl	8003f58 <HAL_GetTick>
 8004cba:	6138      	str	r0, [r7, #16]

        /* Wait till HSI is ready */
        while (__HAL_RCC_GET_FLAG(RCC_FLAG_HSIRDY) == RESET)
 8004cbc:	e008      	b.n	8004cd0 <HAL_RCC_OscConfig+0x1b4>
        {
          if ((HAL_GetTick() - tickstart) > HSI_TIMEOUT_VALUE)
 8004cbe:	f7ff f94b 	bl	8003f58 <HAL_GetTick>
 8004cc2:	4602      	mov	r2, r0
 8004cc4:	693b      	ldr	r3, [r7, #16]
 8004cc6:	1ad3      	subs	r3, r2, r3
 8004cc8:	2b02      	cmp	r3, #2
 8004cca:	d901      	bls.n	8004cd0 <HAL_RCC_OscConfig+0x1b4>
          {
            return HAL_TIMEOUT;
 8004ccc:	2303      	movs	r3, #3
 8004cce:	e1a1      	b.n	8005014 <HAL_RCC_OscConfig+0x4f8>
        while (__HAL_RCC_GET_FLAG(RCC_FLAG_HSIRDY) == RESET)
 8004cd0:	4b2d      	ldr	r3, [pc, #180]	@ (8004d88 <HAL_RCC_OscConfig+0x26c>)
 8004cd2:	681b      	ldr	r3, [r3, #0]
 8004cd4:	f003 0302 	and.w	r3, r3, #2
 8004cd8:	2b00      	cmp	r3, #0
 8004cda:	d0f0      	beq.n	8004cbe <HAL_RCC_OscConfig+0x1a2>
          }
        }

        /* Adjusts the Internal High Speed oscillator (HSI) calibration value.*/
        __HAL_RCC_HSI_CALIBRATIONVALUE_ADJUST(RCC_OscInitStruct->HSICalibrationValue);
 8004cdc:	4b2a      	ldr	r3, [pc, #168]	@ (8004d88 <HAL_RCC_OscConfig+0x26c>)
 8004cde:	681b      	ldr	r3, [r3, #0]
 8004ce0:	f023 02f8 	bic.w	r2, r3, #248	@ 0xf8
 8004ce4:	687b      	ldr	r3, [r7, #4]
 8004ce6:	695b      	ldr	r3, [r3, #20]
 8004ce8:	00db      	lsls	r3, r3, #3
 8004cea:	4927      	ldr	r1, [pc, #156]	@ (8004d88 <HAL_RCC_OscConfig+0x26c>)
 8004cec:	4313      	orrs	r3, r2
 8004cee:	600b      	str	r3, [r1, #0]
 8004cf0:	e015      	b.n	8004d1e <HAL_RCC_OscConfig+0x202>
      }
      else
      {
        /* Disable the Internal High Speed oscillator (HSI). */
        __HAL_RCC_HSI_DISABLE();
 8004cf2:	4b26      	ldr	r3, [pc, #152]	@ (8004d8c <HAL_RCC_OscConfig+0x270>)
 8004cf4:	2200      	movs	r2, #0
 8004cf6:	601a      	str	r2, [r3, #0]

        /* Get Start Tick */
        tickstart = HAL_GetTick();
 8004cf8:	f7ff f92e 	bl	8003f58 <HAL_GetTick>
 8004cfc:	6138      	str	r0, [r7, #16]

        /* Wait till HSI is disabled */
        while (__HAL_RCC_GET_FLAG(RCC_FLAG_HSIRDY) != RESET)
 8004cfe:	e008      	b.n	8004d12 <HAL_RCC_OscConfig+0x1f6>
        {
          if ((HAL_GetTick() - tickstart) > HSI_TIMEOUT_VALUE)
 8004d00:	f7ff f92a 	bl	8003f58 <HAL_GetTick>
 8004d04:	4602      	mov	r2, r0
 8004d06:	693b      	ldr	r3, [r7, #16]
 8004d08:	1ad3      	subs	r3, r2, r3
 8004d0a:	2b02      	cmp	r3, #2
 8004d0c:	d901      	bls.n	8004d12 <HAL_RCC_OscConfig+0x1f6>
          {
            return HAL_TIMEOUT;
 8004d0e:	2303      	movs	r3, #3
 8004d10:	e180      	b.n	8005014 <HAL_RCC_OscConfig+0x4f8>
        while (__HAL_RCC_GET_FLAG(RCC_FLAG_HSIRDY) != RESET)
 8004d12:	4b1d      	ldr	r3, [pc, #116]	@ (8004d88 <HAL_RCC_OscConfig+0x26c>)
 8004d14:	681b      	ldr	r3, [r3, #0]
 8004d16:	f003 0302 	and.w	r3, r3, #2
 8004d1a:	2b00      	cmp	r3, #0
 8004d1c:	d1f0      	bne.n	8004d00 <HAL_RCC_OscConfig+0x1e4>
        }
      }
    }
  }
  /*------------------------------ LSI Configuration -------------------------*/
  if (((RCC_OscInitStruct->OscillatorType) & RCC_OSCILLATORTYPE_LSI) == RCC_OSCILLATORTYPE_LSI)
 8004d1e:	687b      	ldr	r3, [r7, #4]
 8004d20:	681b      	ldr	r3, [r3, #0]
 8004d22:	f003 0308 	and.w	r3, r3, #8
 8004d26:	2b00      	cmp	r3, #0
 8004d28:	d03a      	beq.n	8004da0 <HAL_RCC_OscConfig+0x284>
  {
    /* Check the parameters */
    assert_param(IS_RCC_LSI(RCC_OscInitStruct->LSIState));

    /* Check the LSI State */
    if (RCC_OscInitStruct->LSIState != RCC_LSI_OFF)
 8004d2a:	687b      	ldr	r3, [r7, #4]
 8004d2c:	699b      	ldr	r3, [r3, #24]
 8004d2e:	2b00      	cmp	r3, #0
 8004d30:	d019      	beq.n	8004d66 <HAL_RCC_OscConfig+0x24a>
    {
      /* Enable the Internal Low Speed oscillator (LSI). */
      __HAL_RCC_LSI_ENABLE();
 8004d32:	4b17      	ldr	r3, [pc, #92]	@ (8004d90 <HAL_RCC_OscConfig+0x274>)
 8004d34:	2201      	movs	r2, #1
 8004d36:	601a      	str	r2, [r3, #0]

      /* Get Start Tick */
      tickstart = HAL_GetTick();
 8004d38:	f7ff f90e 	bl	8003f58 <HAL_GetTick>
 8004d3c:	6138      	str	r0, [r7, #16]

      /* Wait till LSI is ready */
      while (__HAL_RCC_GET_FLAG(RCC_FLAG_LSIRDY) == RESET)
 8004d3e:	e008      	b.n	8004d52 <HAL_RCC_OscConfig+0x236>
      {
        if ((HAL_GetTick() - tickstart) > LSI_TIMEOUT_VALUE)
 8004d40:	f7ff f90a 	bl	8003f58 <HAL_GetTick>
 8004d44:	4602      	mov	r2, r0
 8004d46:	693b      	ldr	r3, [r7, #16]
 8004d48:	1ad3      	subs	r3, r2, r3
 8004d4a:	2b02      	cmp	r3, #2
 8004d4c:	d901      	bls.n	8004d52 <HAL_RCC_OscConfig+0x236>
        {
          return HAL_TIMEOUT;
 8004d4e:	2303      	movs	r3, #3
 8004d50:	e160      	b.n	8005014 <HAL_RCC_OscConfig+0x4f8>
      while (__HAL_RCC_GET_FLAG(RCC_FLAG_LSIRDY) == RESET)
 8004d52:	4b0d      	ldr	r3, [pc, #52]	@ (8004d88 <HAL_RCC_OscConfig+0x26c>)
 8004d54:	6a5b      	ldr	r3, [r3, #36]	@ 0x24
 8004d56:	f003 0302 	and.w	r3, r3, #2
 8004d5a:	2b00      	cmp	r3, #0
 8004d5c:	d0f0      	beq.n	8004d40 <HAL_RCC_OscConfig+0x224>
        }
      }
      /*  To have a fully stabilized clock in the specified range, a software delay of 1ms
          should be added.*/
      RCC_Delay(1);
 8004d5e:	2001      	movs	r0, #1
 8004d60:	f000 face 	bl	8005300 <RCC_Delay>
 8004d64:	e01c      	b.n	8004da0 <HAL_RCC_OscConfig+0x284>
    }
    else
    {
      /* Disable the Internal Low Speed oscillator (LSI). */
      __HAL_RCC_LSI_DISABLE();
 8004d66:	4b0a      	ldr	r3, [pc, #40]	@ (8004d90 <HAL_RCC_OscConfig+0x274>)
 8004d68:	2200      	movs	r2, #0
 8004d6a:	601a      	str	r2, [r3, #0]

      /* Get Start Tick */
      tickstart = HAL_GetTick();
 8004d6c:	f7ff f8f4 	bl	8003f58 <HAL_GetTick>
 8004d70:	6138      	str	r0, [r7, #16]

      /* Wait till LSI is disabled */
      while (__HAL_RCC_GET_FLAG(RCC_FLAG_LSIRDY) != RESET)
 8004d72:	e00f      	b.n	8004d94 <HAL_RCC_OscConfig+0x278>
      {
        if ((HAL_GetTick() - tickstart) > LSI_TIMEOUT_VALUE)
 8004d74:	f7ff f8f0 	bl	8003f58 <HAL_GetTick>
 8004d78:	4602      	mov	r2, r0
 8004d7a:	693b      	ldr	r3, [r7, #16]
 8004d7c:	1ad3      	subs	r3, r2, r3
 8004d7e:	2b02      	cmp	r3, #2
 8004d80:	d908      	bls.n	8004d94 <HAL_RCC_OscConfig+0x278>
        {
          return HAL_TIMEOUT;
 8004d82:	2303      	movs	r3, #3
 8004d84:	e146      	b.n	8005014 <HAL_RCC_OscConfig+0x4f8>
 8004d86:	bf00      	nop
 8004d88:	40021000 	.word	0x40021000
 8004d8c:	42420000 	.word	0x42420000
 8004d90:	42420480 	.word	0x42420480
      while (__HAL_RCC_GET_FLAG(RCC_FLAG_LSIRDY) != RESET)
 8004d94:	4b92      	ldr	r3, [pc, #584]	@ (8004fe0 <HAL_RCC_OscConfig+0x4c4>)
 8004d96:	6a5b      	ldr	r3, [r3, #36]	@ 0x24
 8004d98:	f003 0302 	and.w	r3, r3, #2
 8004d9c:	2b00      	cmp	r3, #0
 8004d9e:	d1e9      	bne.n	8004d74 <HAL_RCC_OscConfig+0x258>
        }
      }
    }
  }
  /*------------------------------ LSE Configuration -------------------------*/
  if (((RCC_OscInitStruct->OscillatorType) & RCC_OSCILLATORTYPE_LSE) == RCC_OSCILLATORTYPE_LSE)
 8004da0:	687b      	ldr	r3, [r7, #4]
 8004da2:	681b      	ldr	r3, [r3, #0]
 8004da4:	f003 0304 	and.w	r3, r3, #4
 8004da8:	2b00      	cmp	r3, #0
 8004daa:	f000 80a6 	beq.w	8004efa <HAL_RCC_OscConfig+0x3de>
  {
    FlagStatus       pwrclkchanged = RESET;
 8004dae:	2300      	movs	r3, #0
 8004db0:	75fb      	strb	r3, [r7, #23]
    /* Check the parameters */
    assert_param(IS_RCC_LSE(RCC_OscInitStruct->LSEState));

    /* Update LSE configuration in Backup Domain control register    */
    /* Requires to enable write access to Backup Domain of necessary */
    if (__HAL_RCC_PWR_IS_CLK_DISABLED())
 8004db2:	4b8b      	ldr	r3, [pc, #556]	@ (8004fe0 <HAL_RCC_OscConfig+0x4c4>)
 8004db4:	69db      	ldr	r3, [r3, #28]
 8004db6:	f003 5380 	and.w	r3, r3, #268435456	@ 0x10000000
 8004dba:	2b00      	cmp	r3, #0
 8004dbc:	d10d      	bne.n	8004dda <HAL_RCC_OscConfig+0x2be>
    {
      __HAL_RCC_PWR_CLK_ENABLE();
 8004dbe:	4b88      	ldr	r3, [pc, #544]	@ (8004fe0 <HAL_RCC_OscConfig+0x4c4>)
 8004dc0:	69db      	ldr	r3, [r3, #28]
 8004dc2:	4a87      	ldr	r2, [pc, #540]	@ (8004fe0 <HAL_RCC_OscConfig+0x4c4>)
 8004dc4:	f043 5380 	orr.w	r3, r3, #268435456	@ 0x10000000
 8004dc8:	61d3      	str	r3, [r2, #28]
 8004dca:	4b85      	ldr	r3, [pc, #532]	@ (8004fe0 <HAL_RCC_OscConfig+0x4c4>)
 8004dcc:	69db      	ldr	r3, [r3, #28]
 8004dce:	f003 5380 	and.w	r3, r3, #268435456	@ 0x10000000
 8004dd2:	60bb      	str	r3, [r7, #8]
 8004dd4:	68bb      	ldr	r3, [r7, #8]
      pwrclkchanged = SET;
 8004dd6:	2301      	movs	r3, #1
 8004dd8:	75fb      	strb	r3, [r7, #23]
    }

    if (HAL_IS_BIT_CLR(PWR->CR, PWR_CR_DBP))
 8004dda:	4b82      	ldr	r3, [pc, #520]	@ (8004fe4 <HAL_RCC_OscConfig+0x4c8>)
 8004ddc:	681b      	ldr	r3, [r3, #0]
 8004dde:	f403 7380 	and.w	r3, r3, #256	@ 0x100
 8004de2:	2b00      	cmp	r3, #0
 8004de4:	d118      	bne.n	8004e18 <HAL_RCC_OscConfig+0x2fc>
    {
      /* Enable write access to Backup domain */
      SET_BIT(PWR->CR, PWR_CR_DBP);
 8004de6:	4b7f      	ldr	r3, [pc, #508]	@ (8004fe4 <HAL_RCC_OscConfig+0x4c8>)
 8004de8:	681b      	ldr	r3, [r3, #0]
 8004dea:	4a7e      	ldr	r2, [pc, #504]	@ (8004fe4 <HAL_RCC_OscConfig+0x4c8>)
 8004dec:	f443 7380 	orr.w	r3, r3, #256	@ 0x100
 8004df0:	6013      	str	r3, [r2, #0]

      /* Wait for Backup domain Write protection disable */
      tickstart = HAL_GetTick();
 8004df2:	f7ff f8b1 	bl	8003f58 <HAL_GetTick>
 8004df6:	6138      	str	r0, [r7, #16]

      while (HAL_IS_BIT_CLR(PWR->CR, PWR_CR_DBP))
 8004df8:	e008      	b.n	8004e0c <HAL_RCC_OscConfig+0x2f0>
      {
        if ((HAL_GetTick() - tickstart) > RCC_DBP_TIMEOUT_VALUE)
 8004dfa:	f7ff f8ad 	bl	8003f58 <HAL_GetTick>
 8004dfe:	4602      	mov	r2, r0
 8004e00:	693b      	ldr	r3, [r7, #16]
 8004e02:	1ad3      	subs	r3, r2, r3
 8004e04:	2b64      	cmp	r3, #100	@ 0x64
 8004e06:	d901      	bls.n	8004e0c <HAL_RCC_OscConfig+0x2f0>
        {
          return HAL_TIMEOUT;
 8004e08:	2303      	movs	r3, #3
 8004e0a:	e103      	b.n	8005014 <HAL_RCC_OscConfig+0x4f8>
      while (HAL_IS_BIT_CLR(PWR->CR, PWR_CR_DBP))
 8004e0c:	4b75      	ldr	r3, [pc, #468]	@ (8004fe4 <HAL_RCC_OscConfig+0x4c8>)
 8004e0e:	681b      	ldr	r3, [r3, #0]
 8004e10:	f403 7380 	and.w	r3, r3, #256	@ 0x100
 8004e14:	2b00      	cmp	r3, #0
 8004e16:	d0f0      	beq.n	8004dfa <HAL_RCC_OscConfig+0x2de>
        }
      }
    }

    /* Set the new LSE configuration -----------------------------------------*/
    __HAL_RCC_LSE_CONFIG(RCC_OscInitStruct->LSEState);
 8004e18:	687b      	ldr	r3, [r7, #4]
 8004e1a:	68db      	ldr	r3, [r3, #12]
 8004e1c:	2b01      	cmp	r3, #1
 8004e1e:	d106      	bne.n	8004e2e <HAL_RCC_OscConfig+0x312>
 8004e20:	4b6f      	ldr	r3, [pc, #444]	@ (8004fe0 <HAL_RCC_OscConfig+0x4c4>)
 8004e22:	6a1b      	ldr	r3, [r3, #32]
 8004e24:	4a6e      	ldr	r2, [pc, #440]	@ (8004fe0 <HAL_RCC_OscConfig+0x4c4>)
 8004e26:	f043 0301 	orr.w	r3, r3, #1
 8004e2a:	6213      	str	r3, [r2, #32]
 8004e2c:	e02d      	b.n	8004e8a <HAL_RCC_OscConfig+0x36e>
 8004e2e:	687b      	ldr	r3, [r7, #4]
 8004e30:	68db      	ldr	r3, [r3, #12]
 8004e32:	2b00      	cmp	r3, #0
 8004e34:	d10c      	bne.n	8004e50 <HAL_RCC_OscConfig+0x334>
 8004e36:	4b6a      	ldr	r3, [pc, #424]	@ (8004fe0 <HAL_RCC_OscConfig+0x4c4>)
 8004e38:	6a1b      	ldr	r3, [r3, #32]
 8004e3a:	4a69      	ldr	r2, [pc, #420]	@ (8004fe0 <HAL_RCC_OscConfig+0x4c4>)
 8004e3c:	f023 0301 	bic.w	r3, r3, #1
 8004e40:	6213      	str	r3, [r2, #32]
 8004e42:	4b67      	ldr	r3, [pc, #412]	@ (8004fe0 <HAL_RCC_OscConfig+0x4c4>)
 8004e44:	6a1b      	ldr	r3, [r3, #32]
 8004e46:	4a66      	ldr	r2, [pc, #408]	@ (8004fe0 <HAL_RCC_OscConfig+0x4c4>)
 8004e48:	f023 0304 	bic.w	r3, r3, #4
 8004e4c:	6213      	str	r3, [r2, #32]
 8004e4e:	e01c      	b.n	8004e8a <HAL_RCC_OscConfig+0x36e>
 8004e50:	687b      	ldr	r3, [r7, #4]
 8004e52:	68db      	ldr	r3, [r3, #12]
 8004e54:	2b05      	cmp	r3, #5
 8004e56:	d10c      	bne.n	8004e72 <HAL_RCC_OscConfig+0x356>
 8004e58:	4b61      	ldr	r3, [pc, #388]	@ (8004fe0 <HAL_RCC_OscConfig+0x4c4>)
 8004e5a:	6a1b      	ldr	r3, [r3, #32]
 8004e5c:	4a60      	ldr	r2, [pc, #384]	@ (8004fe0 <HAL_RCC_OscConfig+0x4c4>)
 8004e5e:	f043 0304 	orr.w	r3, r3, #4
 8004e62:	6213      	str	r3, [r2, #32]
 8004e64:	4b5e      	ldr	r3, [pc, #376]	@ (8004fe0 <HAL_RCC_OscConfig+0x4c4>)
 8004e66:	6a1b      	ldr	r3, [r3, #32]
 8004e68:	4a5d      	ldr	r2, [pc, #372]	@ (8004fe0 <HAL_RCC_OscConfig+0x4c4>)
 8004e6a:	f043 0301 	orr.w	r3, r3, #1
 8004e6e:	6213      	str	r3, [r2, #32]
 8004e70:	e00b      	b.n	8004e8a <HAL_RCC_OscConfig+0x36e>
 8004e72:	4b5b      	ldr	r3, [pc, #364]	@ (8004fe0 <HAL_RCC_OscConfig+0x4c4>)
 8004e74:	6a1b      	ldr	r3, [r3, #32]
 8004e76:	4a5a      	ldr	r2, [pc, #360]	@ (8004fe0 <HAL_RCC_OscConfig+0x4c4>)
 8004e78:	f023 0301 	bic.w	r3, r3, #1
 8004e7c:	6213      	str	r3, [r2, #32]
 8004e7e:	4b58      	ldr	r3, [pc, #352]	@ (8004fe0 <HAL_RCC_OscConfig+0x4c4>)
 8004e80:	6a1b      	ldr	r3, [r3, #32]
 8004e82:	4a57      	ldr	r2, [pc, #348]	@ (8004fe0 <HAL_RCC_OscConfig+0x4c4>)
 8004e84:	f023 0304 	bic.w	r3, r3, #4
 8004e88:	6213      	str	r3, [r2, #32]
    /* Check the LSE State */
    if (RCC_OscInitStruct->LSEState != RCC_LSE_OFF)
 8004e8a:	687b      	ldr	r3, [r7, #4]
 8004e8c:	68db      	ldr	r3, [r3, #12]
 8004e8e:	2b00      	cmp	r3, #0
 8004e90:	d015      	beq.n	8004ebe <HAL_RCC_OscConfig+0x3a2>
    {
      /* Get Start Tick */
      tickstart = HAL_GetTick();
 8004e92:	f7ff f861 	bl	8003f58 <HAL_GetTick>
 8004e96:	6138      	str	r0, [r7, #16]

      /* Wait till LSE is ready */
      while (__HAL_RCC_GET_FLAG(RCC_FLAG_LSERDY) == RESET)
 8004e98:	e00a      	b.n	8004eb0 <HAL_RCC_OscConfig+0x394>
      {
        if ((HAL_GetTick() - tickstart) > RCC_LSE_TIMEOUT_VALUE)
 8004e9a:	f7ff f85d 	bl	8003f58 <HAL_GetTick>
 8004e9e:	4602      	mov	r2, r0
 8004ea0:	693b      	ldr	r3, [r7, #16]
 8004ea2:	1ad3      	subs	r3, r2, r3
 8004ea4:	f241 3288 	movw	r2, #5000	@ 0x1388
 8004ea8:	4293      	cmp	r3, r2
 8004eaa:	d901      	bls.n	8004eb0 <HAL_RCC_OscConfig+0x394>
        {
          return HAL_TIMEOUT;
 8004eac:	2303      	movs	r3, #3
 8004eae:	e0b1      	b.n	8005014 <HAL_RCC_OscConfig+0x4f8>
      while (__HAL_RCC_GET_FLAG(RCC_FLAG_LSERDY) == RESET)
 8004eb0:	4b4b      	ldr	r3, [pc, #300]	@ (8004fe0 <HAL_RCC_OscConfig+0x4c4>)
 8004eb2:	6a1b      	ldr	r3, [r3, #32]
 8004eb4:	f003 0302 	and.w	r3, r3, #2
 8004eb8:	2b00      	cmp	r3, #0
 8004eba:	d0ee      	beq.n	8004e9a <HAL_RCC_OscConfig+0x37e>
 8004ebc:	e014      	b.n	8004ee8 <HAL_RCC_OscConfig+0x3cc>
      }
    }
    else
    {
      /* Get Start Tick */
      tickstart = HAL_GetTick();
 8004ebe:	f7ff f84b 	bl	8003f58 <HAL_GetTick>
 8004ec2:	6138      	str	r0, [r7, #16]

      /* Wait till LSE is disabled */
      while (__HAL_RCC_GET_FLAG(RCC_FLAG_LSERDY) != RESET)
 8004ec4:	e00a      	b.n	8004edc <HAL_RCC_OscConfig+0x3c0>
      {
        if ((HAL_GetTick() - tickstart) > RCC_LSE_TIMEOUT_VALUE)
 8004ec6:	f7ff f847 	bl	8003f58 <HAL_GetTick>
 8004eca:	4602      	mov	r2, r0
 8004ecc:	693b      	ldr	r3, [r7, #16]
 8004ece:	1ad3      	subs	r3, r2, r3
 8004ed0:	f241 3288 	movw	r2, #5000	@ 0x1388
 8004ed4:	4293      	cmp	r3, r2
 8004ed6:	d901      	bls.n	8004edc <HAL_RCC_OscConfig+0x3c0>
        {
          return HAL_TIMEOUT;
 8004ed8:	2303      	movs	r3, #3
 8004eda:	e09b      	b.n	8005014 <HAL_RCC_OscConfig+0x4f8>
      while (__HAL_RCC_GET_FLAG(RCC_FLAG_LSERDY) != RESET)
 8004edc:	4b40      	ldr	r3, [pc, #256]	@ (8004fe0 <HAL_RCC_OscConfig+0x4c4>)
 8004ede:	6a1b      	ldr	r3, [r3, #32]
 8004ee0:	f003 0302 	and.w	r3, r3, #2
 8004ee4:	2b00      	cmp	r3, #0
 8004ee6:	d1ee      	bne.n	8004ec6 <HAL_RCC_OscConfig+0x3aa>
        }
      }
    }

    /* Require to disable power clock if necessary */
    if (pwrclkchanged == SET)
 8004ee8:	7dfb      	ldrb	r3, [r7, #23]
 8004eea:	2b01      	cmp	r3, #1
 8004eec:	d105      	bne.n	8004efa <HAL_RCC_OscConfig+0x3de>
    {
      __HAL_RCC_PWR_CLK_DISABLE();
 8004eee:	4b3c      	ldr	r3, [pc, #240]	@ (8004fe0 <HAL_RCC_OscConfig+0x4c4>)
 8004ef0:	69db      	ldr	r3, [r3, #28]
 8004ef2:	4a3b      	ldr	r2, [pc, #236]	@ (8004fe0 <HAL_RCC_OscConfig+0x4c4>)
 8004ef4:	f023 5380 	bic.w	r3, r3, #268435456	@ 0x10000000
 8004ef8:	61d3      	str	r3, [r2, #28]

#endif /* RCC_CR_PLL2ON */
  /*-------------------------------- PLL Configuration -----------------------*/
  /* Check the parameters */
  assert_param(IS_RCC_PLL(RCC_OscInitStruct->PLL.PLLState));
  if ((RCC_OscInitStruct->PLL.PLLState) != RCC_PLL_NONE)
 8004efa:	687b      	ldr	r3, [r7, #4]
 8004efc:	69db      	ldr	r3, [r3, #28]
 8004efe:	2b00      	cmp	r3, #0
 8004f00:	f000 8087 	beq.w	8005012 <HAL_RCC_OscConfig+0x4f6>
  {
    /* Check if the PLL is used as system clock or not */
    if (__HAL_RCC_GET_SYSCLK_SOURCE() != RCC_SYSCLKSOURCE_STATUS_PLLCLK)
 8004f04:	4b36      	ldr	r3, [pc, #216]	@ (8004fe0 <HAL_RCC_OscConfig+0x4c4>)
 8004f06:	685b      	ldr	r3, [r3, #4]
 8004f08:	f003 030c 	and.w	r3, r3, #12
 8004f0c:	2b08      	cmp	r3, #8
 8004f0e:	d061      	beq.n	8004fd4 <HAL_RCC_OscConfig+0x4b8>
    {
      if ((RCC_OscInitStruct->PLL.PLLState) == RCC_PLL_ON)
 8004f10:	687b      	ldr	r3, [r7, #4]
 8004f12:	69db      	ldr	r3, [r3, #28]
 8004f14:	2b02      	cmp	r3, #2
 8004f16:	d146      	bne.n	8004fa6 <HAL_RCC_OscConfig+0x48a>
        /* Check the parameters */
        assert_param(IS_RCC_PLLSOURCE(RCC_OscInitStruct->PLL.PLLSource));
        assert_param(IS_RCC_PLL_MUL(RCC_OscInitStruct->PLL.PLLMUL));

        /* Disable the main PLL. */
        __HAL_RCC_PLL_DISABLE();
 8004f18:	4b33      	ldr	r3, [pc, #204]	@ (8004fe8 <HAL_RCC_OscConfig+0x4cc>)
 8004f1a:	2200      	movs	r2, #0
 8004f1c:	601a      	str	r2, [r3, #0]

        /* Get Start Tick */
        tickstart = HAL_GetTick();
 8004f1e:	f7ff f81b 	bl	8003f58 <HAL_GetTick>
 8004f22:	6138      	str	r0, [r7, #16]

        /* Wait till PLL is disabled */
        while (__HAL_RCC_GET_FLAG(RCC_FLAG_PLLRDY)  != RESET)
 8004f24:	e008      	b.n	8004f38 <HAL_RCC_OscConfig+0x41c>
        {
          if ((HAL_GetTick() - tickstart) > PLL_TIMEOUT_VALUE)
 8004f26:	f7ff f817 	bl	8003f58 <HAL_GetTick>
 8004f2a:	4602      	mov	r2, r0
 8004f2c:	693b      	ldr	r3, [r7, #16]
 8004f2e:	1ad3      	subs	r3, r2, r3
 8004f30:	2b02      	cmp	r3, #2
 8004f32:	d901      	bls.n	8004f38 <HAL_RCC_OscConfig+0x41c>
          {
            return HAL_TIMEOUT;
 8004f34:	2303      	movs	r3, #3
 8004f36:	e06d      	b.n	8005014 <HAL_RCC_OscConfig+0x4f8>
        while (__HAL_RCC_GET_FLAG(RCC_FLAG_PLLRDY)  != RESET)
 8004f38:	4b29      	ldr	r3, [pc, #164]	@ (8004fe0 <HAL_RCC_OscConfig+0x4c4>)
 8004f3a:	681b      	ldr	r3, [r3, #0]
 8004f3c:	f003 7300 	and.w	r3, r3, #33554432	@ 0x2000000
 8004f40:	2b00      	cmp	r3, #0
 8004f42:	d1f0      	bne.n	8004f26 <HAL_RCC_OscConfig+0x40a>
          }
        }

        /* Configure the HSE prediv factor --------------------------------*/
        /* It can be written only when the PLL is disabled. Not used in PLL source is different than HSE */
        if (RCC_OscInitStruct->PLL.PLLSource == RCC_PLLSOURCE_HSE)
 8004f44:	687b      	ldr	r3, [r7, #4]
 8004f46:	6a1b      	ldr	r3, [r3, #32]
 8004f48:	f5b3 3f80 	cmp.w	r3, #65536	@ 0x10000
 8004f4c:	d108      	bne.n	8004f60 <HAL_RCC_OscConfig+0x444>
          /* Set PREDIV1 source */
          SET_BIT(RCC->CFGR2, RCC_OscInitStruct->Prediv1Source);
#endif /* RCC_CFGR2_PREDIV1SRC */

          /* Set PREDIV1 Value */
          __HAL_RCC_HSE_PREDIV_CONFIG(RCC_OscInitStruct->HSEPredivValue);
 8004f4e:	4b24      	ldr	r3, [pc, #144]	@ (8004fe0 <HAL_RCC_OscConfig+0x4c4>)
 8004f50:	685b      	ldr	r3, [r3, #4]
 8004f52:	f423 3200 	bic.w	r2, r3, #131072	@ 0x20000
 8004f56:	687b      	ldr	r3, [r7, #4]
 8004f58:	689b      	ldr	r3, [r3, #8]
 8004f5a:	4921      	ldr	r1, [pc, #132]	@ (8004fe0 <HAL_RCC_OscConfig+0x4c4>)
 8004f5c:	4313      	orrs	r3, r2
 8004f5e:	604b      	str	r3, [r1, #4]
        }

        /* Configure the main PLL clock source and multiplication factors. */
        __HAL_RCC_PLL_CONFIG(RCC_OscInitStruct->PLL.PLLSource,
 8004f60:	4b1f      	ldr	r3, [pc, #124]	@ (8004fe0 <HAL_RCC_OscConfig+0x4c4>)
 8004f62:	685b      	ldr	r3, [r3, #4]
 8004f64:	f423 1274 	bic.w	r2, r3, #3997696	@ 0x3d0000
 8004f68:	687b      	ldr	r3, [r7, #4]
 8004f6a:	6a19      	ldr	r1, [r3, #32]
 8004f6c:	687b      	ldr	r3, [r7, #4]
 8004f6e:	6a5b      	ldr	r3, [r3, #36]	@ 0x24
 8004f70:	430b      	orrs	r3, r1
 8004f72:	491b      	ldr	r1, [pc, #108]	@ (8004fe0 <HAL_RCC_OscConfig+0x4c4>)
 8004f74:	4313      	orrs	r3, r2
 8004f76:	604b      	str	r3, [r1, #4]
                             RCC_OscInitStruct->PLL.PLLMUL);
        /* Enable the main PLL. */
        __HAL_RCC_PLL_ENABLE();
 8004f78:	4b1b      	ldr	r3, [pc, #108]	@ (8004fe8 <HAL_RCC_OscConfig+0x4cc>)
 8004f7a:	2201      	movs	r2, #1
 8004f7c:	601a      	str	r2, [r3, #0]

        /* Get Start Tick */
        tickstart = HAL_GetTick();
 8004f7e:	f7fe ffeb 	bl	8003f58 <HAL_GetTick>
 8004f82:	6138      	str	r0, [r7, #16]

        /* Wait till PLL is ready */
        while (__HAL_RCC_GET_FLAG(RCC_FLAG_PLLRDY)  == RESET)
 8004f84:	e008      	b.n	8004f98 <HAL_RCC_OscConfig+0x47c>
        {
          if ((HAL_GetTick() - tickstart) > PLL_TIMEOUT_VALUE)
 8004f86:	f7fe ffe7 	bl	8003f58 <HAL_GetTick>
 8004f8a:	4602      	mov	r2, r0
 8004f8c:	693b      	ldr	r3, [r7, #16]
 8004f8e:	1ad3      	subs	r3, r2, r3
 8004f90:	2b02      	cmp	r3, #2
 8004f92:	d901      	bls.n	8004f98 <HAL_RCC_OscConfig+0x47c>
          {
            return HAL_TIMEOUT;
 8004f94:	2303      	movs	r3, #3
 8004f96:	e03d      	b.n	8005014 <HAL_RCC_OscConfig+0x4f8>
        while (__HAL_RCC_GET_FLAG(RCC_FLAG_PLLRDY)  == RESET)
 8004f98:	4b11      	ldr	r3, [pc, #68]	@ (8004fe0 <HAL_RCC_OscConfig+0x4c4>)
 8004f9a:	681b      	ldr	r3, [r3, #0]
 8004f9c:	f003 7300 	and.w	r3, r3, #33554432	@ 0x2000000
 8004fa0:	2b00      	cmp	r3, #0
 8004fa2:	d0f0      	beq.n	8004f86 <HAL_RCC_OscConfig+0x46a>
 8004fa4:	e035      	b.n	8005012 <HAL_RCC_OscConfig+0x4f6>
        }
      }
      else
      {
        /* Disable the main PLL. */
        __HAL_RCC_PLL_DISABLE();
 8004fa6:	4b10      	ldr	r3, [pc, #64]	@ (8004fe8 <HAL_RCC_OscConfig+0x4cc>)
 8004fa8:	2200      	movs	r2, #0
 8004faa:	601a      	str	r2, [r3, #0]

        /* Get Start Tick */
        tickstart = HAL_GetTick();
 8004fac:	f7fe ffd4 	bl	8003f58 <HAL_GetTick>
 8004fb0:	6138      	str	r0, [r7, #16]

        /* Wait till PLL is disabled */
        while (__HAL_RCC_GET_FLAG(RCC_FLAG_PLLRDY)  != RESET)
 8004fb2:	e008      	b.n	8004fc6 <HAL_RCC_OscConfig+0x4aa>
        {
          if ((HAL_GetTick() - tickstart) > PLL_TIMEOUT_VALUE)
 8004fb4:	f7fe ffd0 	bl	8003f58 <HAL_GetTick>
 8004fb8:	4602      	mov	r2, r0
 8004fba:	693b      	ldr	r3, [r7, #16]
 8004fbc:	1ad3      	subs	r3, r2, r3
 8004fbe:	2b02      	cmp	r3, #2
 8004fc0:	d901      	bls.n	8004fc6 <HAL_RCC_OscConfig+0x4aa>
          {
            return HAL_TIMEOUT;
 8004fc2:	2303      	movs	r3, #3
 8004fc4:	e026      	b.n	8005014 <HAL_RCC_OscConfig+0x4f8>
        while (__HAL_RCC_GET_FLAG(RCC_FLAG_PLLRDY)  != RESET)
 8004fc6:	4b06      	ldr	r3, [pc, #24]	@ (8004fe0 <HAL_RCC_OscConfig+0x4c4>)
 8004fc8:	681b      	ldr	r3, [r3, #0]
 8004fca:	f003 7300 	and.w	r3, r3, #33554432	@ 0x2000000
 8004fce:	2b00      	cmp	r3, #0
 8004fd0:	d1f0      	bne.n	8004fb4 <HAL_RCC_OscConfig+0x498>
 8004fd2:	e01e      	b.n	8005012 <HAL_RCC_OscConfig+0x4f6>
      }
    }
    else
    {
      /* Check if there is a request to disable the PLL used as System clock source */
      if ((RCC_OscInitStruct->PLL.PLLState) == RCC_PLL_OFF)
 8004fd4:	687b      	ldr	r3, [r7, #4]
 8004fd6:	69db      	ldr	r3, [r3, #28]
 8004fd8:	2b01      	cmp	r3, #1
 8004fda:	d107      	bne.n	8004fec <HAL_RCC_OscConfig+0x4d0>
      {
        return HAL_ERROR;
 8004fdc:	2301      	movs	r3, #1
 8004fde:	e019      	b.n	8005014 <HAL_RCC_OscConfig+0x4f8>
 8004fe0:	40021000 	.word	0x40021000
 8004fe4:	40007000 	.word	0x40007000
 8004fe8:	42420060 	.word	0x42420060
      }
      else
      {
        /* Do not return HAL_ERROR if request repeats the current configuration */
        pll_config = RCC->CFGR;
 8004fec:	4b0b      	ldr	r3, [pc, #44]	@ (800501c <HAL_RCC_OscConfig+0x500>)
 8004fee:	685b      	ldr	r3, [r3, #4]
 8004ff0:	60fb      	str	r3, [r7, #12]
        if ((READ_BIT(pll_config, RCC_CFGR_PLLSRC) != RCC_OscInitStruct->PLL.PLLSource) ||
 8004ff2:	68fb      	ldr	r3, [r7, #12]
 8004ff4:	f403 3280 	and.w	r2, r3, #65536	@ 0x10000
 8004ff8:	687b      	ldr	r3, [r7, #4]
 8004ffa:	6a1b      	ldr	r3, [r3, #32]
 8004ffc:	429a      	cmp	r2, r3
 8004ffe:	d106      	bne.n	800500e <HAL_RCC_OscConfig+0x4f2>
            (READ_BIT(pll_config, RCC_CFGR_PLLMULL) != RCC_OscInitStruct->PLL.PLLMUL))
 8005000:	68fb      	ldr	r3, [r7, #12]
 8005002:	f403 1270 	and.w	r2, r3, #3932160	@ 0x3c0000
 8005006:	687b      	ldr	r3, [r7, #4]
 8005008:	6a5b      	ldr	r3, [r3, #36]	@ 0x24
        if ((READ_BIT(pll_config, RCC_CFGR_PLLSRC) != RCC_OscInitStruct->PLL.PLLSource) ||
 800500a:	429a      	cmp	r2, r3
 800500c:	d001      	beq.n	8005012 <HAL_RCC_OscConfig+0x4f6>
        {
          return HAL_ERROR;
 800500e:	2301      	movs	r3, #1
 8005010:	e000      	b.n	8005014 <HAL_RCC_OscConfig+0x4f8>
        }
      }
    }
  }

  return HAL_OK;
 8005012:	2300      	movs	r3, #0
}
 8005014:	4618      	mov	r0, r3
 8005016:	3718      	adds	r7, #24
 8005018:	46bd      	mov	sp, r7
 800501a:	bd80      	pop	{r7, pc}
 800501c:	40021000 	.word	0x40021000

08005020 <HAL_RCC_ClockConfig>:
  *         You can use @ref HAL_RCC_GetClockConfig() function to know which clock is
  *         currently used as system clock source.
  * @retval HAL status
  */
HAL_StatusTypeDef HAL_RCC_ClockConfig(RCC_ClkInitTypeDef  *RCC_ClkInitStruct, uint32_t FLatency)
{
 8005020:	b580      	push	{r7, lr}
 8005022:	b084      	sub	sp, #16
 8005024:	af00      	add	r7, sp, #0
 8005026:	6078      	str	r0, [r7, #4]
 8005028:	6039      	str	r1, [r7, #0]
  uint32_t tickstart;

  /* Check Null pointer */
  if (RCC_ClkInitStruct == NULL)
 800502a:	687b      	ldr	r3, [r7, #4]
 800502c:	2b00      	cmp	r3, #0
 800502e:	d101      	bne.n	8005034 <HAL_RCC_ClockConfig+0x14>
  {
    return HAL_ERROR;
 8005030:	2301      	movs	r3, #1
 8005032:	e0d0      	b.n	80051d6 <HAL_RCC_ClockConfig+0x1b6>
  must be correctly programmed according to the frequency of the CPU clock
    (HCLK) of the device. */

#if defined(FLASH_ACR_LATENCY)
  /* Increasing the number of wait states because of higher CPU frequency */
  if (FLatency > __HAL_FLASH_GET_LATENCY())
 8005034:	4b6a      	ldr	r3, [pc, #424]	@ (80051e0 <HAL_RCC_ClockConfig+0x1c0>)
 8005036:	681b      	ldr	r3, [r3, #0]
 8005038:	f003 0307 	and.w	r3, r3, #7
 800503c:	683a      	ldr	r2, [r7, #0]
 800503e:	429a      	cmp	r2, r3
 8005040:	d910      	bls.n	8005064 <HAL_RCC_ClockConfig+0x44>
  {
    /* Program the new number of wait states to the LATENCY bits in the FLASH_ACR register */
    __HAL_FLASH_SET_LATENCY(FLatency);
 8005042:	4b67      	ldr	r3, [pc, #412]	@ (80051e0 <HAL_RCC_ClockConfig+0x1c0>)
 8005044:	681b      	ldr	r3, [r3, #0]
 8005046:	f023 0207 	bic.w	r2, r3, #7
 800504a:	4965      	ldr	r1, [pc, #404]	@ (80051e0 <HAL_RCC_ClockConfig+0x1c0>)
 800504c:	683b      	ldr	r3, [r7, #0]
 800504e:	4313      	orrs	r3, r2
 8005050:	600b      	str	r3, [r1, #0]

    /* Check that the new number of wait states is taken into account to access the Flash
    memory by reading the FLASH_ACR register */
    if (__HAL_FLASH_GET_LATENCY() != FLatency)
 8005052:	4b63      	ldr	r3, [pc, #396]	@ (80051e0 <HAL_RCC_ClockConfig+0x1c0>)
 8005054:	681b      	ldr	r3, [r3, #0]
 8005056:	f003 0307 	and.w	r3, r3, #7
 800505a:	683a      	ldr	r2, [r7, #0]
 800505c:	429a      	cmp	r2, r3
 800505e:	d001      	beq.n	8005064 <HAL_RCC_ClockConfig+0x44>
  {
    return HAL_ERROR;
 8005060:	2301      	movs	r3, #1
 8005062:	e0b8      	b.n	80051d6 <HAL_RCC_ClockConfig+0x1b6>
  }
}

#endif /* FLASH_ACR_LATENCY */
/*-------------------------- HCLK Configuration --------------------------*/
if (((RCC_ClkInitStruct->ClockType) & RCC_CLOCKTYPE_HCLK) == RCC_CLOCKTYPE_HCLK)
 8005064:	687b      	ldr	r3, [r7, #4]
 8005066:	681b      	ldr	r3, [r3, #0]
 8005068:	f003 0302 	and.w	r3, r3, #2
 800506c:	2b00      	cmp	r3, #0
 800506e:	d020      	beq.n	80050b2 <HAL_RCC_ClockConfig+0x92>
  {
    /* Set the highest APBx dividers in order to ensure that we do not go through
    a non-spec phase whatever we decrease or increase HCLK. */
    if (((RCC_ClkInitStruct->ClockType) & RCC_CLOCKTYPE_PCLK1) == RCC_CLOCKTYPE_PCLK1)
 8005070:	687b      	ldr	r3, [r7, #4]
 8005072:	681b      	ldr	r3, [r3, #0]
 8005074:	f003 0304 	and.w	r3, r3, #4
 8005078:	2b00      	cmp	r3, #0
 800507a:	d005      	beq.n	8005088 <HAL_RCC_ClockConfig+0x68>
    {
      MODIFY_REG(RCC->CFGR, RCC_CFGR_PPRE1, RCC_HCLK_DIV16);
 800507c:	4b59      	ldr	r3, [pc, #356]	@ (80051e4 <HAL_RCC_ClockConfig+0x1c4>)
 800507e:	685b      	ldr	r3, [r3, #4]
 8005080:	4a58      	ldr	r2, [pc, #352]	@ (80051e4 <HAL_RCC_ClockConfig+0x1c4>)
 8005082:	f443 63e0 	orr.w	r3, r3, #1792	@ 0x700
 8005086:	6053      	str	r3, [r2, #4]
    }

    if (((RCC_ClkInitStruct->ClockType) & RCC_CLOCKTYPE_PCLK2) == RCC_CLOCKTYPE_PCLK2)
 8005088:	687b      	ldr	r3, [r7, #4]
 800508a:	681b      	ldr	r3, [r3, #0]
 800508c:	f003 0308 	and.w	r3, r3, #8
 8005090:	2b00      	cmp	r3, #0
 8005092:	d005      	beq.n	80050a0 <HAL_RCC_ClockConfig+0x80>
    {
      MODIFY_REG(RCC->CFGR, RCC_CFGR_PPRE2, (RCC_HCLK_DIV16 << 3));
 8005094:	4b53      	ldr	r3, [pc, #332]	@ (80051e4 <HAL_RCC_ClockConfig+0x1c4>)
 8005096:	685b      	ldr	r3, [r3, #4]
 8005098:	4a52      	ldr	r2, [pc, #328]	@ (80051e4 <HAL_RCC_ClockConfig+0x1c4>)
 800509a:	f443 5360 	orr.w	r3, r3, #14336	@ 0x3800
 800509e:	6053      	str	r3, [r2, #4]
    }

    /* Set the new HCLK clock divider */
    assert_param(IS_RCC_HCLK(RCC_ClkInitStruct->AHBCLKDivider));
    MODIFY_REG(RCC->CFGR, RCC_CFGR_HPRE, RCC_ClkInitStruct->AHBCLKDivider);
 80050a0:	4b50      	ldr	r3, [pc, #320]	@ (80051e4 <HAL_RCC_ClockConfig+0x1c4>)
 80050a2:	685b      	ldr	r3, [r3, #4]
 80050a4:	f023 02f0 	bic.w	r2, r3, #240	@ 0xf0
 80050a8:	687b      	ldr	r3, [r7, #4]
 80050aa:	689b      	ldr	r3, [r3, #8]
 80050ac:	494d      	ldr	r1, [pc, #308]	@ (80051e4 <HAL_RCC_ClockConfig+0x1c4>)
 80050ae:	4313      	orrs	r3, r2
 80050b0:	604b      	str	r3, [r1, #4]
  }

  /*------------------------- SYSCLK Configuration ---------------------------*/
  if (((RCC_ClkInitStruct->ClockType) & RCC_CLOCKTYPE_SYSCLK) == RCC_CLOCKTYPE_SYSCLK)
 80050b2:	687b      	ldr	r3, [r7, #4]
 80050b4:	681b      	ldr	r3, [r3, #0]
 80050b6:	f003 0301 	and.w	r3, r3, #1
 80050ba:	2b00      	cmp	r3, #0
 80050bc:	d040      	beq.n	8005140 <HAL_RCC_ClockConfig+0x120>
  {
    assert_param(IS_RCC_SYSCLKSOURCE(RCC_ClkInitStruct->SYSCLKSource));

    /* HSE is selected as System Clock Source */
    if (RCC_ClkInitStruct->SYSCLKSource == RCC_SYSCLKSOURCE_HSE)
 80050be:	687b      	ldr	r3, [r7, #4]
 80050c0:	685b      	ldr	r3, [r3, #4]
 80050c2:	2b01      	cmp	r3, #1
 80050c4:	d107      	bne.n	80050d6 <HAL_RCC_ClockConfig+0xb6>
    {
      /* Check the HSE ready flag */
      if (__HAL_RCC_GET_FLAG(RCC_FLAG_HSERDY) == RESET)
 80050c6:	4b47      	ldr	r3, [pc, #284]	@ (80051e4 <HAL_RCC_ClockConfig+0x1c4>)
 80050c8:	681b      	ldr	r3, [r3, #0]
 80050ca:	f403 3300 	and.w	r3, r3, #131072	@ 0x20000
 80050ce:	2b00      	cmp	r3, #0
 80050d0:	d115      	bne.n	80050fe <HAL_RCC_ClockConfig+0xde>
      {
        return HAL_ERROR;
 80050d2:	2301      	movs	r3, #1
 80050d4:	e07f      	b.n	80051d6 <HAL_RCC_ClockConfig+0x1b6>
      }
    }
    /* PLL is selected as System Clock Source */
    else if (RCC_ClkInitStruct->SYSCLKSource == RCC_SYSCLKSOURCE_PLLCLK)
 80050d6:	687b      	ldr	r3, [r7, #4]
 80050d8:	685b      	ldr	r3, [r3, #4]
 80050da:	2b02      	cmp	r3, #2
 80050dc:	d107      	bne.n	80050ee <HAL_RCC_ClockConfig+0xce>
    {
      /* Check the PLL ready flag */
      if (__HAL_RCC_GET_FLAG(RCC_FLAG_PLLRDY) == RESET)
 80050de:	4b41      	ldr	r3, [pc, #260]	@ (80051e4 <HAL_RCC_ClockConfig+0x1c4>)
 80050e0:	681b      	ldr	r3, [r3, #0]
 80050e2:	f003 7300 	and.w	r3, r3, #33554432	@ 0x2000000
 80050e6:	2b00      	cmp	r3, #0
 80050e8:	d109      	bne.n	80050fe <HAL_RCC_ClockConfig+0xde>
      {
        return HAL_ERROR;
 80050ea:	2301      	movs	r3, #1
 80050ec:	e073      	b.n	80051d6 <HAL_RCC_ClockConfig+0x1b6>
    }
    /* HSI is selected as System Clock Source */
    else
    {
      /* Check the HSI ready flag */
      if (__HAL_RCC_GET_FLAG(RCC_FLAG_HSIRDY) == RESET)
 80050ee:	4b3d      	ldr	r3, [pc, #244]	@ (80051e4 <HAL_RCC_ClockConfig+0x1c4>)
 80050f0:	681b      	ldr	r3, [r3, #0]
 80050f2:	f003 0302 	and.w	r3, r3, #2
 80050f6:	2b00      	cmp	r3, #0
 80050f8:	d101      	bne.n	80050fe <HAL_RCC_ClockConfig+0xde>
      {
        return HAL_ERROR;
 80050fa:	2301      	movs	r3, #1
 80050fc:	e06b      	b.n	80051d6 <HAL_RCC_ClockConfig+0x1b6>
      }
    }
    __HAL_RCC_SYSCLK_CONFIG(RCC_ClkInitStruct->SYSCLKSource);
 80050fe:	4b39      	ldr	r3, [pc, #228]	@ (80051e4 <HAL_RCC_ClockConfig+0x1c4>)
 8005100:	685b      	ldr	r3, [r3, #4]
 8005102:	f023 0203 	bic.w	r2, r3, #3
 8005106:	687b      	ldr	r3, [r7, #4]
 8005108:	685b      	ldr	r3, [r3, #4]
 800510a:	4936      	ldr	r1, [pc, #216]	@ (80051e4 <HAL_RCC_ClockConfig+0x1c4>)
 800510c:	4313      	orrs	r3, r2
 800510e:	604b      	str	r3, [r1, #4]

    /* Get Start Tick */
    tickstart = HAL_GetTick();
 8005110:	f7fe ff22 	bl	8003f58 <HAL_GetTick>
 8005114:	60f8      	str	r0, [r7, #12]

    while (__HAL_RCC_GET_SYSCLK_SOURCE() != (RCC_ClkInitStruct->SYSCLKSource << RCC_CFGR_SWS_Pos))
 8005116:	e00a      	b.n	800512e <HAL_RCC_ClockConfig+0x10e>
    {
      if ((HAL_GetTick() - tickstart) > CLOCKSWITCH_TIMEOUT_VALUE)
 8005118:	f7fe ff1e 	bl	8003f58 <HAL_GetTick>
 800511c:	4602      	mov	r2, r0
 800511e:	68fb      	ldr	r3, [r7, #12]
 8005120:	1ad3      	subs	r3, r2, r3
 8005122:	f241 3288 	movw	r2, #5000	@ 0x1388
 8005126:	4293      	cmp	r3, r2
 8005128:	d901      	bls.n	800512e <HAL_RCC_ClockConfig+0x10e>
      {
        return HAL_TIMEOUT;
 800512a:	2303      	movs	r3, #3
 800512c:	e053      	b.n	80051d6 <HAL_RCC_ClockConfig+0x1b6>
    while (__HAL_RCC_GET_SYSCLK_SOURCE() != (RCC_ClkInitStruct->SYSCLKSource << RCC_CFGR_SWS_Pos))
 800512e:	4b2d      	ldr	r3, [pc, #180]	@ (80051e4 <HAL_RCC_ClockConfig+0x1c4>)
 8005130:	685b      	ldr	r3, [r3, #4]
 8005132:	f003 020c 	and.w	r2, r3, #12
 8005136:	687b      	ldr	r3, [r7, #4]
 8005138:	685b      	ldr	r3, [r3, #4]
 800513a:	009b      	lsls	r3, r3, #2
 800513c:	429a      	cmp	r2, r3
 800513e:	d1eb      	bne.n	8005118 <HAL_RCC_ClockConfig+0xf8>
    }
  }

#if defined(FLASH_ACR_LATENCY)
  /* Decreasing the number of wait states because of lower CPU frequency */
  if (FLatency < __HAL_FLASH_GET_LATENCY())
 8005140:	4b27      	ldr	r3, [pc, #156]	@ (80051e0 <HAL_RCC_ClockConfig+0x1c0>)
 8005142:	681b      	ldr	r3, [r3, #0]
 8005144:	f003 0307 	and.w	r3, r3, #7
 8005148:	683a      	ldr	r2, [r7, #0]
 800514a:	429a      	cmp	r2, r3
 800514c:	d210      	bcs.n	8005170 <HAL_RCC_ClockConfig+0x150>
  {
    /* Program the new number of wait states to the LATENCY bits in the FLASH_ACR register */
    __HAL_FLASH_SET_LATENCY(FLatency);
 800514e:	4b24      	ldr	r3, [pc, #144]	@ (80051e0 <HAL_RCC_ClockConfig+0x1c0>)
 8005150:	681b      	ldr	r3, [r3, #0]
 8005152:	f023 0207 	bic.w	r2, r3, #7
 8005156:	4922      	ldr	r1, [pc, #136]	@ (80051e0 <HAL_RCC_ClockConfig+0x1c0>)
 8005158:	683b      	ldr	r3, [r7, #0]
 800515a:	4313      	orrs	r3, r2
 800515c:	600b      	str	r3, [r1, #0]

    /* Check that the new number of wait states is taken into account to access the Flash
    memory by reading the FLASH_ACR register */
    if (__HAL_FLASH_GET_LATENCY() != FLatency)
 800515e:	4b20      	ldr	r3, [pc, #128]	@ (80051e0 <HAL_RCC_ClockConfig+0x1c0>)
 8005160:	681b      	ldr	r3, [r3, #0]
 8005162:	f003 0307 	and.w	r3, r3, #7
 8005166:	683a      	ldr	r2, [r7, #0]
 8005168:	429a      	cmp	r2, r3
 800516a:	d001      	beq.n	8005170 <HAL_RCC_ClockConfig+0x150>
  {
    return HAL_ERROR;
 800516c:	2301      	movs	r3, #1
 800516e:	e032      	b.n	80051d6 <HAL_RCC_ClockConfig+0x1b6>
  }
}
#endif /* FLASH_ACR_LATENCY */

/*-------------------------- PCLK1 Configuration ---------------------------*/
if (((RCC_ClkInitStruct->ClockType) & RCC_CLOCKTYPE_PCLK1) == RCC_CLOCKTYPE_PCLK1)
 8005170:	687b      	ldr	r3, [r7, #4]
 8005172:	681b      	ldr	r3, [r3, #0]
 8005174:	f003 0304 	and.w	r3, r3, #4
 8005178:	2b00      	cmp	r3, #0
 800517a:	d008      	beq.n	800518e <HAL_RCC_ClockConfig+0x16e>
  {
    assert_param(IS_RCC_PCLK(RCC_ClkInitStruct->APB1CLKDivider));
    MODIFY_REG(RCC->CFGR, RCC_CFGR_PPRE1, RCC_ClkInitStruct->APB1CLKDivider);
 800517c:	4b19      	ldr	r3, [pc, #100]	@ (80051e4 <HAL_RCC_ClockConfig+0x1c4>)
 800517e:	685b      	ldr	r3, [r3, #4]
 8005180:	f423 62e0 	bic.w	r2, r3, #1792	@ 0x700
 8005184:	687b      	ldr	r3, [r7, #4]
 8005186:	68db      	ldr	r3, [r3, #12]
 8005188:	4916      	ldr	r1, [pc, #88]	@ (80051e4 <HAL_RCC_ClockConfig+0x1c4>)
 800518a:	4313      	orrs	r3, r2
 800518c:	604b      	str	r3, [r1, #4]
  }

  /*-------------------------- PCLK2 Configuration ---------------------------*/
  if (((RCC_ClkInitStruct->ClockType) & RCC_CLOCKTYPE_PCLK2) == RCC_CLOCKTYPE_PCLK2)
 800518e:	687b      	ldr	r3, [r7, #4]
 8005190:	681b      	ldr	r3, [r3, #0]
 8005192:	f003 0308 	and.w	r3, r3, #8
 8005196:	2b00      	cmp	r3, #0
 8005198:	d009      	beq.n	80051ae <HAL_RCC_ClockConfig+0x18e>
  {
    assert_param(IS_RCC_PCLK(RCC_ClkInitStruct->APB2CLKDivider));
    MODIFY_REG(RCC->CFGR, RCC_CFGR_PPRE2, ((RCC_ClkInitStruct->APB2CLKDivider) << 3));
 800519a:	4b12      	ldr	r3, [pc, #72]	@ (80051e4 <HAL_RCC_ClockConfig+0x1c4>)
 800519c:	685b      	ldr	r3, [r3, #4]
 800519e:	f423 5260 	bic.w	r2, r3, #14336	@ 0x3800
 80051a2:	687b      	ldr	r3, [r7, #4]
 80051a4:	691b      	ldr	r3, [r3, #16]
 80051a6:	00db      	lsls	r3, r3, #3
 80051a8:	490e      	ldr	r1, [pc, #56]	@ (80051e4 <HAL_RCC_ClockConfig+0x1c4>)
 80051aa:	4313      	orrs	r3, r2
 80051ac:	604b      	str	r3, [r1, #4]
  }

  /* Update the SystemCoreClock global variable */
  SystemCoreClock = HAL_RCC_GetSysClockFreq() >> AHBPrescTable[(RCC->CFGR & RCC_CFGR_HPRE) >> RCC_CFGR_HPRE_Pos];
 80051ae:	f000 f821 	bl	80051f4 <HAL_RCC_GetSysClockFreq>
 80051b2:	4602      	mov	r2, r0
 80051b4:	4b0b      	ldr	r3, [pc, #44]	@ (80051e4 <HAL_RCC_ClockConfig+0x1c4>)
 80051b6:	685b      	ldr	r3, [r3, #4]
 80051b8:	091b      	lsrs	r3, r3, #4
 80051ba:	f003 030f 	and.w	r3, r3, #15
 80051be:	490a      	ldr	r1, [pc, #40]	@ (80051e8 <HAL_RCC_ClockConfig+0x1c8>)
 80051c0:	5ccb      	ldrb	r3, [r1, r3]
 80051c2:	fa22 f303 	lsr.w	r3, r2, r3
 80051c6:	4a09      	ldr	r2, [pc, #36]	@ (80051ec <HAL_RCC_ClockConfig+0x1cc>)
 80051c8:	6013      	str	r3, [r2, #0]

  /* Configure the source of time base considering new system clocks settings*/
  HAL_InitTick(uwTickPrio);
 80051ca:	4b09      	ldr	r3, [pc, #36]	@ (80051f0 <HAL_RCC_ClockConfig+0x1d0>)
 80051cc:	681b      	ldr	r3, [r3, #0]
 80051ce:	4618      	mov	r0, r3
 80051d0:	f7fe fe80 	bl	8003ed4 <HAL_InitTick>

  return HAL_OK;
 80051d4:	2300      	movs	r3, #0
}
 80051d6:	4618      	mov	r0, r3
 80051d8:	3710      	adds	r7, #16
 80051da:	46bd      	mov	sp, r7
 80051dc:	bd80      	pop	{r7, pc}
 80051de:	bf00      	nop
 80051e0:	40022000 	.word	0x40022000
 80051e4:	40021000 	.word	0x40021000
 80051e8:	08007100 	.word	0x08007100
 80051ec:	20000014 	.word	0x20000014
 80051f0:	20000018 	.word	0x20000018

080051f4 <HAL_RCC_GetSysClockFreq>:
  *         right SYSCLK value. Otherwise, any configuration based on this function will be incorrect.
  *
  * @retval SYSCLK frequency
  */
uint32_t HAL_RCC_GetSysClockFreq(void)
{
 80051f4:	b480      	push	{r7}
 80051f6:	b087      	sub	sp, #28
 80051f8:	af00      	add	r7, sp, #0
#else
  static const uint8_t aPredivFactorTable[2U] = {1, 2};
#endif /*RCC_CFGR2_PREDIV1*/

#endif
  uint32_t tmpreg = 0U, prediv = 0U, pllclk = 0U, pllmul = 0U;
 80051fa:	2300      	movs	r3, #0
 80051fc:	60fb      	str	r3, [r7, #12]
 80051fe:	2300      	movs	r3, #0
 8005200:	60bb      	str	r3, [r7, #8]
 8005202:	2300      	movs	r3, #0
 8005204:	617b      	str	r3, [r7, #20]
 8005206:	2300      	movs	r3, #0
 8005208:	607b      	str	r3, [r7, #4]
  uint32_t sysclockfreq = 0U;
 800520a:	2300      	movs	r3, #0
 800520c:	613b      	str	r3, [r7, #16]
#if defined(RCC_CFGR2_PREDIV1SRC)
  uint32_t prediv2 = 0U, pll2mul = 0U;
#endif /*RCC_CFGR2_PREDIV1SRC*/

  tmpreg = RCC->CFGR;
 800520e:	4b1e      	ldr	r3, [pc, #120]	@ (8005288 <HAL_RCC_GetSysClockFreq+0x94>)
 8005210:	685b      	ldr	r3, [r3, #4]
 8005212:	60fb      	str	r3, [r7, #12]

  /* Get SYSCLK source -------------------------------------------------------*/
  switch (tmpreg & RCC_CFGR_SWS)
 8005214:	68fb      	ldr	r3, [r7, #12]
 8005216:	f003 030c 	and.w	r3, r3, #12
 800521a:	2b04      	cmp	r3, #4
 800521c:	d002      	beq.n	8005224 <HAL_RCC_GetSysClockFreq+0x30>
 800521e:	2b08      	cmp	r3, #8
 8005220:	d003      	beq.n	800522a <HAL_RCC_GetSysClockFreq+0x36>
 8005222:	e027      	b.n	8005274 <HAL_RCC_GetSysClockFreq+0x80>
  {
    case RCC_SYSCLKSOURCE_STATUS_HSE:  /* HSE used as system clock */
    {
      sysclockfreq = HSE_VALUE;
 8005224:	4b19      	ldr	r3, [pc, #100]	@ (800528c <HAL_RCC_GetSysClockFreq+0x98>)
 8005226:	613b      	str	r3, [r7, #16]
      break;
 8005228:	e027      	b.n	800527a <HAL_RCC_GetSysClockFreq+0x86>
    }
    case RCC_SYSCLKSOURCE_STATUS_PLLCLK:  /* PLL used as system clock */
    {
      pllmul = aPLLMULFactorTable[(uint32_t)(tmpreg & RCC_CFGR_PLLMULL) >> RCC_CFGR_PLLMULL_Pos];
 800522a:	68fb      	ldr	r3, [r7, #12]
 800522c:	0c9b      	lsrs	r3, r3, #18
 800522e:	f003 030f 	and.w	r3, r3, #15
 8005232:	4a17      	ldr	r2, [pc, #92]	@ (8005290 <HAL_RCC_GetSysClockFreq+0x9c>)
 8005234:	5cd3      	ldrb	r3, [r2, r3]
 8005236:	607b      	str	r3, [r7, #4]
      if ((tmpreg & RCC_CFGR_PLLSRC) != RCC_PLLSOURCE_HSI_DIV2)
 8005238:	68fb      	ldr	r3, [r7, #12]
 800523a:	f403 3380 	and.w	r3, r3, #65536	@ 0x10000
 800523e:	2b00      	cmp	r3, #0
 8005240:	d010      	beq.n	8005264 <HAL_RCC_GetSysClockFreq+0x70>
      {
#if defined(RCC_CFGR2_PREDIV1)
        prediv = aPredivFactorTable[(uint32_t)(RCC->CFGR2 & RCC_CFGR2_PREDIV1) >> RCC_CFGR2_PREDIV1_Pos];
#else
        prediv = aPredivFactorTable[(uint32_t)(RCC->CFGR & RCC_CFGR_PLLXTPRE) >> RCC_CFGR_PLLXTPRE_Pos];
 8005242:	4b11      	ldr	r3, [pc, #68]	@ (8005288 <HAL_RCC_GetSysClockFreq+0x94>)
 8005244:	685b      	ldr	r3, [r3, #4]
 8005246:	0c5b      	lsrs	r3, r3, #17
 8005248:	f003 0301 	and.w	r3, r3, #1
 800524c:	4a11      	ldr	r2, [pc, #68]	@ (8005294 <HAL_RCC_GetSysClockFreq+0xa0>)
 800524e:	5cd3      	ldrb	r3, [r2, r3]
 8005250:	60bb      	str	r3, [r7, #8]
        {
          pllclk = pllclk / 2;
        }
#else
        /* HSE used as PLL clock source : PLLCLK = HSE/PREDIV1 * PLLMUL */
        pllclk = (uint32_t)((HSE_VALUE  * pllmul) / prediv);
 8005252:	687b      	ldr	r3, [r7, #4]
 8005254:	4a0d      	ldr	r2, [pc, #52]	@ (800528c <HAL_RCC_GetSysClockFreq+0x98>)
 8005256:	fb03 f202 	mul.w	r2, r3, r2
 800525a:	68bb      	ldr	r3, [r7, #8]
 800525c:	fbb2 f3f3 	udiv	r3, r2, r3
 8005260:	617b      	str	r3, [r7, #20]
 8005262:	e004      	b.n	800526e <HAL_RCC_GetSysClockFreq+0x7a>
#endif /*RCC_CFGR2_PREDIV1SRC*/
      }
      else
      {
        /* HSI used as PLL clock source : PLLCLK = HSI/2 * PLLMUL */
        pllclk = (uint32_t)((HSI_VALUE >> 1) * pllmul);
 8005264:	687b      	ldr	r3, [r7, #4]
 8005266:	4a0c      	ldr	r2, [pc, #48]	@ (8005298 <HAL_RCC_GetSysClockFreq+0xa4>)
 8005268:	fb02 f303 	mul.w	r3, r2, r3
 800526c:	617b      	str	r3, [r7, #20]
      }
      sysclockfreq = pllclk;
 800526e:	697b      	ldr	r3, [r7, #20]
 8005270:	613b      	str	r3, [r7, #16]
      break;
 8005272:	e002      	b.n	800527a <HAL_RCC_GetSysClockFreq+0x86>
    }
    case RCC_SYSCLKSOURCE_STATUS_HSI:  /* HSI used as system clock source */
    default: /* HSI used as system clock */
    {
      sysclockfreq = HSI_VALUE;
 8005274:	4b05      	ldr	r3, [pc, #20]	@ (800528c <HAL_RCC_GetSysClockFreq+0x98>)
 8005276:	613b      	str	r3, [r7, #16]
      break;
 8005278:	bf00      	nop
    }
  }
  return sysclockfreq;
 800527a:	693b      	ldr	r3, [r7, #16]
}
 800527c:	4618      	mov	r0, r3
 800527e:	371c      	adds	r7, #28
 8005280:	46bd      	mov	sp, r7
 8005282:	bc80      	pop	{r7}
 8005284:	4770      	bx	lr
 8005286:	bf00      	nop
 8005288:	40021000 	.word	0x40021000
 800528c:	007a1200 	.word	0x007a1200
 8005290:	08007118 	.word	0x08007118
 8005294:	08007128 	.word	0x08007128
 8005298:	003d0900 	.word	0x003d0900

0800529c <HAL_RCC_GetHCLKFreq>:
  * @note   The SystemCoreClock CMSIS variable is used to store System Clock Frequency
  *         and updated within this function
  * @retval HCLK frequency
  */
uint32_t HAL_RCC_GetHCLKFreq(void)
{
 800529c:	b480      	push	{r7}
 800529e:	af00      	add	r7, sp, #0
  return SystemCoreClock;
 80052a0:	4b02      	ldr	r3, [pc, #8]	@ (80052ac <HAL_RCC_GetHCLKFreq+0x10>)
 80052a2:	681b      	ldr	r3, [r3, #0]
}
 80052a4:	4618      	mov	r0, r3
 80052a6:	46bd      	mov	sp, r7
 80052a8:	bc80      	pop	{r7}
 80052aa:	4770      	bx	lr
 80052ac:	20000014 	.word	0x20000014

080052b0 <HAL_RCC_GetPCLK1Freq>:
  * @note   Each time PCLK1 changes, this function must be called to update the
  *         right PCLK1 value. Otherwise, any configuration based on this function will be incorrect.
  * @retval PCLK1 frequency
  */
uint32_t HAL_RCC_GetPCLK1Freq(void)
{
 80052b0:	b580      	push	{r7, lr}
 80052b2:	af00      	add	r7, sp, #0
  /* Get HCLK source and Compute PCLK1 frequency ---------------------------*/
  return (HAL_RCC_GetHCLKFreq() >> APBPrescTable[(RCC->CFGR & RCC_CFGR_PPRE1) >> RCC_CFGR_PPRE1_Pos]);
 80052b4:	f7ff fff2 	bl	800529c <HAL_RCC_GetHCLKFreq>
 80052b8:	4602      	mov	r2, r0
 80052ba:	4b05      	ldr	r3, [pc, #20]	@ (80052d0 <HAL_RCC_GetPCLK1Freq+0x20>)
 80052bc:	685b      	ldr	r3, [r3, #4]
 80052be:	0a1b      	lsrs	r3, r3, #8
 80052c0:	f003 0307 	and.w	r3, r3, #7
 80052c4:	4903      	ldr	r1, [pc, #12]	@ (80052d4 <HAL_RCC_GetPCLK1Freq+0x24>)
 80052c6:	5ccb      	ldrb	r3, [r1, r3]
 80052c8:	fa22 f303 	lsr.w	r3, r2, r3
}
 80052cc:	4618      	mov	r0, r3
 80052ce:	bd80      	pop	{r7, pc}
 80052d0:	40021000 	.word	0x40021000
 80052d4:	08007110 	.word	0x08007110

080052d8 <HAL_RCC_GetPCLK2Freq>:
  * @note   Each time PCLK2 changes, this function must be called to update the
  *         right PCLK2 value. Otherwise, any configuration based on this function will be incorrect.
  * @retval PCLK2 frequency
  */
uint32_t HAL_RCC_GetPCLK2Freq(void)
{
 80052d8:	b580      	push	{r7, lr}
 80052da:	af00      	add	r7, sp, #0
  /* Get HCLK source and Compute PCLK2 frequency ---------------------------*/
  return (HAL_RCC_GetHCLKFreq() >> APBPrescTable[(RCC->CFGR & RCC_CFGR_PPRE2) >> RCC_CFGR_PPRE2_Pos]);
 80052dc:	f7ff ffde 	bl	800529c <HAL_RCC_GetHCLKFreq>
 80052e0:	4602      	mov	r2, r0
 80052e2:	4b05      	ldr	r3, [pc, #20]	@ (80052f8 <HAL_RCC_GetPCLK2Freq+0x20>)
 80052e4:	685b      	ldr	r3, [r3, #4]
 80052e6:	0adb      	lsrs	r3, r3, #11
 80052e8:	f003 0307 	and.w	r3, r3, #7
 80052ec:	4903      	ldr	r1, [pc, #12]	@ (80052fc <HAL_RCC_GetPCLK2Freq+0x24>)
 80052ee:	5ccb      	ldrb	r3, [r1, r3]
 80052f0:	fa22 f303 	lsr.w	r3, r2, r3
}
 80052f4:	4618      	mov	r0, r3
 80052f6:	bd80      	pop	{r7, pc}
 80052f8:	40021000 	.word	0x40021000
 80052fc:	08007110 	.word	0x08007110

08005300 <RCC_Delay>:
  * @brief  This function provides delay (in milliseconds) based on CPU cycles method.
  * @param  mdelay: specifies the delay time length, in milliseconds.
  * @retval None
  */
static void RCC_Delay(uint32_t mdelay)
{
 8005300:	b480      	push	{r7}
 8005302:	b085      	sub	sp, #20
 8005304:	af00      	add	r7, sp, #0
 8005306:	6078      	str	r0, [r7, #4]
  __IO uint32_t Delay = mdelay * (SystemCoreClock / 8U / 1000U);
 8005308:	4b0a      	ldr	r3, [pc, #40]	@ (8005334 <RCC_Delay+0x34>)
 800530a:	681b      	ldr	r3, [r3, #0]
 800530c:	4a0a      	ldr	r2, [pc, #40]	@ (8005338 <RCC_Delay+0x38>)
 800530e:	fba2 2303 	umull	r2, r3, r2, r3
 8005312:	0a5b      	lsrs	r3, r3, #9
 8005314:	687a      	ldr	r2, [r7, #4]
 8005316:	fb02 f303 	mul.w	r3, r2, r3
 800531a:	60fb      	str	r3, [r7, #12]
  do
  {
    __NOP();
 800531c:	bf00      	nop
  }
  while (Delay --);
 800531e:	68fb      	ldr	r3, [r7, #12]
 8005320:	1e5a      	subs	r2, r3, #1
 8005322:	60fa      	str	r2, [r7, #12]
 8005324:	2b00      	cmp	r3, #0
 8005326:	d1f9      	bne.n	800531c <RCC_Delay+0x1c>
}
 8005328:	bf00      	nop
 800532a:	bf00      	nop
 800532c:	3714      	adds	r7, #20
 800532e:	46bd      	mov	sp, r7
 8005330:	bc80      	pop	{r7}
 8005332:	4770      	bx	lr
 8005334:	20000014 	.word	0x20000014
 8005338:	10624dd3 	.word	0x10624dd3

0800533c <HAL_UART_Init>:
  * @param  huart  Pointer to a UART_HandleTypeDef structure that contains
  *                the configuration information for the specified UART module.
  * @retval HAL status
  */
HAL_StatusTypeDef HAL_UART_Init(UART_HandleTypeDef *huart)
{
 800533c:	b580      	push	{r7, lr}
 800533e:	b082      	sub	sp, #8
 8005340:	af00      	add	r7, sp, #0
 8005342:	6078      	str	r0, [r7, #4]
  /* Check the UART handle allocation */
  if (huart == NULL)
 8005344:	687b      	ldr	r3, [r7, #4]
 8005346:	2b00      	cmp	r3, #0
 8005348:	d101      	bne.n	800534e <HAL_UART_Init+0x12>
  {
    return HAL_ERROR;
 800534a:	2301      	movs	r3, #1
 800534c:	e042      	b.n	80053d4 <HAL_UART_Init+0x98>
  assert_param(IS_UART_WORD_LENGTH(huart->Init.WordLength));
#if defined(USART_CR1_OVER8)
  assert_param(IS_UART_OVERSAMPLING(huart->Init.OverSampling));
#endif /* USART_CR1_OVER8 */

  if (huart->gState == HAL_UART_STATE_RESET)
 800534e:	687b      	ldr	r3, [r7, #4]
 8005350:	f893 3041 	ldrb.w	r3, [r3, #65]	@ 0x41
 8005354:	b2db      	uxtb	r3, r3
 8005356:	2b00      	cmp	r3, #0
 8005358:	d106      	bne.n	8005368 <HAL_UART_Init+0x2c>
  {
    /* Allocate lock resource and initialize it */
    huart->Lock = HAL_UNLOCKED;
 800535a:	687b      	ldr	r3, [r7, #4]
 800535c:	2200      	movs	r2, #0
 800535e:	f883 2040 	strb.w	r2, [r3, #64]	@ 0x40

    /* Init the low level hardware */
    huart->MspInitCallback(huart);
#else
    /* Init the low level hardware : GPIO, CLOCK */
    HAL_UART_MspInit(huart);
 8005362:	6878      	ldr	r0, [r7, #4]
 8005364:	f7fe fb90 	bl	8003a88 <HAL_UART_MspInit>
#endif /* (USE_HAL_UART_REGISTER_CALLBACKS) */
  }

  huart->gState = HAL_UART_STATE_BUSY;
 8005368:	687b      	ldr	r3, [r7, #4]
 800536a:	2224      	movs	r2, #36	@ 0x24
 800536c:	f883 2041 	strb.w	r2, [r3, #65]	@ 0x41

  /* Disable the peripheral */
  __HAL_UART_DISABLE(huart);
 8005370:	687b      	ldr	r3, [r7, #4]
 8005372:	681b      	ldr	r3, [r3, #0]
 8005374:	68da      	ldr	r2, [r3, #12]
 8005376:	687b      	ldr	r3, [r7, #4]
 8005378:	681b      	ldr	r3, [r3, #0]
 800537a:	f422 5200 	bic.w	r2, r2, #8192	@ 0x2000
 800537e:	60da      	str	r2, [r3, #12]

  /* Set the UART Communication parameters */
  UART_SetConfig(huart);
 8005380:	6878      	ldr	r0, [r7, #4]
 8005382:	f000 fdaf 	bl	8005ee4 <UART_SetConfig>

  /* In asynchronous mode, the following bits must be kept cleared:
     - LINEN and CLKEN bits in the USART_CR2 register,
     - SCEN, HDSEL and IREN  bits in the USART_CR3 register.*/
  CLEAR_BIT(huart->Instance->CR2, (USART_CR2_LINEN | USART_CR2_CLKEN));
 8005386:	687b      	ldr	r3, [r7, #4]
 8005388:	681b      	ldr	r3, [r3, #0]
 800538a:	691a      	ldr	r2, [r3, #16]
 800538c:	687b      	ldr	r3, [r7, #4]
 800538e:	681b      	ldr	r3, [r3, #0]
 8005390:	f422 4290 	bic.w	r2, r2, #18432	@ 0x4800
 8005394:	611a      	str	r2, [r3, #16]
  CLEAR_BIT(huart->Instance->CR3, (USART_CR3_SCEN | USART_CR3_HDSEL | USART_CR3_IREN));
 8005396:	687b      	ldr	r3, [r7, #4]
 8005398:	681b      	ldr	r3, [r3, #0]
 800539a:	695a      	ldr	r2, [r3, #20]
 800539c:	687b      	ldr	r3, [r7, #4]
 800539e:	681b      	ldr	r3, [r3, #0]
 80053a0:	f022 022a 	bic.w	r2, r2, #42	@ 0x2a
 80053a4:	615a      	str	r2, [r3, #20]

  /* Enable the peripheral */
  __HAL_UART_ENABLE(huart);
 80053a6:	687b      	ldr	r3, [r7, #4]
 80053a8:	681b      	ldr	r3, [r3, #0]
 80053aa:	68da      	ldr	r2, [r3, #12]
 80053ac:	687b      	ldr	r3, [r7, #4]
 80053ae:	681b      	ldr	r3, [r3, #0]
 80053b0:	f442 5200 	orr.w	r2, r2, #8192	@ 0x2000
 80053b4:	60da      	str	r2, [r3, #12]

  /* Initialize the UART state */
  huart->ErrorCode = HAL_UART_ERROR_NONE;
 80053b6:	687b      	ldr	r3, [r7, #4]
 80053b8:	2200      	movs	r2, #0
 80053ba:	645a      	str	r2, [r3, #68]	@ 0x44
  huart->gState = HAL_UART_STATE_READY;
 80053bc:	687b      	ldr	r3, [r7, #4]
 80053be:	2220      	movs	r2, #32
 80053c0:	f883 2041 	strb.w	r2, [r3, #65]	@ 0x41
  huart->RxState = HAL_UART_STATE_READY;
 80053c4:	687b      	ldr	r3, [r7, #4]
 80053c6:	2220      	movs	r2, #32
 80053c8:	f883 2042 	strb.w	r2, [r3, #66]	@ 0x42
  huart->RxEventType = HAL_UART_RXEVENT_TC;
 80053cc:	687b      	ldr	r3, [r7, #4]
 80053ce:	2200      	movs	r2, #0
 80053d0:	635a      	str	r2, [r3, #52]	@ 0x34

  return HAL_OK;
 80053d2:	2300      	movs	r3, #0
}
 80053d4:	4618      	mov	r0, r3
 80053d6:	3708      	adds	r7, #8
 80053d8:	46bd      	mov	sp, r7
 80053da:	bd80      	pop	{r7, pc}

080053dc <HAL_UART_Transmit>:
  * @param  Size  Amount of data elements (u8 or u16) to be sent
  * @param  Timeout Timeout duration
  * @retval HAL status
  */
HAL_StatusTypeDef HAL_UART_Transmit(UART_HandleTypeDef *huart, const uint8_t *pData, uint16_t Size, uint32_t Timeout)
{
 80053dc:	b580      	push	{r7, lr}
 80053de:	b08a      	sub	sp, #40	@ 0x28
 80053e0:	af02      	add	r7, sp, #8
 80053e2:	60f8      	str	r0, [r7, #12]
 80053e4:	60b9      	str	r1, [r7, #8]
 80053e6:	603b      	str	r3, [r7, #0]
 80053e8:	4613      	mov	r3, r2
 80053ea:	80fb      	strh	r3, [r7, #6]
  const uint8_t  *pdata8bits;
  const uint16_t *pdata16bits;
  uint32_t tickstart = 0U;
 80053ec:	2300      	movs	r3, #0
 80053ee:	617b      	str	r3, [r7, #20]

  /* Check that a Tx process is not already ongoing */
  if (huart->gState == HAL_UART_STATE_READY)
 80053f0:	68fb      	ldr	r3, [r7, #12]
 80053f2:	f893 3041 	ldrb.w	r3, [r3, #65]	@ 0x41
 80053f6:	b2db      	uxtb	r3, r3
 80053f8:	2b20      	cmp	r3, #32
 80053fa:	d175      	bne.n	80054e8 <HAL_UART_Transmit+0x10c>
  {
    if ((pData == NULL) || (Size == 0U))
 80053fc:	68bb      	ldr	r3, [r7, #8]
 80053fe:	2b00      	cmp	r3, #0
 8005400:	d002      	beq.n	8005408 <HAL_UART_Transmit+0x2c>
 8005402:	88fb      	ldrh	r3, [r7, #6]
 8005404:	2b00      	cmp	r3, #0
 8005406:	d101      	bne.n	800540c <HAL_UART_Transmit+0x30>
    {
      return  HAL_ERROR;
 8005408:	2301      	movs	r3, #1
 800540a:	e06e      	b.n	80054ea <HAL_UART_Transmit+0x10e>
    }

    huart->ErrorCode = HAL_UART_ERROR_NONE;
 800540c:	68fb      	ldr	r3, [r7, #12]
 800540e:	2200      	movs	r2, #0
 8005410:	645a      	str	r2, [r3, #68]	@ 0x44
    huart->gState = HAL_UART_STATE_BUSY_TX;
 8005412:	68fb      	ldr	r3, [r7, #12]
 8005414:	2221      	movs	r2, #33	@ 0x21
 8005416:	f883 2041 	strb.w	r2, [r3, #65]	@ 0x41

    /* Init tickstart for timeout management */
    tickstart = HAL_GetTick();
 800541a:	f7fe fd9d 	bl	8003f58 <HAL_GetTick>
 800541e:	6178      	str	r0, [r7, #20]

    huart->TxXferSize = Size;
 8005420:	68fb      	ldr	r3, [r7, #12]
 8005422:	88fa      	ldrh	r2, [r7, #6]
 8005424:	849a      	strh	r2, [r3, #36]	@ 0x24
    huart->TxXferCount = Size;
 8005426:	68fb      	ldr	r3, [r7, #12]
 8005428:	88fa      	ldrh	r2, [r7, #6]
 800542a:	84da      	strh	r2, [r3, #38]	@ 0x26

    /* In case of 9bits/No Parity transfer, pData needs to be handled as a uint16_t pointer */
    if ((huart->Init.WordLength == UART_WORDLENGTH_9B) && (huart->Init.Parity == UART_PARITY_NONE))
 800542c:	68fb      	ldr	r3, [r7, #12]
 800542e:	689b      	ldr	r3, [r3, #8]
 8005430:	f5b3 5f80 	cmp.w	r3, #4096	@ 0x1000
 8005434:	d108      	bne.n	8005448 <HAL_UART_Transmit+0x6c>
 8005436:	68fb      	ldr	r3, [r7, #12]
 8005438:	691b      	ldr	r3, [r3, #16]
 800543a:	2b00      	cmp	r3, #0
 800543c:	d104      	bne.n	8005448 <HAL_UART_Transmit+0x6c>
    {
      pdata8bits  = NULL;
 800543e:	2300      	movs	r3, #0
 8005440:	61fb      	str	r3, [r7, #28]
      pdata16bits = (const uint16_t *) pData;
 8005442:	68bb      	ldr	r3, [r7, #8]
 8005444:	61bb      	str	r3, [r7, #24]
 8005446:	e003      	b.n	8005450 <HAL_UART_Transmit+0x74>
    }
    else
    {
      pdata8bits  = pData;
 8005448:	68bb      	ldr	r3, [r7, #8]
 800544a:	61fb      	str	r3, [r7, #28]
      pdata16bits = NULL;
 800544c:	2300      	movs	r3, #0
 800544e:	61bb      	str	r3, [r7, #24]
    }

    while (huart->TxXferCount > 0U)
 8005450:	e02e      	b.n	80054b0 <HAL_UART_Transmit+0xd4>
    {
      if (UART_WaitOnFlagUntilTimeout(huart, UART_FLAG_TXE, RESET, tickstart, Timeout) != HAL_OK)
 8005452:	683b      	ldr	r3, [r7, #0]
 8005454:	9300      	str	r3, [sp, #0]
 8005456:	697b      	ldr	r3, [r7, #20]
 8005458:	2200      	movs	r2, #0
 800545a:	2180      	movs	r1, #128	@ 0x80
 800545c:	68f8      	ldr	r0, [r7, #12]
 800545e:	f000 fb13 	bl	8005a88 <UART_WaitOnFlagUntilTimeout>
 8005462:	4603      	mov	r3, r0
 8005464:	2b00      	cmp	r3, #0
 8005466:	d005      	beq.n	8005474 <HAL_UART_Transmit+0x98>
      {
        huart->gState = HAL_UART_STATE_READY;
 8005468:	68fb      	ldr	r3, [r7, #12]
 800546a:	2220      	movs	r2, #32
 800546c:	f883 2041 	strb.w	r2, [r3, #65]	@ 0x41

        return HAL_TIMEOUT;
 8005470:	2303      	movs	r3, #3
 8005472:	e03a      	b.n	80054ea <HAL_UART_Transmit+0x10e>
      }
      if (pdata8bits == NULL)
 8005474:	69fb      	ldr	r3, [r7, #28]
 8005476:	2b00      	cmp	r3, #0
 8005478:	d10b      	bne.n	8005492 <HAL_UART_Transmit+0xb6>
      {
        huart->Instance->DR = (uint16_t)(*pdata16bits & 0x01FFU);
 800547a:	69bb      	ldr	r3, [r7, #24]
 800547c:	881b      	ldrh	r3, [r3, #0]
 800547e:	461a      	mov	r2, r3
 8005480:	68fb      	ldr	r3, [r7, #12]
 8005482:	681b      	ldr	r3, [r3, #0]
 8005484:	f3c2 0208 	ubfx	r2, r2, #0, #9
 8005488:	605a      	str	r2, [r3, #4]
        pdata16bits++;
 800548a:	69bb      	ldr	r3, [r7, #24]
 800548c:	3302      	adds	r3, #2
 800548e:	61bb      	str	r3, [r7, #24]
 8005490:	e007      	b.n	80054a2 <HAL_UART_Transmit+0xc6>
      }
      else
      {
        huart->Instance->DR = (uint8_t)(*pdata8bits & 0xFFU);
 8005492:	69fb      	ldr	r3, [r7, #28]
 8005494:	781a      	ldrb	r2, [r3, #0]
 8005496:	68fb      	ldr	r3, [r7, #12]
 8005498:	681b      	ldr	r3, [r3, #0]
 800549a:	605a      	str	r2, [r3, #4]
        pdata8bits++;
 800549c:	69fb      	ldr	r3, [r7, #28]
 800549e:	3301      	adds	r3, #1
 80054a0:	61fb      	str	r3, [r7, #28]
      }
      huart->TxXferCount--;
 80054a2:	68fb      	ldr	r3, [r7, #12]
 80054a4:	8cdb      	ldrh	r3, [r3, #38]	@ 0x26
 80054a6:	b29b      	uxth	r3, r3
 80054a8:	3b01      	subs	r3, #1
 80054aa:	b29a      	uxth	r2, r3
 80054ac:	68fb      	ldr	r3, [r7, #12]
 80054ae:	84da      	strh	r2, [r3, #38]	@ 0x26
    while (huart->TxXferCount > 0U)
 80054b0:	68fb      	ldr	r3, [r7, #12]
 80054b2:	8cdb      	ldrh	r3, [r3, #38]	@ 0x26
 80054b4:	b29b      	uxth	r3, r3
 80054b6:	2b00      	cmp	r3, #0
 80054b8:	d1cb      	bne.n	8005452 <HAL_UART_Transmit+0x76>
    }

    if (UART_WaitOnFlagUntilTimeout(huart, UART_FLAG_TC, RESET, tickstart, Timeout) != HAL_OK)
 80054ba:	683b      	ldr	r3, [r7, #0]
 80054bc:	9300      	str	r3, [sp, #0]
 80054be:	697b      	ldr	r3, [r7, #20]
 80054c0:	2200      	movs	r2, #0
 80054c2:	2140      	movs	r1, #64	@ 0x40
 80054c4:	68f8      	ldr	r0, [r7, #12]
 80054c6:	f000 fadf 	bl	8005a88 <UART_WaitOnFlagUntilTimeout>
 80054ca:	4603      	mov	r3, r0
 80054cc:	2b00      	cmp	r3, #0
 80054ce:	d005      	beq.n	80054dc <HAL_UART_Transmit+0x100>
    {
      huart->gState = HAL_UART_STATE_READY;
 80054d0:	68fb      	ldr	r3, [r7, #12]
 80054d2:	2220      	movs	r2, #32
 80054d4:	f883 2041 	strb.w	r2, [r3, #65]	@ 0x41

      return HAL_TIMEOUT;
 80054d8:	2303      	movs	r3, #3
 80054da:	e006      	b.n	80054ea <HAL_UART_Transmit+0x10e>
    }

    /* At end of Tx process, restore huart->gState to Ready */
    huart->gState = HAL_UART_STATE_READY;
 80054dc:	68fb      	ldr	r3, [r7, #12]
 80054de:	2220      	movs	r2, #32
 80054e0:	f883 2041 	strb.w	r2, [r3, #65]	@ 0x41

    return HAL_OK;
 80054e4:	2300      	movs	r3, #0
 80054e6:	e000      	b.n	80054ea <HAL_UART_Transmit+0x10e>
  }
  else
  {
    return HAL_BUSY;
 80054e8:	2302      	movs	r3, #2
  }
}
 80054ea:	4618      	mov	r0, r3
 80054ec:	3720      	adds	r7, #32
 80054ee:	46bd      	mov	sp, r7
 80054f0:	bd80      	pop	{r7, pc}

080054f2 <HAL_UART_Receive_IT>:
  * @param  pData Pointer to data buffer (u8 or u16 data elements).
  * @param  Size  Amount of data elements (u8 or u16) to be received.
  * @retval HAL status
  */
HAL_StatusTypeDef HAL_UART_Receive_IT(UART_HandleTypeDef *huart, uint8_t *pData, uint16_t Size)
{
 80054f2:	b580      	push	{r7, lr}
 80054f4:	b084      	sub	sp, #16
 80054f6:	af00      	add	r7, sp, #0
 80054f8:	60f8      	str	r0, [r7, #12]
 80054fa:	60b9      	str	r1, [r7, #8]
 80054fc:	4613      	mov	r3, r2
 80054fe:	80fb      	strh	r3, [r7, #6]
  /* Check that a Rx process is not already ongoing */
  if (huart->RxState == HAL_UART_STATE_READY)
 8005500:	68fb      	ldr	r3, [r7, #12]
 8005502:	f893 3042 	ldrb.w	r3, [r3, #66]	@ 0x42
 8005506:	b2db      	uxtb	r3, r3
 8005508:	2b20      	cmp	r3, #32
 800550a:	d112      	bne.n	8005532 <HAL_UART_Receive_IT+0x40>
  {
    if ((pData == NULL) || (Size == 0U))
 800550c:	68bb      	ldr	r3, [r7, #8]
 800550e:	2b00      	cmp	r3, #0
 8005510:	d002      	beq.n	8005518 <HAL_UART_Receive_IT+0x26>
 8005512:	88fb      	ldrh	r3, [r7, #6]
 8005514:	2b00      	cmp	r3, #0
 8005516:	d101      	bne.n	800551c <HAL_UART_Receive_IT+0x2a>
    {
      return HAL_ERROR;
 8005518:	2301      	movs	r3, #1
 800551a:	e00b      	b.n	8005534 <HAL_UART_Receive_IT+0x42>
    }

    /* Set Reception type to Standard reception */
    huart->ReceptionType = HAL_UART_RECEPTION_STANDARD;
 800551c:	68fb      	ldr	r3, [r7, #12]
 800551e:	2200      	movs	r2, #0
 8005520:	631a      	str	r2, [r3, #48]	@ 0x30

    return (UART_Start_Receive_IT(huart, pData, Size));
 8005522:	88fb      	ldrh	r3, [r7, #6]
 8005524:	461a      	mov	r2, r3
 8005526:	68b9      	ldr	r1, [r7, #8]
 8005528:	68f8      	ldr	r0, [r7, #12]
 800552a:	f000 fb06 	bl	8005b3a <UART_Start_Receive_IT>
 800552e:	4603      	mov	r3, r0
 8005530:	e000      	b.n	8005534 <HAL_UART_Receive_IT+0x42>
  }
  else
  {
    return HAL_BUSY;
 8005532:	2302      	movs	r3, #2
  }
}
 8005534:	4618      	mov	r0, r3
 8005536:	3710      	adds	r7, #16
 8005538:	46bd      	mov	sp, r7
 800553a:	bd80      	pop	{r7, pc}

0800553c <HAL_UART_IRQHandler>:
  * @param  huart  Pointer to a UART_HandleTypeDef structure that contains
  *                the configuration information for the specified UART module.
  * @retval None
  */
void HAL_UART_IRQHandler(UART_HandleTypeDef *huart)
{
 800553c:	b580      	push	{r7, lr}
 800553e:	b0ba      	sub	sp, #232	@ 0xe8
 8005540:	af00      	add	r7, sp, #0
 8005542:	6078      	str	r0, [r7, #4]
  uint32_t isrflags   = READ_REG(huart->Instance->SR);
 8005544:	687b      	ldr	r3, [r7, #4]
 8005546:	681b      	ldr	r3, [r3, #0]
 8005548:	681b      	ldr	r3, [r3, #0]
 800554a:	f8c7 30e4 	str.w	r3, [r7, #228]	@ 0xe4
  uint32_t cr1its     = READ_REG(huart->Instance->CR1);
 800554e:	687b      	ldr	r3, [r7, #4]
 8005550:	681b      	ldr	r3, [r3, #0]
 8005552:	68db      	ldr	r3, [r3, #12]
 8005554:	f8c7 30e0 	str.w	r3, [r7, #224]	@ 0xe0
  uint32_t cr3its     = READ_REG(huart->Instance->CR3);
 8005558:	687b      	ldr	r3, [r7, #4]
 800555a:	681b      	ldr	r3, [r3, #0]
 800555c:	695b      	ldr	r3, [r3, #20]
 800555e:	f8c7 30dc 	str.w	r3, [r7, #220]	@ 0xdc
  uint32_t errorflags = 0x00U;
 8005562:	2300      	movs	r3, #0
 8005564:	f8c7 30d8 	str.w	r3, [r7, #216]	@ 0xd8
  uint32_t dmarequest = 0x00U;
 8005568:	2300      	movs	r3, #0
 800556a:	f8c7 30d4 	str.w	r3, [r7, #212]	@ 0xd4

  /* If no error occurs */
  errorflags = (isrflags & (uint32_t)(USART_SR_PE | USART_SR_FE | USART_SR_ORE | USART_SR_NE));
 800556e:	f8d7 30e4 	ldr.w	r3, [r7, #228]	@ 0xe4
 8005572:	f003 030f 	and.w	r3, r3, #15
 8005576:	f8c7 30d8 	str.w	r3, [r7, #216]	@ 0xd8
  if (errorflags == RESET)
 800557a:	f8d7 30d8 	ldr.w	r3, [r7, #216]	@ 0xd8
 800557e:	2b00      	cmp	r3, #0
 8005580:	d10f      	bne.n	80055a2 <HAL_UART_IRQHandler+0x66>
  {
    /* UART in mode Receiver -------------------------------------------------*/
    if (((isrflags & USART_SR_RXNE) != RESET) && ((cr1its & USART_CR1_RXNEIE) != RESET))
 8005582:	f8d7 30e4 	ldr.w	r3, [r7, #228]	@ 0xe4
 8005586:	f003 0320 	and.w	r3, r3, #32
 800558a:	2b00      	cmp	r3, #0
 800558c:	d009      	beq.n	80055a2 <HAL_UART_IRQHandler+0x66>
 800558e:	f8d7 30e0 	ldr.w	r3, [r7, #224]	@ 0xe0
 8005592:	f003 0320 	and.w	r3, r3, #32
 8005596:	2b00      	cmp	r3, #0
 8005598:	d003      	beq.n	80055a2 <HAL_UART_IRQHandler+0x66>
    {
      UART_Receive_IT(huart);
 800559a:	6878      	ldr	r0, [r7, #4]
 800559c:	f000 fbe3 	bl	8005d66 <UART_Receive_IT>
      return;
 80055a0:	e25b      	b.n	8005a5a <HAL_UART_IRQHandler+0x51e>
    }
  }

  /* If some errors occur */
  if ((errorflags != RESET) && (((cr3its & USART_CR3_EIE) != RESET)
 80055a2:	f8d7 30d8 	ldr.w	r3, [r7, #216]	@ 0xd8
 80055a6:	2b00      	cmp	r3, #0
 80055a8:	f000 80de 	beq.w	8005768 <HAL_UART_IRQHandler+0x22c>
 80055ac:	f8d7 30dc 	ldr.w	r3, [r7, #220]	@ 0xdc
 80055b0:	f003 0301 	and.w	r3, r3, #1
 80055b4:	2b00      	cmp	r3, #0
 80055b6:	d106      	bne.n	80055c6 <HAL_UART_IRQHandler+0x8a>
                                || ((cr1its & (USART_CR1_RXNEIE | USART_CR1_PEIE)) != RESET)))
 80055b8:	f8d7 30e0 	ldr.w	r3, [r7, #224]	@ 0xe0
 80055bc:	f403 7390 	and.w	r3, r3, #288	@ 0x120
 80055c0:	2b00      	cmp	r3, #0
 80055c2:	f000 80d1 	beq.w	8005768 <HAL_UART_IRQHandler+0x22c>
  {
    /* UART parity error interrupt occurred ----------------------------------*/
    if (((isrflags & USART_SR_PE) != RESET) && ((cr1its & USART_CR1_PEIE) != RESET))
 80055c6:	f8d7 30e4 	ldr.w	r3, [r7, #228]	@ 0xe4
 80055ca:	f003 0301 	and.w	r3, r3, #1
 80055ce:	2b00      	cmp	r3, #0
 80055d0:	d00b      	beq.n	80055ea <HAL_UART_IRQHandler+0xae>
 80055d2:	f8d7 30e0 	ldr.w	r3, [r7, #224]	@ 0xe0
 80055d6:	f403 7380 	and.w	r3, r3, #256	@ 0x100
 80055da:	2b00      	cmp	r3, #0
 80055dc:	d005      	beq.n	80055ea <HAL_UART_IRQHandler+0xae>
    {
      huart->ErrorCode |= HAL_UART_ERROR_PE;
 80055de:	687b      	ldr	r3, [r7, #4]
 80055e0:	6c5b      	ldr	r3, [r3, #68]	@ 0x44
 80055e2:	f043 0201 	orr.w	r2, r3, #1
 80055e6:	687b      	ldr	r3, [r7, #4]
 80055e8:	645a      	str	r2, [r3, #68]	@ 0x44
    }

    /* UART noise error interrupt occurred -----------------------------------*/
    if (((isrflags & USART_SR_NE) != RESET) && ((cr3its & USART_CR3_EIE) != RESET))
 80055ea:	f8d7 30e4 	ldr.w	r3, [r7, #228]	@ 0xe4
 80055ee:	f003 0304 	and.w	r3, r3, #4
 80055f2:	2b00      	cmp	r3, #0
 80055f4:	d00b      	beq.n	800560e <HAL_UART_IRQHandler+0xd2>
 80055f6:	f8d7 30dc 	ldr.w	r3, [r7, #220]	@ 0xdc
 80055fa:	f003 0301 	and.w	r3, r3, #1
 80055fe:	2b00      	cmp	r3, #0
 8005600:	d005      	beq.n	800560e <HAL_UART_IRQHandler+0xd2>
    {
      huart->ErrorCode |= HAL_UART_ERROR_NE;
 8005602:	687b      	ldr	r3, [r7, #4]
 8005604:	6c5b      	ldr	r3, [r3, #68]	@ 0x44
 8005606:	f043 0202 	orr.w	r2, r3, #2
 800560a:	687b      	ldr	r3, [r7, #4]
 800560c:	645a      	str	r2, [r3, #68]	@ 0x44
    }

    /* UART frame error interrupt occurred -----------------------------------*/
    if (((isrflags & USART_SR_FE) != RESET) && ((cr3its & USART_CR3_EIE) != RESET))
 800560e:	f8d7 30e4 	ldr.w	r3, [r7, #228]	@ 0xe4
 8005612:	f003 0302 	and.w	r3, r3, #2
 8005616:	2b00      	cmp	r3, #0
 8005618:	d00b      	beq.n	8005632 <HAL_UART_IRQHandler+0xf6>
 800561a:	f8d7 30dc 	ldr.w	r3, [r7, #220]	@ 0xdc
 800561e:	f003 0301 	and.w	r3, r3, #1
 8005622:	2b00      	cmp	r3, #0
 8005624:	d005      	beq.n	8005632 <HAL_UART_IRQHandler+0xf6>
    {
      huart->ErrorCode |= HAL_UART_ERROR_FE;
 8005626:	687b      	ldr	r3, [r7, #4]
 8005628:	6c5b      	ldr	r3, [r3, #68]	@ 0x44
 800562a:	f043 0204 	orr.w	r2, r3, #4
 800562e:	687b      	ldr	r3, [r7, #4]
 8005630:	645a      	str	r2, [r3, #68]	@ 0x44
    }

    /* UART Over-Run interrupt occurred --------------------------------------*/
    if (((isrflags & USART_SR_ORE) != RESET) && (((cr1its & USART_CR1_RXNEIE) != RESET)
 8005632:	f8d7 30e4 	ldr.w	r3, [r7, #228]	@ 0xe4
 8005636:	f003 0308 	and.w	r3, r3, #8
 800563a:	2b00      	cmp	r3, #0
 800563c:	d011      	beq.n	8005662 <HAL_UART_IRQHandler+0x126>
 800563e:	f8d7 30e0 	ldr.w	r3, [r7, #224]	@ 0xe0
 8005642:	f003 0320 	and.w	r3, r3, #32
 8005646:	2b00      	cmp	r3, #0
 8005648:	d105      	bne.n	8005656 <HAL_UART_IRQHandler+0x11a>
                                                 || ((cr3its & USART_CR3_EIE) != RESET)))
 800564a:	f8d7 30dc 	ldr.w	r3, [r7, #220]	@ 0xdc
 800564e:	f003 0301 	and.w	r3, r3, #1
 8005652:	2b00      	cmp	r3, #0
 8005654:	d005      	beq.n	8005662 <HAL_UART_IRQHandler+0x126>
    {
      huart->ErrorCode |= HAL_UART_ERROR_ORE;
 8005656:	687b      	ldr	r3, [r7, #4]
 8005658:	6c5b      	ldr	r3, [r3, #68]	@ 0x44
 800565a:	f043 0208 	orr.w	r2, r3, #8
 800565e:	687b      	ldr	r3, [r7, #4]
 8005660:	645a      	str	r2, [r3, #68]	@ 0x44
    }

    /* Call UART Error Call back function if need be --------------------------*/
    if (huart->ErrorCode != HAL_UART_ERROR_NONE)
 8005662:	687b      	ldr	r3, [r7, #4]
 8005664:	6c5b      	ldr	r3, [r3, #68]	@ 0x44
 8005666:	2b00      	cmp	r3, #0
 8005668:	f000 81f2 	beq.w	8005a50 <HAL_UART_IRQHandler+0x514>
    {
      /* UART in mode Receiver -----------------------------------------------*/
      if (((isrflags & USART_SR_RXNE) != RESET) && ((cr1its & USART_CR1_RXNEIE) != RESET))
 800566c:	f8d7 30e4 	ldr.w	r3, [r7, #228]	@ 0xe4
 8005670:	f003 0320 	and.w	r3, r3, #32
 8005674:	2b00      	cmp	r3, #0
 8005676:	d008      	beq.n	800568a <HAL_UART_IRQHandler+0x14e>
 8005678:	f8d7 30e0 	ldr.w	r3, [r7, #224]	@ 0xe0
 800567c:	f003 0320 	and.w	r3, r3, #32
 8005680:	2b00      	cmp	r3, #0
 8005682:	d002      	beq.n	800568a <HAL_UART_IRQHandler+0x14e>
      {
        UART_Receive_IT(huart);
 8005684:	6878      	ldr	r0, [r7, #4]
 8005686:	f000 fb6e 	bl	8005d66 <UART_Receive_IT>
      }

      /* If Overrun error occurs, or if any error occurs in DMA mode reception,
         consider error as blocking */
      dmarequest = HAL_IS_BIT_SET(huart->Instance->CR3, USART_CR3_DMAR);
 800568a:	687b      	ldr	r3, [r7, #4]
 800568c:	681b      	ldr	r3, [r3, #0]
 800568e:	695b      	ldr	r3, [r3, #20]
 8005690:	f003 0340 	and.w	r3, r3, #64	@ 0x40
 8005694:	2b00      	cmp	r3, #0
 8005696:	bf14      	ite	ne
 8005698:	2301      	movne	r3, #1
 800569a:	2300      	moveq	r3, #0
 800569c:	b2db      	uxtb	r3, r3
 800569e:	f8c7 30d4 	str.w	r3, [r7, #212]	@ 0xd4
      if (((huart->ErrorCode & HAL_UART_ERROR_ORE) != RESET) || dmarequest)
 80056a2:	687b      	ldr	r3, [r7, #4]
 80056a4:	6c5b      	ldr	r3, [r3, #68]	@ 0x44
 80056a6:	f003 0308 	and.w	r3, r3, #8
 80056aa:	2b00      	cmp	r3, #0
 80056ac:	d103      	bne.n	80056b6 <HAL_UART_IRQHandler+0x17a>
 80056ae:	f8d7 30d4 	ldr.w	r3, [r7, #212]	@ 0xd4
 80056b2:	2b00      	cmp	r3, #0
 80056b4:	d04f      	beq.n	8005756 <HAL_UART_IRQHandler+0x21a>
      {
        /* Blocking error : transfer is aborted
           Set the UART state ready to be able to start again the process,
           Disable Rx Interrupts, and disable Rx DMA request, if ongoing */
        UART_EndRxTransfer(huart);
 80056b6:	6878      	ldr	r0, [r7, #4]
 80056b8:	f000 fa78 	bl	8005bac <UART_EndRxTransfer>

        /* Disable the UART DMA Rx request if enabled */
        if (HAL_IS_BIT_SET(huart->Instance->CR3, USART_CR3_DMAR))
 80056bc:	687b      	ldr	r3, [r7, #4]
 80056be:	681b      	ldr	r3, [r3, #0]
 80056c0:	695b      	ldr	r3, [r3, #20]
 80056c2:	f003 0340 	and.w	r3, r3, #64	@ 0x40
 80056c6:	2b00      	cmp	r3, #0
 80056c8:	d041      	beq.n	800574e <HAL_UART_IRQHandler+0x212>
        {
          ATOMIC_CLEAR_BIT(huart->Instance->CR3, USART_CR3_DMAR);
 80056ca:	687b      	ldr	r3, [r7, #4]
 80056cc:	681b      	ldr	r3, [r3, #0]
 80056ce:	3314      	adds	r3, #20
 80056d0:	f8c7 309c 	str.w	r3, [r7, #156]	@ 0x9c
 */
__STATIC_FORCEINLINE uint32_t __LDREXW(volatile uint32_t *addr)
{
    uint32_t result;

   __ASM volatile ("ldrex %0, %1" : "=r" (result) : "Q" (*addr) );
 80056d4:	f8d7 309c 	ldr.w	r3, [r7, #156]	@ 0x9c
 80056d8:	e853 3f00 	ldrex	r3, [r3]
 80056dc:	f8c7 3098 	str.w	r3, [r7, #152]	@ 0x98
   return(result);
 80056e0:	f8d7 3098 	ldr.w	r3, [r7, #152]	@ 0x98
 80056e4:	f023 0340 	bic.w	r3, r3, #64	@ 0x40
 80056e8:	f8c7 30d0 	str.w	r3, [r7, #208]	@ 0xd0
 80056ec:	687b      	ldr	r3, [r7, #4]
 80056ee:	681b      	ldr	r3, [r3, #0]
 80056f0:	3314      	adds	r3, #20
 80056f2:	f8d7 20d0 	ldr.w	r2, [r7, #208]	@ 0xd0
 80056f6:	f8c7 20a8 	str.w	r2, [r7, #168]	@ 0xa8
 80056fa:	f8c7 30a4 	str.w	r3, [r7, #164]	@ 0xa4
 */
__STATIC_FORCEINLINE uint32_t __STREXW(uint32_t value, volatile uint32_t *addr)
{
   uint32_t result;

   __ASM volatile ("strex %0, %2, %1" : "=&r" (result), "=Q" (*addr) : "r" (value) );
 80056fe:	f8d7 10a4 	ldr.w	r1, [r7, #164]	@ 0xa4
 8005702:	f8d7 20a8 	ldr.w	r2, [r7, #168]	@ 0xa8
 8005706:	e841 2300 	strex	r3, r2, [r1]
 800570a:	f8c7 30a0 	str.w	r3, [r7, #160]	@ 0xa0
   return(result);
 800570e:	f8d7 30a0 	ldr.w	r3, [r7, #160]	@ 0xa0
 8005712:	2b00      	cmp	r3, #0
 8005714:	d1d9      	bne.n	80056ca <HAL_UART_IRQHandler+0x18e>

          /* Abort the UART DMA Rx channel */
          if (huart->hdmarx != NULL)
 8005716:	687b      	ldr	r3, [r7, #4]
 8005718:	6bdb      	ldr	r3, [r3, #60]	@ 0x3c
 800571a:	2b00      	cmp	r3, #0
 800571c:	d013      	beq.n	8005746 <HAL_UART_IRQHandler+0x20a>
          {
            /* Set the UART DMA Abort callback :
               will lead to call HAL_UART_ErrorCallback() at end of DMA abort procedure */
            huart->hdmarx->XferAbortCallback = UART_DMAAbortOnError;
 800571e:	687b      	ldr	r3, [r7, #4]
 8005720:	6bdb      	ldr	r3, [r3, #60]	@ 0x3c
 8005722:	4a7e      	ldr	r2, [pc, #504]	@ (800591c <HAL_UART_IRQHandler+0x3e0>)
 8005724:	635a      	str	r2, [r3, #52]	@ 0x34
            if (HAL_DMA_Abort_IT(huart->hdmarx) != HAL_OK)
 8005726:	687b      	ldr	r3, [r7, #4]
 8005728:	6bdb      	ldr	r3, [r3, #60]	@ 0x3c
 800572a:	4618      	mov	r0, r3
 800572c:	f7fe fe86 	bl	800443c <HAL_DMA_Abort_IT>
 8005730:	4603      	mov	r3, r0
 8005732:	2b00      	cmp	r3, #0
 8005734:	d016      	beq.n	8005764 <HAL_UART_IRQHandler+0x228>
            {
              /* Call Directly XferAbortCallback function in case of error */
              huart->hdmarx->XferAbortCallback(huart->hdmarx);
 8005736:	687b      	ldr	r3, [r7, #4]
 8005738:	6bdb      	ldr	r3, [r3, #60]	@ 0x3c
 800573a:	6b5b      	ldr	r3, [r3, #52]	@ 0x34
 800573c:	687a      	ldr	r2, [r7, #4]
 800573e:	6bd2      	ldr	r2, [r2, #60]	@ 0x3c
 8005740:	4610      	mov	r0, r2
 8005742:	4798      	blx	r3
        if (HAL_IS_BIT_SET(huart->Instance->CR3, USART_CR3_DMAR))
 8005744:	e00e      	b.n	8005764 <HAL_UART_IRQHandler+0x228>
#if (USE_HAL_UART_REGISTER_CALLBACKS == 1)
            /*Call registered error callback*/
            huart->ErrorCallback(huart);
#else
            /*Call legacy weak error callback*/
            HAL_UART_ErrorCallback(huart);
 8005746:	6878      	ldr	r0, [r7, #4]
 8005748:	f7fa ff6a 	bl	8000620 <HAL_UART_ErrorCallback>
        if (HAL_IS_BIT_SET(huart->Instance->CR3, USART_CR3_DMAR))
 800574c:	e00a      	b.n	8005764 <HAL_UART_IRQHandler+0x228>
#if (USE_HAL_UART_REGISTER_CALLBACKS == 1)
          /*Call registered error callback*/
          huart->ErrorCallback(huart);
#else
          /*Call legacy weak error callback*/
          HAL_UART_ErrorCallback(huart);
 800574e:	6878      	ldr	r0, [r7, #4]
 8005750:	f7fa ff66 	bl	8000620 <HAL_UART_ErrorCallback>
        if (HAL_IS_BIT_SET(huart->Instance->CR3, USART_CR3_DMAR))
 8005754:	e006      	b.n	8005764 <HAL_UART_IRQHandler+0x228>
#if (USE_HAL_UART_REGISTER_CALLBACKS == 1)
        /*Call registered error callback*/
        huart->ErrorCallback(huart);
#else
        /*Call legacy weak error callback*/
        HAL_UART_ErrorCallback(huart);
 8005756:	6878      	ldr	r0, [r7, #4]
 8005758:	f7fa ff62 	bl	8000620 <HAL_UART_ErrorCallback>
#endif /* USE_HAL_UART_REGISTER_CALLBACKS */

        huart->ErrorCode = HAL_UART_ERROR_NONE;
 800575c:	687b      	ldr	r3, [r7, #4]
 800575e:	2200      	movs	r2, #0
 8005760:	645a      	str	r2, [r3, #68]	@ 0x44
      }
    }
    return;
 8005762:	e175      	b.n	8005a50 <HAL_UART_IRQHandler+0x514>
        if (HAL_IS_BIT_SET(huart->Instance->CR3, USART_CR3_DMAR))
 8005764:	bf00      	nop
    return;
 8005766:	e173      	b.n	8005a50 <HAL_UART_IRQHandler+0x514>
  } /* End if some error occurs */

  /* Check current reception Mode :
     If Reception till IDLE event has been selected : */
  if ((huart->ReceptionType == HAL_UART_RECEPTION_TOIDLE)
 8005768:	687b      	ldr	r3, [r7, #4]
 800576a:	6b1b      	ldr	r3, [r3, #48]	@ 0x30
 800576c:	2b01      	cmp	r3, #1
 800576e:	f040 814f 	bne.w	8005a10 <HAL_UART_IRQHandler+0x4d4>
      && ((isrflags & USART_SR_IDLE) != 0U)
 8005772:	f8d7 30e4 	ldr.w	r3, [r7, #228]	@ 0xe4
 8005776:	f003 0310 	and.w	r3, r3, #16
 800577a:	2b00      	cmp	r3, #0
 800577c:	f000 8148 	beq.w	8005a10 <HAL_UART_IRQHandler+0x4d4>
      && ((cr1its & USART_SR_IDLE) != 0U))
 8005780:	f8d7 30e0 	ldr.w	r3, [r7, #224]	@ 0xe0
 8005784:	f003 0310 	and.w	r3, r3, #16
 8005788:	2b00      	cmp	r3, #0
 800578a:	f000 8141 	beq.w	8005a10 <HAL_UART_IRQHandler+0x4d4>
  {
    __HAL_UART_CLEAR_IDLEFLAG(huart);
 800578e:	2300      	movs	r3, #0
 8005790:	60bb      	str	r3, [r7, #8]
 8005792:	687b      	ldr	r3, [r7, #4]
 8005794:	681b      	ldr	r3, [r3, #0]
 8005796:	681b      	ldr	r3, [r3, #0]
 8005798:	60bb      	str	r3, [r7, #8]
 800579a:	687b      	ldr	r3, [r7, #4]
 800579c:	681b      	ldr	r3, [r3, #0]
 800579e:	685b      	ldr	r3, [r3, #4]
 80057a0:	60bb      	str	r3, [r7, #8]
 80057a2:	68bb      	ldr	r3, [r7, #8]

    /* Check if DMA mode is enabled in UART */
    if (HAL_IS_BIT_SET(huart->Instance->CR3, USART_CR3_DMAR))
 80057a4:	687b      	ldr	r3, [r7, #4]
 80057a6:	681b      	ldr	r3, [r3, #0]
 80057a8:	695b      	ldr	r3, [r3, #20]
 80057aa:	f003 0340 	and.w	r3, r3, #64	@ 0x40
 80057ae:	2b00      	cmp	r3, #0
 80057b0:	f000 80b6 	beq.w	8005920 <HAL_UART_IRQHandler+0x3e4>
    {
      /* DMA mode enabled */
      /* Check received length : If all expected data are received, do nothing,
         (DMA cplt callback will be called).
         Otherwise, if at least one data has already been received, IDLE event is to be notified to user */
      uint16_t nb_remaining_rx_data = (uint16_t) __HAL_DMA_GET_COUNTER(huart->hdmarx);
 80057b4:	687b      	ldr	r3, [r7, #4]
 80057b6:	6bdb      	ldr	r3, [r3, #60]	@ 0x3c
 80057b8:	681b      	ldr	r3, [r3, #0]
 80057ba:	685b      	ldr	r3, [r3, #4]
 80057bc:	f8a7 30be 	strh.w	r3, [r7, #190]	@ 0xbe
      if ((nb_remaining_rx_data > 0U)
 80057c0:	f8b7 30be 	ldrh.w	r3, [r7, #190]	@ 0xbe
 80057c4:	2b00      	cmp	r3, #0
 80057c6:	f000 8145 	beq.w	8005a54 <HAL_UART_IRQHandler+0x518>
          && (nb_remaining_rx_data < huart->RxXferSize))
 80057ca:	687b      	ldr	r3, [r7, #4]
 80057cc:	8d9b      	ldrh	r3, [r3, #44]	@ 0x2c
 80057ce:	f8b7 20be 	ldrh.w	r2, [r7, #190]	@ 0xbe
 80057d2:	429a      	cmp	r2, r3
 80057d4:	f080 813e 	bcs.w	8005a54 <HAL_UART_IRQHandler+0x518>
      {
        /* Reception is not complete */
        huart->RxXferCount = nb_remaining_rx_data;
 80057d8:	687b      	ldr	r3, [r7, #4]
 80057da:	f8b7 20be 	ldrh.w	r2, [r7, #190]	@ 0xbe
 80057de:	85da      	strh	r2, [r3, #46]	@ 0x2e

        /* In Normal mode, end DMA xfer and HAL UART Rx process*/
        if (huart->hdmarx->Init.Mode != DMA_CIRCULAR)
 80057e0:	687b      	ldr	r3, [r7, #4]
 80057e2:	6bdb      	ldr	r3, [r3, #60]	@ 0x3c
 80057e4:	699b      	ldr	r3, [r3, #24]
 80057e6:	2b20      	cmp	r3, #32
 80057e8:	f000 8088 	beq.w	80058fc <HAL_UART_IRQHandler+0x3c0>
        {
          /* Disable PE and ERR (Frame error, noise error, overrun error) interrupts */
          ATOMIC_CLEAR_BIT(huart->Instance->CR1, USART_CR1_PEIE);
 80057ec:	687b      	ldr	r3, [r7, #4]
 80057ee:	681b      	ldr	r3, [r3, #0]
 80057f0:	330c      	adds	r3, #12
 80057f2:	f8c7 3088 	str.w	r3, [r7, #136]	@ 0x88
   __ASM volatile ("ldrex %0, %1" : "=r" (result) : "Q" (*addr) );
 80057f6:	f8d7 3088 	ldr.w	r3, [r7, #136]	@ 0x88
 80057fa:	e853 3f00 	ldrex	r3, [r3]
 80057fe:	f8c7 3084 	str.w	r3, [r7, #132]	@ 0x84
   return(result);
 8005802:	f8d7 3084 	ldr.w	r3, [r7, #132]	@ 0x84
 8005806:	f423 7380 	bic.w	r3, r3, #256	@ 0x100
 800580a:	f8c7 30b8 	str.w	r3, [r7, #184]	@ 0xb8
 800580e:	687b      	ldr	r3, [r7, #4]
 8005810:	681b      	ldr	r3, [r3, #0]
 8005812:	330c      	adds	r3, #12
 8005814:	f8d7 20b8 	ldr.w	r2, [r7, #184]	@ 0xb8
 8005818:	f8c7 2094 	str.w	r2, [r7, #148]	@ 0x94
 800581c:	f8c7 3090 	str.w	r3, [r7, #144]	@ 0x90
   __ASM volatile ("strex %0, %2, %1" : "=&r" (result), "=Q" (*addr) : "r" (value) );
 8005820:	f8d7 1090 	ldr.w	r1, [r7, #144]	@ 0x90
 8005824:	f8d7 2094 	ldr.w	r2, [r7, #148]	@ 0x94
 8005828:	e841 2300 	strex	r3, r2, [r1]
 800582c:	f8c7 308c 	str.w	r3, [r7, #140]	@ 0x8c
   return(result);
 8005830:	f8d7 308c 	ldr.w	r3, [r7, #140]	@ 0x8c
 8005834:	2b00      	cmp	r3, #0
 8005836:	d1d9      	bne.n	80057ec <HAL_UART_IRQHandler+0x2b0>
          ATOMIC_CLEAR_BIT(huart->Instance->CR3, USART_CR3_EIE);
 8005838:	687b      	ldr	r3, [r7, #4]
 800583a:	681b      	ldr	r3, [r3, #0]
 800583c:	3314      	adds	r3, #20
 800583e:	677b      	str	r3, [r7, #116]	@ 0x74
   __ASM volatile ("ldrex %0, %1" : "=r" (result) : "Q" (*addr) );
 8005840:	6f7b      	ldr	r3, [r7, #116]	@ 0x74
 8005842:	e853 3f00 	ldrex	r3, [r3]
 8005846:	673b      	str	r3, [r7, #112]	@ 0x70
   return(result);
 8005848:	6f3b      	ldr	r3, [r7, #112]	@ 0x70
 800584a:	f023 0301 	bic.w	r3, r3, #1
 800584e:	f8c7 30b4 	str.w	r3, [r7, #180]	@ 0xb4
 8005852:	687b      	ldr	r3, [r7, #4]
 8005854:	681b      	ldr	r3, [r3, #0]
 8005856:	3314      	adds	r3, #20
 8005858:	f8d7 20b4 	ldr.w	r2, [r7, #180]	@ 0xb4
 800585c:	f8c7 2080 	str.w	r2, [r7, #128]	@ 0x80
 8005860:	67fb      	str	r3, [r7, #124]	@ 0x7c
   __ASM volatile ("strex %0, %2, %1" : "=&r" (result), "=Q" (*addr) : "r" (value) );
 8005862:	6ff9      	ldr	r1, [r7, #124]	@ 0x7c
 8005864:	f8d7 2080 	ldr.w	r2, [r7, #128]	@ 0x80
 8005868:	e841 2300 	strex	r3, r2, [r1]
 800586c:	67bb      	str	r3, [r7, #120]	@ 0x78
   return(result);
 800586e:	6fbb      	ldr	r3, [r7, #120]	@ 0x78
 8005870:	2b00      	cmp	r3, #0
 8005872:	d1e1      	bne.n	8005838 <HAL_UART_IRQHandler+0x2fc>

          /* Disable the DMA transfer for the receiver request by resetting the DMAR bit
             in the UART CR3 register */
          ATOMIC_CLEAR_BIT(huart->Instance->CR3, USART_CR3_DMAR);
 8005874:	687b      	ldr	r3, [r7, #4]
 8005876:	681b      	ldr	r3, [r3, #0]
 8005878:	3314      	adds	r3, #20
 800587a:	663b      	str	r3, [r7, #96]	@ 0x60
   __ASM volatile ("ldrex %0, %1" : "=r" (result) : "Q" (*addr) );
 800587c:	6e3b      	ldr	r3, [r7, #96]	@ 0x60
 800587e:	e853 3f00 	ldrex	r3, [r3]
 8005882:	65fb      	str	r3, [r7, #92]	@ 0x5c
   return(result);
 8005884:	6dfb      	ldr	r3, [r7, #92]	@ 0x5c
 8005886:	f023 0340 	bic.w	r3, r3, #64	@ 0x40
 800588a:	f8c7 30b0 	str.w	r3, [r7, #176]	@ 0xb0
 800588e:	687b      	ldr	r3, [r7, #4]
 8005890:	681b      	ldr	r3, [r3, #0]
 8005892:	3314      	adds	r3, #20
 8005894:	f8d7 20b0 	ldr.w	r2, [r7, #176]	@ 0xb0
 8005898:	66fa      	str	r2, [r7, #108]	@ 0x6c
 800589a:	66bb      	str	r3, [r7, #104]	@ 0x68
   __ASM volatile ("strex %0, %2, %1" : "=&r" (result), "=Q" (*addr) : "r" (value) );
 800589c:	6eb9      	ldr	r1, [r7, #104]	@ 0x68
 800589e:	6efa      	ldr	r2, [r7, #108]	@ 0x6c
 80058a0:	e841 2300 	strex	r3, r2, [r1]
 80058a4:	667b      	str	r3, [r7, #100]	@ 0x64
   return(result);
 80058a6:	6e7b      	ldr	r3, [r7, #100]	@ 0x64
 80058a8:	2b00      	cmp	r3, #0
 80058aa:	d1e3      	bne.n	8005874 <HAL_UART_IRQHandler+0x338>

          /* At end of Rx process, restore huart->RxState to Ready */
          huart->RxState = HAL_UART_STATE_READY;
 80058ac:	687b      	ldr	r3, [r7, #4]
 80058ae:	2220      	movs	r2, #32
 80058b0:	f883 2042 	strb.w	r2, [r3, #66]	@ 0x42
          huart->ReceptionType = HAL_UART_RECEPTION_STANDARD;
 80058b4:	687b      	ldr	r3, [r7, #4]
 80058b6:	2200      	movs	r2, #0
 80058b8:	631a      	str	r2, [r3, #48]	@ 0x30

          ATOMIC_CLEAR_BIT(huart->Instance->CR1, USART_CR1_IDLEIE);
 80058ba:	687b      	ldr	r3, [r7, #4]
 80058bc:	681b      	ldr	r3, [r3, #0]
 80058be:	330c      	adds	r3, #12
 80058c0:	64fb      	str	r3, [r7, #76]	@ 0x4c
   __ASM volatile ("ldrex %0, %1" : "=r" (result) : "Q" (*addr) );
 80058c2:	6cfb      	ldr	r3, [r7, #76]	@ 0x4c
 80058c4:	e853 3f00 	ldrex	r3, [r3]
 80058c8:	64bb      	str	r3, [r7, #72]	@ 0x48
   return(result);
 80058ca:	6cbb      	ldr	r3, [r7, #72]	@ 0x48
 80058cc:	f023 0310 	bic.w	r3, r3, #16
 80058d0:	f8c7 30ac 	str.w	r3, [r7, #172]	@ 0xac
 80058d4:	687b      	ldr	r3, [r7, #4]
 80058d6:	681b      	ldr	r3, [r3, #0]
 80058d8:	330c      	adds	r3, #12
 80058da:	f8d7 20ac 	ldr.w	r2, [r7, #172]	@ 0xac
 80058de:	65ba      	str	r2, [r7, #88]	@ 0x58
 80058e0:	657b      	str	r3, [r7, #84]	@ 0x54
   __ASM volatile ("strex %0, %2, %1" : "=&r" (result), "=Q" (*addr) : "r" (value) );
 80058e2:	6d79      	ldr	r1, [r7, #84]	@ 0x54
 80058e4:	6dba      	ldr	r2, [r7, #88]	@ 0x58
 80058e6:	e841 2300 	strex	r3, r2, [r1]
 80058ea:	653b      	str	r3, [r7, #80]	@ 0x50
   return(result);
 80058ec:	6d3b      	ldr	r3, [r7, #80]	@ 0x50
 80058ee:	2b00      	cmp	r3, #0
 80058f0:	d1e3      	bne.n	80058ba <HAL_UART_IRQHandler+0x37e>

          /* Last bytes received, so no need as the abort is immediate */
          (void)HAL_DMA_Abort(huart->hdmarx);
 80058f2:	687b      	ldr	r3, [r7, #4]
 80058f4:	6bdb      	ldr	r3, [r3, #60]	@ 0x3c
 80058f6:	4618      	mov	r0, r3
 80058f8:	f7fe fd65 	bl	80043c6 <HAL_DMA_Abort>
        }

        /* Initialize type of RxEvent that correspond to RxEvent callback execution;
        In this case, Rx Event type is Idle Event */
        huart->RxEventType = HAL_UART_RXEVENT_IDLE;
 80058fc:	687b      	ldr	r3, [r7, #4]
 80058fe:	2202      	movs	r2, #2
 8005900:	635a      	str	r2, [r3, #52]	@ 0x34
#if (USE_HAL_UART_REGISTER_CALLBACKS == 1)
        /*Call registered Rx Event callback*/
        huart->RxEventCallback(huart, (huart->RxXferSize - huart->RxXferCount));
#else
        /*Call legacy weak Rx Event callback*/
        HAL_UARTEx_RxEventCallback(huart, (huart->RxXferSize - huart->RxXferCount));
 8005902:	687b      	ldr	r3, [r7, #4]
 8005904:	8d9a      	ldrh	r2, [r3, #44]	@ 0x2c
 8005906:	687b      	ldr	r3, [r7, #4]
 8005908:	8ddb      	ldrh	r3, [r3, #46]	@ 0x2e
 800590a:	b29b      	uxth	r3, r3
 800590c:	1ad3      	subs	r3, r2, r3
 800590e:	b29b      	uxth	r3, r3
 8005910:	4619      	mov	r1, r3
 8005912:	6878      	ldr	r0, [r7, #4]
 8005914:	f000 f8ad 	bl	8005a72 <HAL_UARTEx_RxEventCallback>
#endif /* USE_HAL_UART_REGISTER_CALLBACKS */
      }
      return;
 8005918:	e09c      	b.n	8005a54 <HAL_UART_IRQHandler+0x518>
 800591a:	bf00      	nop
 800591c:	08005c71 	.word	0x08005c71
    else
    {
      /* DMA mode not enabled */
      /* Check received length : If all expected data are received, do nothing.
         Otherwise, if at least one data has already been received, IDLE event is to be notified to user */
      uint16_t nb_rx_data = huart->RxXferSize - huart->RxXferCount;
 8005920:	687b      	ldr	r3, [r7, #4]
 8005922:	8d9a      	ldrh	r2, [r3, #44]	@ 0x2c
 8005924:	687b      	ldr	r3, [r7, #4]
 8005926:	8ddb      	ldrh	r3, [r3, #46]	@ 0x2e
 8005928:	b29b      	uxth	r3, r3
 800592a:	1ad3      	subs	r3, r2, r3
 800592c:	f8a7 30ce 	strh.w	r3, [r7, #206]	@ 0xce
      if ((huart->RxXferCount > 0U)
 8005930:	687b      	ldr	r3, [r7, #4]
 8005932:	8ddb      	ldrh	r3, [r3, #46]	@ 0x2e
 8005934:	b29b      	uxth	r3, r3
 8005936:	2b00      	cmp	r3, #0
 8005938:	f000 808e 	beq.w	8005a58 <HAL_UART_IRQHandler+0x51c>
          && (nb_rx_data > 0U))
 800593c:	f8b7 30ce 	ldrh.w	r3, [r7, #206]	@ 0xce
 8005940:	2b00      	cmp	r3, #0
 8005942:	f000 8089 	beq.w	8005a58 <HAL_UART_IRQHandler+0x51c>
      {
        /* Disable the UART Parity Error Interrupt and RXNE interrupts */
        ATOMIC_CLEAR_BIT(huart->Instance->CR1, (USART_CR1_RXNEIE | USART_CR1_PEIE));
 8005946:	687b      	ldr	r3, [r7, #4]
 8005948:	681b      	ldr	r3, [r3, #0]
 800594a:	330c      	adds	r3, #12
 800594c:	63bb      	str	r3, [r7, #56]	@ 0x38
   __ASM volatile ("ldrex %0, %1" : "=r" (result) : "Q" (*addr) );
 800594e:	6bbb      	ldr	r3, [r7, #56]	@ 0x38
 8005950:	e853 3f00 	ldrex	r3, [r3]
 8005954:	637b      	str	r3, [r7, #52]	@ 0x34
   return(result);
 8005956:	6b7b      	ldr	r3, [r7, #52]	@ 0x34
 8005958:	f423 7390 	bic.w	r3, r3, #288	@ 0x120
 800595c:	f8c7 30c8 	str.w	r3, [r7, #200]	@ 0xc8
 8005960:	687b      	ldr	r3, [r7, #4]
 8005962:	681b      	ldr	r3, [r3, #0]
 8005964:	330c      	adds	r3, #12
 8005966:	f8d7 20c8 	ldr.w	r2, [r7, #200]	@ 0xc8
 800596a:	647a      	str	r2, [r7, #68]	@ 0x44
 800596c:	643b      	str	r3, [r7, #64]	@ 0x40
   __ASM volatile ("strex %0, %2, %1" : "=&r" (result), "=Q" (*addr) : "r" (value) );
 800596e:	6c39      	ldr	r1, [r7, #64]	@ 0x40
 8005970:	6c7a      	ldr	r2, [r7, #68]	@ 0x44
 8005972:	e841 2300 	strex	r3, r2, [r1]
 8005976:	63fb      	str	r3, [r7, #60]	@ 0x3c
   return(result);
 8005978:	6bfb      	ldr	r3, [r7, #60]	@ 0x3c
 800597a:	2b00      	cmp	r3, #0
 800597c:	d1e3      	bne.n	8005946 <HAL_UART_IRQHandler+0x40a>

        /* Disable the UART Error Interrupt: (Frame error, noise error, overrun error) */
        ATOMIC_CLEAR_BIT(huart->Instance->CR3, USART_CR3_EIE);
 800597e:	687b      	ldr	r3, [r7, #4]
 8005980:	681b      	ldr	r3, [r3, #0]
 8005982:	3314      	adds	r3, #20
 8005984:	627b      	str	r3, [r7, #36]	@ 0x24
   __ASM volatile ("ldrex %0, %1" : "=r" (result) : "Q" (*addr) );
 8005986:	6a7b      	ldr	r3, [r7, #36]	@ 0x24
 8005988:	e853 3f00 	ldrex	r3, [r3]
 800598c:	623b      	str	r3, [r7, #32]
   return(result);
 800598e:	6a3b      	ldr	r3, [r7, #32]
 8005990:	f023 0301 	bic.w	r3, r3, #1
 8005994:	f8c7 30c4 	str.w	r3, [r7, #196]	@ 0xc4
 8005998:	687b      	ldr	r3, [r7, #4]
 800599a:	681b      	ldr	r3, [r3, #0]
 800599c:	3314      	adds	r3, #20
 800599e:	f8d7 20c4 	ldr.w	r2, [r7, #196]	@ 0xc4
 80059a2:	633a      	str	r2, [r7, #48]	@ 0x30
 80059a4:	62fb      	str	r3, [r7, #44]	@ 0x2c
   __ASM volatile ("strex %0, %2, %1" : "=&r" (result), "=Q" (*addr) : "r" (value) );
 80059a6:	6af9      	ldr	r1, [r7, #44]	@ 0x2c
 80059a8:	6b3a      	ldr	r2, [r7, #48]	@ 0x30
 80059aa:	e841 2300 	strex	r3, r2, [r1]
 80059ae:	62bb      	str	r3, [r7, #40]	@ 0x28
   return(result);
 80059b0:	6abb      	ldr	r3, [r7, #40]	@ 0x28
 80059b2:	2b00      	cmp	r3, #0
 80059b4:	d1e3      	bne.n	800597e <HAL_UART_IRQHandler+0x442>

        /* Rx process is completed, restore huart->RxState to Ready */
        huart->RxState = HAL_UART_STATE_READY;
 80059b6:	687b      	ldr	r3, [r7, #4]
 80059b8:	2220      	movs	r2, #32
 80059ba:	f883 2042 	strb.w	r2, [r3, #66]	@ 0x42
        huart->ReceptionType = HAL_UART_RECEPTION_STANDARD;
 80059be:	687b      	ldr	r3, [r7, #4]
 80059c0:	2200      	movs	r2, #0
 80059c2:	631a      	str	r2, [r3, #48]	@ 0x30

        ATOMIC_CLEAR_BIT(huart->Instance->CR1, USART_CR1_IDLEIE);
 80059c4:	687b      	ldr	r3, [r7, #4]
 80059c6:	681b      	ldr	r3, [r3, #0]
 80059c8:	330c      	adds	r3, #12
 80059ca:	613b      	str	r3, [r7, #16]
   __ASM volatile ("ldrex %0, %1" : "=r" (result) : "Q" (*addr) );
 80059cc:	693b      	ldr	r3, [r7, #16]
 80059ce:	e853 3f00 	ldrex	r3, [r3]
 80059d2:	60fb      	str	r3, [r7, #12]
   return(result);
 80059d4:	68fb      	ldr	r3, [r7, #12]
 80059d6:	f023 0310 	bic.w	r3, r3, #16
 80059da:	f8c7 30c0 	str.w	r3, [r7, #192]	@ 0xc0
 80059de:	687b      	ldr	r3, [r7, #4]
 80059e0:	681b      	ldr	r3, [r3, #0]
 80059e2:	330c      	adds	r3, #12
 80059e4:	f8d7 20c0 	ldr.w	r2, [r7, #192]	@ 0xc0
 80059e8:	61fa      	str	r2, [r7, #28]
 80059ea:	61bb      	str	r3, [r7, #24]
   __ASM volatile ("strex %0, %2, %1" : "=&r" (result), "=Q" (*addr) : "r" (value) );
 80059ec:	69b9      	ldr	r1, [r7, #24]
 80059ee:	69fa      	ldr	r2, [r7, #28]
 80059f0:	e841 2300 	strex	r3, r2, [r1]
 80059f4:	617b      	str	r3, [r7, #20]
   return(result);
 80059f6:	697b      	ldr	r3, [r7, #20]
 80059f8:	2b00      	cmp	r3, #0
 80059fa:	d1e3      	bne.n	80059c4 <HAL_UART_IRQHandler+0x488>

        /* Initialize type of RxEvent that correspond to RxEvent callback execution;
           In this case, Rx Event type is Idle Event */
        huart->RxEventType = HAL_UART_RXEVENT_IDLE;
 80059fc:	687b      	ldr	r3, [r7, #4]
 80059fe:	2202      	movs	r2, #2
 8005a00:	635a      	str	r2, [r3, #52]	@ 0x34
#if (USE_HAL_UART_REGISTER_CALLBACKS == 1)
        /*Call registered Rx complete callback*/
        huart->RxEventCallback(huart, nb_rx_data);
#else
        /*Call legacy weak Rx Event callback*/
        HAL_UARTEx_RxEventCallback(huart, nb_rx_data);
 8005a02:	f8b7 30ce 	ldrh.w	r3, [r7, #206]	@ 0xce
 8005a06:	4619      	mov	r1, r3
 8005a08:	6878      	ldr	r0, [r7, #4]
 8005a0a:	f000 f832 	bl	8005a72 <HAL_UARTEx_RxEventCallback>
#endif /* USE_HAL_UART_REGISTER_CALLBACKS */
      }
      return;
 8005a0e:	e023      	b.n	8005a58 <HAL_UART_IRQHandler+0x51c>
    }
  }

  /* UART in mode Transmitter ------------------------------------------------*/
  if (((isrflags & USART_SR_TXE) != RESET) && ((cr1its & USART_CR1_TXEIE) != RESET))
 8005a10:	f8d7 30e4 	ldr.w	r3, [r7, #228]	@ 0xe4
 8005a14:	f003 0380 	and.w	r3, r3, #128	@ 0x80
 8005a18:	2b00      	cmp	r3, #0
 8005a1a:	d009      	beq.n	8005a30 <HAL_UART_IRQHandler+0x4f4>
 8005a1c:	f8d7 30e0 	ldr.w	r3, [r7, #224]	@ 0xe0
 8005a20:	f003 0380 	and.w	r3, r3, #128	@ 0x80
 8005a24:	2b00      	cmp	r3, #0
 8005a26:	d003      	beq.n	8005a30 <HAL_UART_IRQHandler+0x4f4>
  {
    UART_Transmit_IT(huart);
 8005a28:	6878      	ldr	r0, [r7, #4]
 8005a2a:	f000 f935 	bl	8005c98 <UART_Transmit_IT>
    return;
 8005a2e:	e014      	b.n	8005a5a <HAL_UART_IRQHandler+0x51e>
  }

  /* UART in mode Transmitter end --------------------------------------------*/
  if (((isrflags & USART_SR_TC) != RESET) && ((cr1its & USART_CR1_TCIE) != RESET))
 8005a30:	f8d7 30e4 	ldr.w	r3, [r7, #228]	@ 0xe4
 8005a34:	f003 0340 	and.w	r3, r3, #64	@ 0x40
 8005a38:	2b00      	cmp	r3, #0
 8005a3a:	d00e      	beq.n	8005a5a <HAL_UART_IRQHandler+0x51e>
 8005a3c:	f8d7 30e0 	ldr.w	r3, [r7, #224]	@ 0xe0
 8005a40:	f003 0340 	and.w	r3, r3, #64	@ 0x40
 8005a44:	2b00      	cmp	r3, #0
 8005a46:	d008      	beq.n	8005a5a <HAL_UART_IRQHandler+0x51e>
  {
    UART_EndTransmit_IT(huart);
 8005a48:	6878      	ldr	r0, [r7, #4]
 8005a4a:	f000 f974 	bl	8005d36 <UART_EndTransmit_IT>
    return;
 8005a4e:	e004      	b.n	8005a5a <HAL_UART_IRQHandler+0x51e>
    return;
 8005a50:	bf00      	nop
 8005a52:	e002      	b.n	8005a5a <HAL_UART_IRQHandler+0x51e>
      return;
 8005a54:	bf00      	nop
 8005a56:	e000      	b.n	8005a5a <HAL_UART_IRQHandler+0x51e>
      return;
 8005a58:	bf00      	nop
  }
}
 8005a5a:	37e8      	adds	r7, #232	@ 0xe8
 8005a5c:	46bd      	mov	sp, r7
 8005a5e:	bd80      	pop	{r7, pc}

08005a60 <HAL_UART_TxCpltCallback>:
  * @param  huart  Pointer to a UART_HandleTypeDef structure that contains
  *                the configuration information for the specified UART module.
  * @retval None
  */
__weak void HAL_UART_TxCpltCallback(UART_HandleTypeDef *huart)
{
 8005a60:	b480      	push	{r7}
 8005a62:	b083      	sub	sp, #12
 8005a64:	af00      	add	r7, sp, #0
 8005a66:	6078      	str	r0, [r7, #4]
  /* Prevent unused argument(s) compilation warning */
  UNUSED(huart);
  /* NOTE: This function should not be modified, when the callback is needed,
           the HAL_UART_TxCpltCallback could be implemented in the user file
   */
}
 8005a68:	bf00      	nop
 8005a6a:	370c      	adds	r7, #12
 8005a6c:	46bd      	mov	sp, r7
 8005a6e:	bc80      	pop	{r7}
 8005a70:	4770      	bx	lr

08005a72 <HAL_UARTEx_RxEventCallback>:
  * @param  Size  Number of data available in application reception buffer (indicates a position in
  *               reception buffer until which, data are available)
  * @retval None
  */
__weak void HAL_UARTEx_RxEventCallback(UART_HandleTypeDef *huart, uint16_t Size)
{
 8005a72:	b480      	push	{r7}
 8005a74:	b083      	sub	sp, #12
 8005a76:	af00      	add	r7, sp, #0
 8005a78:	6078      	str	r0, [r7, #4]
 8005a7a:	460b      	mov	r3, r1
 8005a7c:	807b      	strh	r3, [r7, #2]
  UNUSED(Size);

  /* NOTE : This function should not be modified, when the callback is needed,
            the HAL_UARTEx_RxEventCallback can be implemented in the user file.
   */
}
 8005a7e:	bf00      	nop
 8005a80:	370c      	adds	r7, #12
 8005a82:	46bd      	mov	sp, r7
 8005a84:	bc80      	pop	{r7}
 8005a86:	4770      	bx	lr

08005a88 <UART_WaitOnFlagUntilTimeout>:
  * @param  Timeout Timeout duration
  * @retval HAL status
  */
static HAL_StatusTypeDef UART_WaitOnFlagUntilTimeout(UART_HandleTypeDef *huart, uint32_t Flag, FlagStatus Status,
                                                     uint32_t Tickstart, uint32_t Timeout)
{
 8005a88:	b580      	push	{r7, lr}
 8005a8a:	b086      	sub	sp, #24
 8005a8c:	af00      	add	r7, sp, #0
 8005a8e:	60f8      	str	r0, [r7, #12]
 8005a90:	60b9      	str	r1, [r7, #8]
 8005a92:	603b      	str	r3, [r7, #0]
 8005a94:	4613      	mov	r3, r2
 8005a96:	71fb      	strb	r3, [r7, #7]
  /* Wait until flag is set */
  while ((__HAL_UART_GET_FLAG(huart, Flag) ? SET : RESET) == Status)
 8005a98:	e03b      	b.n	8005b12 <UART_WaitOnFlagUntilTimeout+0x8a>
  {
    /* Check for the Timeout */
    if (Timeout != HAL_MAX_DELAY)
 8005a9a:	6a3b      	ldr	r3, [r7, #32]
 8005a9c:	f1b3 3fff 	cmp.w	r3, #4294967295
 8005aa0:	d037      	beq.n	8005b12 <UART_WaitOnFlagUntilTimeout+0x8a>
    {
      if (((HAL_GetTick() - Tickstart) > Timeout) || (Timeout == 0U))
 8005aa2:	f7fe fa59 	bl	8003f58 <HAL_GetTick>
 8005aa6:	4602      	mov	r2, r0
 8005aa8:	683b      	ldr	r3, [r7, #0]
 8005aaa:	1ad3      	subs	r3, r2, r3
 8005aac:	6a3a      	ldr	r2, [r7, #32]
 8005aae:	429a      	cmp	r2, r3
 8005ab0:	d302      	bcc.n	8005ab8 <UART_WaitOnFlagUntilTimeout+0x30>
 8005ab2:	6a3b      	ldr	r3, [r7, #32]
 8005ab4:	2b00      	cmp	r3, #0
 8005ab6:	d101      	bne.n	8005abc <UART_WaitOnFlagUntilTimeout+0x34>
      {

        return HAL_TIMEOUT;
 8005ab8:	2303      	movs	r3, #3
 8005aba:	e03a      	b.n	8005b32 <UART_WaitOnFlagUntilTimeout+0xaa>
      }

      if ((READ_BIT(huart->Instance->CR1, USART_CR1_RE) != 0U) && (Flag != UART_FLAG_TXE) && (Flag != UART_FLAG_TC))
 8005abc:	68fb      	ldr	r3, [r7, #12]
 8005abe:	681b      	ldr	r3, [r3, #0]
 8005ac0:	68db      	ldr	r3, [r3, #12]
 8005ac2:	f003 0304 	and.w	r3, r3, #4
 8005ac6:	2b00      	cmp	r3, #0
 8005ac8:	d023      	beq.n	8005b12 <UART_WaitOnFlagUntilTimeout+0x8a>
 8005aca:	68bb      	ldr	r3, [r7, #8]
 8005acc:	2b80      	cmp	r3, #128	@ 0x80
 8005ace:	d020      	beq.n	8005b12 <UART_WaitOnFlagUntilTimeout+0x8a>
 8005ad0:	68bb      	ldr	r3, [r7, #8]
 8005ad2:	2b40      	cmp	r3, #64	@ 0x40
 8005ad4:	d01d      	beq.n	8005b12 <UART_WaitOnFlagUntilTimeout+0x8a>
      {
        if (__HAL_UART_GET_FLAG(huart, UART_FLAG_ORE) == SET)
 8005ad6:	68fb      	ldr	r3, [r7, #12]
 8005ad8:	681b      	ldr	r3, [r3, #0]
 8005ada:	681b      	ldr	r3, [r3, #0]
 8005adc:	f003 0308 	and.w	r3, r3, #8
 8005ae0:	2b08      	cmp	r3, #8
 8005ae2:	d116      	bne.n	8005b12 <UART_WaitOnFlagUntilTimeout+0x8a>
        {
          /* Clear Overrun Error flag*/
          __HAL_UART_CLEAR_OREFLAG(huart);
 8005ae4:	2300      	movs	r3, #0
 8005ae6:	617b      	str	r3, [r7, #20]
 8005ae8:	68fb      	ldr	r3, [r7, #12]
 8005aea:	681b      	ldr	r3, [r3, #0]
 8005aec:	681b      	ldr	r3, [r3, #0]
 8005aee:	617b      	str	r3, [r7, #20]
 8005af0:	68fb      	ldr	r3, [r7, #12]
 8005af2:	681b      	ldr	r3, [r3, #0]
 8005af4:	685b      	ldr	r3, [r3, #4]
 8005af6:	617b      	str	r3, [r7, #20]
 8005af8:	697b      	ldr	r3, [r7, #20]

          /* Blocking error : transfer is aborted
          Set the UART state ready to be able to start again the process,
          Disable Rx Interrupts if ongoing */
          UART_EndRxTransfer(huart);
 8005afa:	68f8      	ldr	r0, [r7, #12]
 8005afc:	f000 f856 	bl	8005bac <UART_EndRxTransfer>

          huart->ErrorCode = HAL_UART_ERROR_ORE;
 8005b00:	68fb      	ldr	r3, [r7, #12]
 8005b02:	2208      	movs	r2, #8
 8005b04:	645a      	str	r2, [r3, #68]	@ 0x44

          /* Process Unlocked */
          __HAL_UNLOCK(huart);
 8005b06:	68fb      	ldr	r3, [r7, #12]
 8005b08:	2200      	movs	r2, #0
 8005b0a:	f883 2040 	strb.w	r2, [r3, #64]	@ 0x40

          return HAL_ERROR;
 8005b0e:	2301      	movs	r3, #1
 8005b10:	e00f      	b.n	8005b32 <UART_WaitOnFlagUntilTimeout+0xaa>
  while ((__HAL_UART_GET_FLAG(huart, Flag) ? SET : RESET) == Status)
 8005b12:	68fb      	ldr	r3, [r7, #12]
 8005b14:	681b      	ldr	r3, [r3, #0]
 8005b16:	681a      	ldr	r2, [r3, #0]
 8005b18:	68bb      	ldr	r3, [r7, #8]
 8005b1a:	4013      	ands	r3, r2
 8005b1c:	68ba      	ldr	r2, [r7, #8]
 8005b1e:	429a      	cmp	r2, r3
 8005b20:	bf0c      	ite	eq
 8005b22:	2301      	moveq	r3, #1
 8005b24:	2300      	movne	r3, #0
 8005b26:	b2db      	uxtb	r3, r3
 8005b28:	461a      	mov	r2, r3
 8005b2a:	79fb      	ldrb	r3, [r7, #7]
 8005b2c:	429a      	cmp	r2, r3
 8005b2e:	d0b4      	beq.n	8005a9a <UART_WaitOnFlagUntilTimeout+0x12>
        }
      }
    }
  }
  return HAL_OK;
 8005b30:	2300      	movs	r3, #0
}
 8005b32:	4618      	mov	r0, r3
 8005b34:	3718      	adds	r7, #24
 8005b36:	46bd      	mov	sp, r7
 8005b38:	bd80      	pop	{r7, pc}

08005b3a <UART_Start_Receive_IT>:
  * @param  pData Pointer to data buffer (u8 or u16 data elements).
  * @param  Size  Amount of data elements (u8 or u16) to be received.
  * @retval HAL status
  */
HAL_StatusTypeDef UART_Start_Receive_IT(UART_HandleTypeDef *huart, uint8_t *pData, uint16_t Size)
{
 8005b3a:	b480      	push	{r7}
 8005b3c:	b085      	sub	sp, #20
 8005b3e:	af00      	add	r7, sp, #0
 8005b40:	60f8      	str	r0, [r7, #12]
 8005b42:	60b9      	str	r1, [r7, #8]
 8005b44:	4613      	mov	r3, r2
 8005b46:	80fb      	strh	r3, [r7, #6]
  huart->pRxBuffPtr = pData;
 8005b48:	68fb      	ldr	r3, [r7, #12]
 8005b4a:	68ba      	ldr	r2, [r7, #8]
 8005b4c:	629a      	str	r2, [r3, #40]	@ 0x28
  huart->RxXferSize = Size;
 8005b4e:	68fb      	ldr	r3, [r7, #12]
 8005b50:	88fa      	ldrh	r2, [r7, #6]
 8005b52:	859a      	strh	r2, [r3, #44]	@ 0x2c
  huart->RxXferCount = Size;
 8005b54:	68fb      	ldr	r3, [r7, #12]
 8005b56:	88fa      	ldrh	r2, [r7, #6]
 8005b58:	85da      	strh	r2, [r3, #46]	@ 0x2e

  huart->ErrorCode = HAL_UART_ERROR_NONE;
 8005b5a:	68fb      	ldr	r3, [r7, #12]
 8005b5c:	2200      	movs	r2, #0
 8005b5e:	645a      	str	r2, [r3, #68]	@ 0x44
  huart->RxState = HAL_UART_STATE_BUSY_RX;
 8005b60:	68fb      	ldr	r3, [r7, #12]
 8005b62:	2222      	movs	r2, #34	@ 0x22
 8005b64:	f883 2042 	strb.w	r2, [r3, #66]	@ 0x42

  if (huart->Init.Parity != UART_PARITY_NONE)
 8005b68:	68fb      	ldr	r3, [r7, #12]
 8005b6a:	691b      	ldr	r3, [r3, #16]
 8005b6c:	2b00      	cmp	r3, #0
 8005b6e:	d007      	beq.n	8005b80 <UART_Start_Receive_IT+0x46>
  {
    /* Enable the UART Parity Error Interrupt */
    __HAL_UART_ENABLE_IT(huart, UART_IT_PE);
 8005b70:	68fb      	ldr	r3, [r7, #12]
 8005b72:	681b      	ldr	r3, [r3, #0]
 8005b74:	68da      	ldr	r2, [r3, #12]
 8005b76:	68fb      	ldr	r3, [r7, #12]
 8005b78:	681b      	ldr	r3, [r3, #0]
 8005b7a:	f442 7280 	orr.w	r2, r2, #256	@ 0x100
 8005b7e:	60da      	str	r2, [r3, #12]
  }

  /* Enable the UART Error Interrupt: (Frame error, noise error, overrun error) */
  __HAL_UART_ENABLE_IT(huart, UART_IT_ERR);
 8005b80:	68fb      	ldr	r3, [r7, #12]
 8005b82:	681b      	ldr	r3, [r3, #0]
 8005b84:	695a      	ldr	r2, [r3, #20]
 8005b86:	68fb      	ldr	r3, [r7, #12]
 8005b88:	681b      	ldr	r3, [r3, #0]
 8005b8a:	f042 0201 	orr.w	r2, r2, #1
 8005b8e:	615a      	str	r2, [r3, #20]

  /* Enable the UART Data Register not empty Interrupt */
  __HAL_UART_ENABLE_IT(huart, UART_IT_RXNE);
 8005b90:	68fb      	ldr	r3, [r7, #12]
 8005b92:	681b      	ldr	r3, [r3, #0]
 8005b94:	68da      	ldr	r2, [r3, #12]
 8005b96:	68fb      	ldr	r3, [r7, #12]
 8005b98:	681b      	ldr	r3, [r3, #0]
 8005b9a:	f042 0220 	orr.w	r2, r2, #32
 8005b9e:	60da      	str	r2, [r3, #12]

  return HAL_OK;
 8005ba0:	2300      	movs	r3, #0
}
 8005ba2:	4618      	mov	r0, r3
 8005ba4:	3714      	adds	r7, #20
 8005ba6:	46bd      	mov	sp, r7
 8005ba8:	bc80      	pop	{r7}
 8005baa:	4770      	bx	lr

08005bac <UART_EndRxTransfer>:
  * @brief  End ongoing Rx transfer on UART peripheral (following error detection or Reception completion).
  * @param  huart UART handle.
  * @retval None
  */
static void UART_EndRxTransfer(UART_HandleTypeDef *huart)
{
 8005bac:	b480      	push	{r7}
 8005bae:	b095      	sub	sp, #84	@ 0x54
 8005bb0:	af00      	add	r7, sp, #0
 8005bb2:	6078      	str	r0, [r7, #4]
  /* Disable RXNE, PE and ERR (Frame error, noise error, overrun error) interrupts */
  ATOMIC_CLEAR_BIT(huart->Instance->CR1, (USART_CR1_RXNEIE | USART_CR1_PEIE));
 8005bb4:	687b      	ldr	r3, [r7, #4]
 8005bb6:	681b      	ldr	r3, [r3, #0]
 8005bb8:	330c      	adds	r3, #12
 8005bba:	637b      	str	r3, [r7, #52]	@ 0x34
   __ASM volatile ("ldrex %0, %1" : "=r" (result) : "Q" (*addr) );
 8005bbc:	6b7b      	ldr	r3, [r7, #52]	@ 0x34
 8005bbe:	e853 3f00 	ldrex	r3, [r3]
 8005bc2:	633b      	str	r3, [r7, #48]	@ 0x30
   return(result);
 8005bc4:	6b3b      	ldr	r3, [r7, #48]	@ 0x30
 8005bc6:	f423 7390 	bic.w	r3, r3, #288	@ 0x120
 8005bca:	64fb      	str	r3, [r7, #76]	@ 0x4c
 8005bcc:	687b      	ldr	r3, [r7, #4]
 8005bce:	681b      	ldr	r3, [r3, #0]
 8005bd0:	330c      	adds	r3, #12
 8005bd2:	6cfa      	ldr	r2, [r7, #76]	@ 0x4c
 8005bd4:	643a      	str	r2, [r7, #64]	@ 0x40
 8005bd6:	63fb      	str	r3, [r7, #60]	@ 0x3c
   __ASM volatile ("strex %0, %2, %1" : "=&r" (result), "=Q" (*addr) : "r" (value) );
 8005bd8:	6bf9      	ldr	r1, [r7, #60]	@ 0x3c
 8005bda:	6c3a      	ldr	r2, [r7, #64]	@ 0x40
 8005bdc:	e841 2300 	strex	r3, r2, [r1]
 8005be0:	63bb      	str	r3, [r7, #56]	@ 0x38
   return(result);
 8005be2:	6bbb      	ldr	r3, [r7, #56]	@ 0x38
 8005be4:	2b00      	cmp	r3, #0
 8005be6:	d1e5      	bne.n	8005bb4 <UART_EndRxTransfer+0x8>
  ATOMIC_CLEAR_BIT(huart->Instance->CR3, USART_CR3_EIE);
 8005be8:	687b      	ldr	r3, [r7, #4]
 8005bea:	681b      	ldr	r3, [r3, #0]
 8005bec:	3314      	adds	r3, #20
 8005bee:	623b      	str	r3, [r7, #32]
   __ASM volatile ("ldrex %0, %1" : "=r" (result) : "Q" (*addr) );
 8005bf0:	6a3b      	ldr	r3, [r7, #32]
 8005bf2:	e853 3f00 	ldrex	r3, [r3]
 8005bf6:	61fb      	str	r3, [r7, #28]
   return(result);
 8005bf8:	69fb      	ldr	r3, [r7, #28]
 8005bfa:	f023 0301 	bic.w	r3, r3, #1
 8005bfe:	64bb      	str	r3, [r7, #72]	@ 0x48
 8005c00:	687b      	ldr	r3, [r7, #4]
 8005c02:	681b      	ldr	r3, [r3, #0]
 8005c04:	3314      	adds	r3, #20
 8005c06:	6cba      	ldr	r2, [r7, #72]	@ 0x48
 8005c08:	62fa      	str	r2, [r7, #44]	@ 0x2c
 8005c0a:	62bb      	str	r3, [r7, #40]	@ 0x28
   __ASM volatile ("strex %0, %2, %1" : "=&r" (result), "=Q" (*addr) : "r" (value) );
 8005c0c:	6ab9      	ldr	r1, [r7, #40]	@ 0x28
 8005c0e:	6afa      	ldr	r2, [r7, #44]	@ 0x2c
 8005c10:	e841 2300 	strex	r3, r2, [r1]
 8005c14:	627b      	str	r3, [r7, #36]	@ 0x24
   return(result);
 8005c16:	6a7b      	ldr	r3, [r7, #36]	@ 0x24
 8005c18:	2b00      	cmp	r3, #0
 8005c1a:	d1e5      	bne.n	8005be8 <UART_EndRxTransfer+0x3c>

  /* In case of reception waiting for IDLE event, disable also the IDLE IE interrupt source */
  if (huart->ReceptionType == HAL_UART_RECEPTION_TOIDLE)
 8005c1c:	687b      	ldr	r3, [r7, #4]
 8005c1e:	6b1b      	ldr	r3, [r3, #48]	@ 0x30
 8005c20:	2b01      	cmp	r3, #1
 8005c22:	d119      	bne.n	8005c58 <UART_EndRxTransfer+0xac>
  {
    ATOMIC_CLEAR_BIT(huart->Instance->CR1, USART_CR1_IDLEIE);
 8005c24:	687b      	ldr	r3, [r7, #4]
 8005c26:	681b      	ldr	r3, [r3, #0]
 8005c28:	330c      	adds	r3, #12
 8005c2a:	60fb      	str	r3, [r7, #12]
   __ASM volatile ("ldrex %0, %1" : "=r" (result) : "Q" (*addr) );
 8005c2c:	68fb      	ldr	r3, [r7, #12]
 8005c2e:	e853 3f00 	ldrex	r3, [r3]
 8005c32:	60bb      	str	r3, [r7, #8]
   return(result);
 8005c34:	68bb      	ldr	r3, [r7, #8]
 8005c36:	f023 0310 	bic.w	r3, r3, #16
 8005c3a:	647b      	str	r3, [r7, #68]	@ 0x44
 8005c3c:	687b      	ldr	r3, [r7, #4]
 8005c3e:	681b      	ldr	r3, [r3, #0]
 8005c40:	330c      	adds	r3, #12
 8005c42:	6c7a      	ldr	r2, [r7, #68]	@ 0x44
 8005c44:	61ba      	str	r2, [r7, #24]
 8005c46:	617b      	str	r3, [r7, #20]
   __ASM volatile ("strex %0, %2, %1" : "=&r" (result), "=Q" (*addr) : "r" (value) );
 8005c48:	6979      	ldr	r1, [r7, #20]
 8005c4a:	69ba      	ldr	r2, [r7, #24]
 8005c4c:	e841 2300 	strex	r3, r2, [r1]
 8005c50:	613b      	str	r3, [r7, #16]
   return(result);
 8005c52:	693b      	ldr	r3, [r7, #16]
 8005c54:	2b00      	cmp	r3, #0
 8005c56:	d1e5      	bne.n	8005c24 <UART_EndRxTransfer+0x78>
  }

  /* At end of Rx process, restore huart->RxState to Ready */
  huart->RxState = HAL_UART_STATE_READY;
 8005c58:	687b      	ldr	r3, [r7, #4]
 8005c5a:	2220      	movs	r2, #32
 8005c5c:	f883 2042 	strb.w	r2, [r3, #66]	@ 0x42
  huart->ReceptionType = HAL_UART_RECEPTION_STANDARD;
 8005c60:	687b      	ldr	r3, [r7, #4]
 8005c62:	2200      	movs	r2, #0
 8005c64:	631a      	str	r2, [r3, #48]	@ 0x30
}
 8005c66:	bf00      	nop
 8005c68:	3754      	adds	r7, #84	@ 0x54
 8005c6a:	46bd      	mov	sp, r7
 8005c6c:	bc80      	pop	{r7}
 8005c6e:	4770      	bx	lr

08005c70 <UART_DMAAbortOnError>:
  * @param  hdma  Pointer to a DMA_HandleTypeDef structure that contains
  *               the configuration information for the specified DMA module.
  * @retval None
  */
static void UART_DMAAbortOnError(DMA_HandleTypeDef *hdma)
{
 8005c70:	b580      	push	{r7, lr}
 8005c72:	b084      	sub	sp, #16
 8005c74:	af00      	add	r7, sp, #0
 8005c76:	6078      	str	r0, [r7, #4]
  UART_HandleTypeDef *huart = (UART_HandleTypeDef *)((DMA_HandleTypeDef *)hdma)->Parent;
 8005c78:	687b      	ldr	r3, [r7, #4]
 8005c7a:	6a5b      	ldr	r3, [r3, #36]	@ 0x24
 8005c7c:	60fb      	str	r3, [r7, #12]
  huart->RxXferCount = 0x00U;
 8005c7e:	68fb      	ldr	r3, [r7, #12]
 8005c80:	2200      	movs	r2, #0
 8005c82:	85da      	strh	r2, [r3, #46]	@ 0x2e
  huart->TxXferCount = 0x00U;
 8005c84:	68fb      	ldr	r3, [r7, #12]
 8005c86:	2200      	movs	r2, #0
 8005c88:	84da      	strh	r2, [r3, #38]	@ 0x26
#if (USE_HAL_UART_REGISTER_CALLBACKS == 1)
  /*Call registered error callback*/
  huart->ErrorCallback(huart);
#else
  /*Call legacy weak error callback*/
  HAL_UART_ErrorCallback(huart);
 8005c8a:	68f8      	ldr	r0, [r7, #12]
 8005c8c:	f7fa fcc8 	bl	8000620 <HAL_UART_ErrorCallback>
#endif /* USE_HAL_UART_REGISTER_CALLBACKS */
}
 8005c90:	bf00      	nop
 8005c92:	3710      	adds	r7, #16
 8005c94:	46bd      	mov	sp, r7
 8005c96:	bd80      	pop	{r7, pc}

08005c98 <UART_Transmit_IT>:
  * @param  huart  Pointer to a UART_HandleTypeDef structure that contains
  *                the configuration information for the specified UART module.
  * @retval HAL status
  */
static HAL_StatusTypeDef UART_Transmit_IT(UART_HandleTypeDef *huart)
{
 8005c98:	b480      	push	{r7}
 8005c9a:	b085      	sub	sp, #20
 8005c9c:	af00      	add	r7, sp, #0
 8005c9e:	6078      	str	r0, [r7, #4]
  const uint16_t *tmp;

  /* Check that a Tx process is ongoing */
  if (huart->gState == HAL_UART_STATE_BUSY_TX)
 8005ca0:	687b      	ldr	r3, [r7, #4]
 8005ca2:	f893 3041 	ldrb.w	r3, [r3, #65]	@ 0x41
 8005ca6:	b2db      	uxtb	r3, r3
 8005ca8:	2b21      	cmp	r3, #33	@ 0x21
 8005caa:	d13e      	bne.n	8005d2a <UART_Transmit_IT+0x92>
  {
    if ((huart->Init.WordLength == UART_WORDLENGTH_9B) && (huart->Init.Parity == UART_PARITY_NONE))
 8005cac:	687b      	ldr	r3, [r7, #4]
 8005cae:	689b      	ldr	r3, [r3, #8]
 8005cb0:	f5b3 5f80 	cmp.w	r3, #4096	@ 0x1000
 8005cb4:	d114      	bne.n	8005ce0 <UART_Transmit_IT+0x48>
 8005cb6:	687b      	ldr	r3, [r7, #4]
 8005cb8:	691b      	ldr	r3, [r3, #16]
 8005cba:	2b00      	cmp	r3, #0
 8005cbc:	d110      	bne.n	8005ce0 <UART_Transmit_IT+0x48>
    {
      tmp = (const uint16_t *) huart->pTxBuffPtr;
 8005cbe:	687b      	ldr	r3, [r7, #4]
 8005cc0:	6a1b      	ldr	r3, [r3, #32]
 8005cc2:	60fb      	str	r3, [r7, #12]
      huart->Instance->DR = (uint16_t)(*tmp & (uint16_t)0x01FF);
 8005cc4:	68fb      	ldr	r3, [r7, #12]
 8005cc6:	881b      	ldrh	r3, [r3, #0]
 8005cc8:	461a      	mov	r2, r3
 8005cca:	687b      	ldr	r3, [r7, #4]
 8005ccc:	681b      	ldr	r3, [r3, #0]
 8005cce:	f3c2 0208 	ubfx	r2, r2, #0, #9
 8005cd2:	605a      	str	r2, [r3, #4]
      huart->pTxBuffPtr += 2U;
 8005cd4:	687b      	ldr	r3, [r7, #4]
 8005cd6:	6a1b      	ldr	r3, [r3, #32]
 8005cd8:	1c9a      	adds	r2, r3, #2
 8005cda:	687b      	ldr	r3, [r7, #4]
 8005cdc:	621a      	str	r2, [r3, #32]
 8005cde:	e008      	b.n	8005cf2 <UART_Transmit_IT+0x5a>
    }
    else
    {
      huart->Instance->DR = (uint8_t)(*huart->pTxBuffPtr++ & (uint8_t)0x00FF);
 8005ce0:	687b      	ldr	r3, [r7, #4]
 8005ce2:	6a1b      	ldr	r3, [r3, #32]
 8005ce4:	1c59      	adds	r1, r3, #1
 8005ce6:	687a      	ldr	r2, [r7, #4]
 8005ce8:	6211      	str	r1, [r2, #32]
 8005cea:	781a      	ldrb	r2, [r3, #0]
 8005cec:	687b      	ldr	r3, [r7, #4]
 8005cee:	681b      	ldr	r3, [r3, #0]
 8005cf0:	605a      	str	r2, [r3, #4]
    }

    if (--huart->TxXferCount == 0U)
 8005cf2:	687b      	ldr	r3, [r7, #4]
 8005cf4:	8cdb      	ldrh	r3, [r3, #38]	@ 0x26
 8005cf6:	b29b      	uxth	r3, r3
 8005cf8:	3b01      	subs	r3, #1
 8005cfa:	b29b      	uxth	r3, r3
 8005cfc:	687a      	ldr	r2, [r7, #4]
 8005cfe:	4619      	mov	r1, r3
 8005d00:	84d1      	strh	r1, [r2, #38]	@ 0x26
 8005d02:	2b00      	cmp	r3, #0
 8005d04:	d10f      	bne.n	8005d26 <UART_Transmit_IT+0x8e>
    {
      /* Disable the UART Transmit Data Register Empty Interrupt */
      __HAL_UART_DISABLE_IT(huart, UART_IT_TXE);
 8005d06:	687b      	ldr	r3, [r7, #4]
 8005d08:	681b      	ldr	r3, [r3, #0]
 8005d0a:	68da      	ldr	r2, [r3, #12]
 8005d0c:	687b      	ldr	r3, [r7, #4]
 8005d0e:	681b      	ldr	r3, [r3, #0]
 8005d10:	f022 0280 	bic.w	r2, r2, #128	@ 0x80
 8005d14:	60da      	str	r2, [r3, #12]

      /* Enable the UART Transmit Complete Interrupt */
      __HAL_UART_ENABLE_IT(huart, UART_IT_TC);
 8005d16:	687b      	ldr	r3, [r7, #4]
 8005d18:	681b      	ldr	r3, [r3, #0]
 8005d1a:	68da      	ldr	r2, [r3, #12]
 8005d1c:	687b      	ldr	r3, [r7, #4]
 8005d1e:	681b      	ldr	r3, [r3, #0]
 8005d20:	f042 0240 	orr.w	r2, r2, #64	@ 0x40
 8005d24:	60da      	str	r2, [r3, #12]
    }
    return HAL_OK;
 8005d26:	2300      	movs	r3, #0
 8005d28:	e000      	b.n	8005d2c <UART_Transmit_IT+0x94>
  }
  else
  {
    return HAL_BUSY;
 8005d2a:	2302      	movs	r3, #2
  }
}
 8005d2c:	4618      	mov	r0, r3
 8005d2e:	3714      	adds	r7, #20
 8005d30:	46bd      	mov	sp, r7
 8005d32:	bc80      	pop	{r7}
 8005d34:	4770      	bx	lr

08005d36 <UART_EndTransmit_IT>:
  * @param  huart  Pointer to a UART_HandleTypeDef structure that contains
  *                the configuration information for the specified UART module.
  * @retval HAL status
  */
static HAL_StatusTypeDef UART_EndTransmit_IT(UART_HandleTypeDef *huart)
{
 8005d36:	b580      	push	{r7, lr}
 8005d38:	b082      	sub	sp, #8
 8005d3a:	af00      	add	r7, sp, #0
 8005d3c:	6078      	str	r0, [r7, #4]
  /* Disable the UART Transmit Complete Interrupt */
  __HAL_UART_DISABLE_IT(huart, UART_IT_TC);
 8005d3e:	687b      	ldr	r3, [r7, #4]
 8005d40:	681b      	ldr	r3, [r3, #0]
 8005d42:	68da      	ldr	r2, [r3, #12]
 8005d44:	687b      	ldr	r3, [r7, #4]
 8005d46:	681b      	ldr	r3, [r3, #0]
 8005d48:	f022 0240 	bic.w	r2, r2, #64	@ 0x40
 8005d4c:	60da      	str	r2, [r3, #12]

  /* Tx process is ended, restore huart->gState to Ready */
  huart->gState = HAL_UART_STATE_READY;
 8005d4e:	687b      	ldr	r3, [r7, #4]
 8005d50:	2220      	movs	r2, #32
 8005d52:	f883 2041 	strb.w	r2, [r3, #65]	@ 0x41
#if (USE_HAL_UART_REGISTER_CALLBACKS == 1)
  /*Call registered Tx complete callback*/
  huart->TxCpltCallback(huart);
#else
  /*Call legacy weak Tx complete callback*/
  HAL_UART_TxCpltCallback(huart);
 8005d56:	6878      	ldr	r0, [r7, #4]
 8005d58:	f7ff fe82 	bl	8005a60 <HAL_UART_TxCpltCallback>
#endif /* USE_HAL_UART_REGISTER_CALLBACKS */

  return HAL_OK;
 8005d5c:	2300      	movs	r3, #0
}
 8005d5e:	4618      	mov	r0, r3
 8005d60:	3708      	adds	r7, #8
 8005d62:	46bd      	mov	sp, r7
 8005d64:	bd80      	pop	{r7, pc}

08005d66 <UART_Receive_IT>:
  * @param  huart  Pointer to a UART_HandleTypeDef structure that contains
  *                the configuration information for the specified UART module.
  * @retval HAL status
  */
static HAL_StatusTypeDef UART_Receive_IT(UART_HandleTypeDef *huart)
{
 8005d66:	b580      	push	{r7, lr}
 8005d68:	b08c      	sub	sp, #48	@ 0x30
 8005d6a:	af00      	add	r7, sp, #0
 8005d6c:	6078      	str	r0, [r7, #4]
  uint8_t  *pdata8bits;
  uint16_t *pdata16bits;

  /* Check that a Rx process is ongoing */
  if (huart->RxState == HAL_UART_STATE_BUSY_RX)
 8005d6e:	687b      	ldr	r3, [r7, #4]
 8005d70:	f893 3042 	ldrb.w	r3, [r3, #66]	@ 0x42
 8005d74:	b2db      	uxtb	r3, r3
 8005d76:	2b22      	cmp	r3, #34	@ 0x22
 8005d78:	f040 80ae 	bne.w	8005ed8 <UART_Receive_IT+0x172>
  {
    if ((huart->Init.WordLength == UART_WORDLENGTH_9B) && (huart->Init.Parity == UART_PARITY_NONE))
 8005d7c:	687b      	ldr	r3, [r7, #4]
 8005d7e:	689b      	ldr	r3, [r3, #8]
 8005d80:	f5b3 5f80 	cmp.w	r3, #4096	@ 0x1000
 8005d84:	d117      	bne.n	8005db6 <UART_Receive_IT+0x50>
 8005d86:	687b      	ldr	r3, [r7, #4]
 8005d88:	691b      	ldr	r3, [r3, #16]
 8005d8a:	2b00      	cmp	r3, #0
 8005d8c:	d113      	bne.n	8005db6 <UART_Receive_IT+0x50>
    {
      pdata8bits  = NULL;
 8005d8e:	2300      	movs	r3, #0
 8005d90:	62fb      	str	r3, [r7, #44]	@ 0x2c
      pdata16bits = (uint16_t *) huart->pRxBuffPtr;
 8005d92:	687b      	ldr	r3, [r7, #4]
 8005d94:	6a9b      	ldr	r3, [r3, #40]	@ 0x28
 8005d96:	62bb      	str	r3, [r7, #40]	@ 0x28
      *pdata16bits = (uint16_t)(huart->Instance->DR & (uint16_t)0x01FF);
 8005d98:	687b      	ldr	r3, [r7, #4]
 8005d9a:	681b      	ldr	r3, [r3, #0]
 8005d9c:	685b      	ldr	r3, [r3, #4]
 8005d9e:	b29b      	uxth	r3, r3
 8005da0:	f3c3 0308 	ubfx	r3, r3, #0, #9
 8005da4:	b29a      	uxth	r2, r3
 8005da6:	6abb      	ldr	r3, [r7, #40]	@ 0x28
 8005da8:	801a      	strh	r2, [r3, #0]
      huart->pRxBuffPtr += 2U;
 8005daa:	687b      	ldr	r3, [r7, #4]
 8005dac:	6a9b      	ldr	r3, [r3, #40]	@ 0x28
 8005dae:	1c9a      	adds	r2, r3, #2
 8005db0:	687b      	ldr	r3, [r7, #4]
 8005db2:	629a      	str	r2, [r3, #40]	@ 0x28
 8005db4:	e026      	b.n	8005e04 <UART_Receive_IT+0x9e>
    }
    else
    {
      pdata8bits = (uint8_t *) huart->pRxBuffPtr;
 8005db6:	687b      	ldr	r3, [r7, #4]
 8005db8:	6a9b      	ldr	r3, [r3, #40]	@ 0x28
 8005dba:	62fb      	str	r3, [r7, #44]	@ 0x2c
      pdata16bits  = NULL;
 8005dbc:	2300      	movs	r3, #0
 8005dbe:	62bb      	str	r3, [r7, #40]	@ 0x28

      if ((huart->Init.WordLength == UART_WORDLENGTH_9B) || ((huart->Init.WordLength == UART_WORDLENGTH_8B) && (huart->Init.Parity == UART_PARITY_NONE)))
 8005dc0:	687b      	ldr	r3, [r7, #4]
 8005dc2:	689b      	ldr	r3, [r3, #8]
 8005dc4:	f5b3 5f80 	cmp.w	r3, #4096	@ 0x1000
 8005dc8:	d007      	beq.n	8005dda <UART_Receive_IT+0x74>
 8005dca:	687b      	ldr	r3, [r7, #4]
 8005dcc:	689b      	ldr	r3, [r3, #8]
 8005dce:	2b00      	cmp	r3, #0
 8005dd0:	d10a      	bne.n	8005de8 <UART_Receive_IT+0x82>
 8005dd2:	687b      	ldr	r3, [r7, #4]
 8005dd4:	691b      	ldr	r3, [r3, #16]
 8005dd6:	2b00      	cmp	r3, #0
 8005dd8:	d106      	bne.n	8005de8 <UART_Receive_IT+0x82>
      {
        *pdata8bits = (uint8_t)(huart->Instance->DR & (uint8_t)0x00FF);
 8005dda:	687b      	ldr	r3, [r7, #4]
 8005ddc:	681b      	ldr	r3, [r3, #0]
 8005dde:	685b      	ldr	r3, [r3, #4]
 8005de0:	b2da      	uxtb	r2, r3
 8005de2:	6afb      	ldr	r3, [r7, #44]	@ 0x2c
 8005de4:	701a      	strb	r2, [r3, #0]
 8005de6:	e008      	b.n	8005dfa <UART_Receive_IT+0x94>
      }
      else
      {
        *pdata8bits = (uint8_t)(huart->Instance->DR & (uint8_t)0x007F);
 8005de8:	687b      	ldr	r3, [r7, #4]
 8005dea:	681b      	ldr	r3, [r3, #0]
 8005dec:	685b      	ldr	r3, [r3, #4]
 8005dee:	b2db      	uxtb	r3, r3
 8005df0:	f003 037f 	and.w	r3, r3, #127	@ 0x7f
 8005df4:	b2da      	uxtb	r2, r3
 8005df6:	6afb      	ldr	r3, [r7, #44]	@ 0x2c
 8005df8:	701a      	strb	r2, [r3, #0]
      }
      huart->pRxBuffPtr += 1U;
 8005dfa:	687b      	ldr	r3, [r7, #4]
 8005dfc:	6a9b      	ldr	r3, [r3, #40]	@ 0x28
 8005dfe:	1c5a      	adds	r2, r3, #1
 8005e00:	687b      	ldr	r3, [r7, #4]
 8005e02:	629a      	str	r2, [r3, #40]	@ 0x28
    }

    if (--huart->RxXferCount == 0U)
 8005e04:	687b      	ldr	r3, [r7, #4]
 8005e06:	8ddb      	ldrh	r3, [r3, #46]	@ 0x2e
 8005e08:	b29b      	uxth	r3, r3
 8005e0a:	3b01      	subs	r3, #1
 8005e0c:	b29b      	uxth	r3, r3
 8005e0e:	687a      	ldr	r2, [r7, #4]
 8005e10:	4619      	mov	r1, r3
 8005e12:	85d1      	strh	r1, [r2, #46]	@ 0x2e
 8005e14:	2b00      	cmp	r3, #0
 8005e16:	d15d      	bne.n	8005ed4 <UART_Receive_IT+0x16e>
    {
      /* Disable the UART Data Register not empty Interrupt */
      __HAL_UART_DISABLE_IT(huart, UART_IT_RXNE);
 8005e18:	687b      	ldr	r3, [r7, #4]
 8005e1a:	681b      	ldr	r3, [r3, #0]
 8005e1c:	68da      	ldr	r2, [r3, #12]
 8005e1e:	687b      	ldr	r3, [r7, #4]
 8005e20:	681b      	ldr	r3, [r3, #0]
 8005e22:	f022 0220 	bic.w	r2, r2, #32
 8005e26:	60da      	str	r2, [r3, #12]

      /* Disable the UART Parity Error Interrupt */
      __HAL_UART_DISABLE_IT(huart, UART_IT_PE);
 8005e28:	687b      	ldr	r3, [r7, #4]
 8005e2a:	681b      	ldr	r3, [r3, #0]
 8005e2c:	68da      	ldr	r2, [r3, #12]
 8005e2e:	687b      	ldr	r3, [r7, #4]
 8005e30:	681b      	ldr	r3, [r3, #0]
 8005e32:	f422 7280 	bic.w	r2, r2, #256	@ 0x100
 8005e36:	60da      	str	r2, [r3, #12]

      /* Disable the UART Error Interrupt: (Frame error, noise error, overrun error) */
      __HAL_UART_DISABLE_IT(huart, UART_IT_ERR);
 8005e38:	687b      	ldr	r3, [r7, #4]
 8005e3a:	681b      	ldr	r3, [r3, #0]
 8005e3c:	695a      	ldr	r2, [r3, #20]
 8005e3e:	687b      	ldr	r3, [r7, #4]
 8005e40:	681b      	ldr	r3, [r3, #0]
 8005e42:	f022 0201 	bic.w	r2, r2, #1
 8005e46:	615a      	str	r2, [r3, #20]

      /* Rx process is completed, restore huart->RxState to Ready */
      huart->RxState = HAL_UART_STATE_READY;
 8005e48:	687b      	ldr	r3, [r7, #4]
 8005e4a:	2220      	movs	r2, #32
 8005e4c:	f883 2042 	strb.w	r2, [r3, #66]	@ 0x42

      /* Initialize type of RxEvent to Transfer Complete */
      huart->RxEventType = HAL_UART_RXEVENT_TC;
 8005e50:	687b      	ldr	r3, [r7, #4]
 8005e52:	2200      	movs	r2, #0
 8005e54:	635a      	str	r2, [r3, #52]	@ 0x34

      /* Check current reception Mode :
         If Reception till IDLE event has been selected : */
      if (huart->ReceptionType == HAL_UART_RECEPTION_TOIDLE)
 8005e56:	687b      	ldr	r3, [r7, #4]
 8005e58:	6b1b      	ldr	r3, [r3, #48]	@ 0x30
 8005e5a:	2b01      	cmp	r3, #1
 8005e5c:	d135      	bne.n	8005eca <UART_Receive_IT+0x164>
      {
        /* Set reception type to Standard */
        huart->ReceptionType = HAL_UART_RECEPTION_STANDARD;
 8005e5e:	687b      	ldr	r3, [r7, #4]
 8005e60:	2200      	movs	r2, #0
 8005e62:	631a      	str	r2, [r3, #48]	@ 0x30

        /* Disable IDLE interrupt */
        ATOMIC_CLEAR_BIT(huart->Instance->CR1, USART_CR1_IDLEIE);
 8005e64:	687b      	ldr	r3, [r7, #4]
 8005e66:	681b      	ldr	r3, [r3, #0]
 8005e68:	330c      	adds	r3, #12
 8005e6a:	617b      	str	r3, [r7, #20]
   __ASM volatile ("ldrex %0, %1" : "=r" (result) : "Q" (*addr) );
 8005e6c:	697b      	ldr	r3, [r7, #20]
 8005e6e:	e853 3f00 	ldrex	r3, [r3]
 8005e72:	613b      	str	r3, [r7, #16]
   return(result);
 8005e74:	693b      	ldr	r3, [r7, #16]
 8005e76:	f023 0310 	bic.w	r3, r3, #16
 8005e7a:	627b      	str	r3, [r7, #36]	@ 0x24
 8005e7c:	687b      	ldr	r3, [r7, #4]
 8005e7e:	681b      	ldr	r3, [r3, #0]
 8005e80:	330c      	adds	r3, #12
 8005e82:	6a7a      	ldr	r2, [r7, #36]	@ 0x24
 8005e84:	623a      	str	r2, [r7, #32]
 8005e86:	61fb      	str	r3, [r7, #28]
   __ASM volatile ("strex %0, %2, %1" : "=&r" (result), "=Q" (*addr) : "r" (value) );
 8005e88:	69f9      	ldr	r1, [r7, #28]
 8005e8a:	6a3a      	ldr	r2, [r7, #32]
 8005e8c:	e841 2300 	strex	r3, r2, [r1]
 8005e90:	61bb      	str	r3, [r7, #24]
   return(result);
 8005e92:	69bb      	ldr	r3, [r7, #24]
 8005e94:	2b00      	cmp	r3, #0
 8005e96:	d1e5      	bne.n	8005e64 <UART_Receive_IT+0xfe>

        /* Check if IDLE flag is set */
        if (__HAL_UART_GET_FLAG(huart, UART_FLAG_IDLE))
 8005e98:	687b      	ldr	r3, [r7, #4]
 8005e9a:	681b      	ldr	r3, [r3, #0]
 8005e9c:	681b      	ldr	r3, [r3, #0]
 8005e9e:	f003 0310 	and.w	r3, r3, #16
 8005ea2:	2b10      	cmp	r3, #16
 8005ea4:	d10a      	bne.n	8005ebc <UART_Receive_IT+0x156>
        {
          /* Clear IDLE flag in ISR */
          __HAL_UART_CLEAR_IDLEFLAG(huart);
 8005ea6:	2300      	movs	r3, #0
 8005ea8:	60fb      	str	r3, [r7, #12]
 8005eaa:	687b      	ldr	r3, [r7, #4]
 8005eac:	681b      	ldr	r3, [r3, #0]
 8005eae:	681b      	ldr	r3, [r3, #0]
 8005eb0:	60fb      	str	r3, [r7, #12]
 8005eb2:	687b      	ldr	r3, [r7, #4]
 8005eb4:	681b      	ldr	r3, [r3, #0]
 8005eb6:	685b      	ldr	r3, [r3, #4]
 8005eb8:	60fb      	str	r3, [r7, #12]
 8005eba:	68fb      	ldr	r3, [r7, #12]
#if (USE_HAL_UART_REGISTER_CALLBACKS == 1)
        /*Call registered Rx Event callback*/
        huart->RxEventCallback(huart, huart->RxXferSize);
#else
        /*Call legacy weak Rx Event callback*/
        HAL_UARTEx_RxEventCallback(huart, huart->RxXferSize);
 8005ebc:	687b      	ldr	r3, [r7, #4]
 8005ebe:	8d9b      	ldrh	r3, [r3, #44]	@ 0x2c
 8005ec0:	4619      	mov	r1, r3
 8005ec2:	6878      	ldr	r0, [r7, #4]
 8005ec4:	f7ff fdd5 	bl	8005a72 <HAL_UARTEx_RxEventCallback>
 8005ec8:	e002      	b.n	8005ed0 <UART_Receive_IT+0x16a>
#if (USE_HAL_UART_REGISTER_CALLBACKS == 1)
        /*Call registered Rx complete callback*/
        huart->RxCpltCallback(huart);
#else
        /*Call legacy weak Rx complete callback*/
        HAL_UART_RxCpltCallback(huart);
 8005eca:	6878      	ldr	r0, [r7, #4]
 8005ecc:	f7fa fa7c 	bl	80003c8 <HAL_UART_RxCpltCallback>
#endif /* USE_HAL_UART_REGISTER_CALLBACKS */
      }

      return HAL_OK;
 8005ed0:	2300      	movs	r3, #0
 8005ed2:	e002      	b.n	8005eda <UART_Receive_IT+0x174>
    }
    return HAL_OK;
 8005ed4:	2300      	movs	r3, #0
 8005ed6:	e000      	b.n	8005eda <UART_Receive_IT+0x174>
  }
  else
  {
    return HAL_BUSY;
 8005ed8:	2302      	movs	r3, #2
  }
}
 8005eda:	4618      	mov	r0, r3
 8005edc:	3730      	adds	r7, #48	@ 0x30
 8005ede:	46bd      	mov	sp, r7
 8005ee0:	bd80      	pop	{r7, pc}
	...

08005ee4 <UART_SetConfig>:
  * @param  huart  Pointer to a UART_HandleTypeDef structure that contains
  *                the configuration information for the specified UART module.
  * @retval None
  */
static void UART_SetConfig(UART_HandleTypeDef *huart)
{
 8005ee4:	b580      	push	{r7, lr}
 8005ee6:	b084      	sub	sp, #16
 8005ee8:	af00      	add	r7, sp, #0
 8005eea:	6078      	str	r0, [r7, #4]
  assert_param(IS_UART_MODE(huart->Init.Mode));

  /*-------------------------- USART CR2 Configuration -----------------------*/
  /* Configure the UART Stop Bits: Set STOP[13:12] bits
     according to huart->Init.StopBits value */
  MODIFY_REG(huart->Instance->CR2, USART_CR2_STOP, huart->Init.StopBits);
 8005eec:	687b      	ldr	r3, [r7, #4]
 8005eee:	681b      	ldr	r3, [r3, #0]
 8005ef0:	691b      	ldr	r3, [r3, #16]
 8005ef2:	f423 5140 	bic.w	r1, r3, #12288	@ 0x3000
 8005ef6:	687b      	ldr	r3, [r7, #4]
 8005ef8:	68da      	ldr	r2, [r3, #12]
 8005efa:	687b      	ldr	r3, [r7, #4]
 8005efc:	681b      	ldr	r3, [r3, #0]
 8005efe:	430a      	orrs	r2, r1
 8005f00:	611a      	str	r2, [r3, #16]
  tmpreg = (uint32_t)huart->Init.WordLength | huart->Init.Parity | huart->Init.Mode | huart->Init.OverSampling;
  MODIFY_REG(huart->Instance->CR1,
             (uint32_t)(USART_CR1_M | USART_CR1_PCE | USART_CR1_PS | USART_CR1_TE | USART_CR1_RE | USART_CR1_OVER8),
             tmpreg);
#else
  tmpreg = (uint32_t)huart->Init.WordLength | huart->Init.Parity | huart->Init.Mode;
 8005f02:	687b      	ldr	r3, [r7, #4]
 8005f04:	689a      	ldr	r2, [r3, #8]
 8005f06:	687b      	ldr	r3, [r7, #4]
 8005f08:	691b      	ldr	r3, [r3, #16]
 8005f0a:	431a      	orrs	r2, r3
 8005f0c:	687b      	ldr	r3, [r7, #4]
 8005f0e:	695b      	ldr	r3, [r3, #20]
 8005f10:	4313      	orrs	r3, r2
 8005f12:	60bb      	str	r3, [r7, #8]
  MODIFY_REG(huart->Instance->CR1,
 8005f14:	687b      	ldr	r3, [r7, #4]
 8005f16:	681b      	ldr	r3, [r3, #0]
 8005f18:	68db      	ldr	r3, [r3, #12]
 8005f1a:	f423 53b0 	bic.w	r3, r3, #5632	@ 0x1600
 8005f1e:	f023 030c 	bic.w	r3, r3, #12
 8005f22:	687a      	ldr	r2, [r7, #4]
 8005f24:	6812      	ldr	r2, [r2, #0]
 8005f26:	68b9      	ldr	r1, [r7, #8]
 8005f28:	430b      	orrs	r3, r1
 8005f2a:	60d3      	str	r3, [r2, #12]
             tmpreg);
#endif /* USART_CR1_OVER8 */

  /*-------------------------- USART CR3 Configuration -----------------------*/
  /* Configure the UART HFC: Set CTSE and RTSE bits according to huart->Init.HwFlowCtl value */
  MODIFY_REG(huart->Instance->CR3, (USART_CR3_RTSE | USART_CR3_CTSE), huart->Init.HwFlowCtl);
 8005f2c:	687b      	ldr	r3, [r7, #4]
 8005f2e:	681b      	ldr	r3, [r3, #0]
 8005f30:	695b      	ldr	r3, [r3, #20]
 8005f32:	f423 7140 	bic.w	r1, r3, #768	@ 0x300
 8005f36:	687b      	ldr	r3, [r7, #4]
 8005f38:	699a      	ldr	r2, [r3, #24]
 8005f3a:	687b      	ldr	r3, [r7, #4]
 8005f3c:	681b      	ldr	r3, [r3, #0]
 8005f3e:	430a      	orrs	r2, r1
 8005f40:	615a      	str	r2, [r3, #20]


  if(huart->Instance == USART1)
 8005f42:	687b      	ldr	r3, [r7, #4]
 8005f44:	681b      	ldr	r3, [r3, #0]
 8005f46:	4a2c      	ldr	r2, [pc, #176]	@ (8005ff8 <UART_SetConfig+0x114>)
 8005f48:	4293      	cmp	r3, r2
 8005f4a:	d103      	bne.n	8005f54 <UART_SetConfig+0x70>
  {
    pclk = HAL_RCC_GetPCLK2Freq();
 8005f4c:	f7ff f9c4 	bl	80052d8 <HAL_RCC_GetPCLK2Freq>
 8005f50:	60f8      	str	r0, [r7, #12]
 8005f52:	e002      	b.n	8005f5a <UART_SetConfig+0x76>
  }
  else
  {
    pclk = HAL_RCC_GetPCLK1Freq();
 8005f54:	f7ff f9ac 	bl	80052b0 <HAL_RCC_GetPCLK1Freq>
 8005f58:	60f8      	str	r0, [r7, #12]
  else
  {
    huart->Instance->BRR = UART_BRR_SAMPLING16(pclk, huart->Init.BaudRate);
  }
#else
  huart->Instance->BRR = UART_BRR_SAMPLING16(pclk, huart->Init.BaudRate);
 8005f5a:	68fa      	ldr	r2, [r7, #12]
 8005f5c:	4613      	mov	r3, r2
 8005f5e:	009b      	lsls	r3, r3, #2
 8005f60:	4413      	add	r3, r2
 8005f62:	009a      	lsls	r2, r3, #2
 8005f64:	441a      	add	r2, r3
 8005f66:	687b      	ldr	r3, [r7, #4]
 8005f68:	685b      	ldr	r3, [r3, #4]
 8005f6a:	009b      	lsls	r3, r3, #2
 8005f6c:	fbb2 f3f3 	udiv	r3, r2, r3
 8005f70:	4a22      	ldr	r2, [pc, #136]	@ (8005ffc <UART_SetConfig+0x118>)
 8005f72:	fba2 2303 	umull	r2, r3, r2, r3
 8005f76:	095b      	lsrs	r3, r3, #5
 8005f78:	0119      	lsls	r1, r3, #4
 8005f7a:	68fa      	ldr	r2, [r7, #12]
 8005f7c:	4613      	mov	r3, r2
 8005f7e:	009b      	lsls	r3, r3, #2
 8005f80:	4413      	add	r3, r2
 8005f82:	009a      	lsls	r2, r3, #2
 8005f84:	441a      	add	r2, r3
 8005f86:	687b      	ldr	r3, [r7, #4]
 8005f88:	685b      	ldr	r3, [r3, #4]
 8005f8a:	009b      	lsls	r3, r3, #2
 8005f8c:	fbb2 f2f3 	udiv	r2, r2, r3
 8005f90:	4b1a      	ldr	r3, [pc, #104]	@ (8005ffc <UART_SetConfig+0x118>)
 8005f92:	fba3 0302 	umull	r0, r3, r3, r2
 8005f96:	095b      	lsrs	r3, r3, #5
 8005f98:	2064      	movs	r0, #100	@ 0x64
 8005f9a:	fb00 f303 	mul.w	r3, r0, r3
 8005f9e:	1ad3      	subs	r3, r2, r3
 8005fa0:	011b      	lsls	r3, r3, #4
 8005fa2:	3332      	adds	r3, #50	@ 0x32
 8005fa4:	4a15      	ldr	r2, [pc, #84]	@ (8005ffc <UART_SetConfig+0x118>)
 8005fa6:	fba2 2303 	umull	r2, r3, r2, r3
 8005faa:	095b      	lsrs	r3, r3, #5
 8005fac:	f003 03f0 	and.w	r3, r3, #240	@ 0xf0
 8005fb0:	4419      	add	r1, r3
 8005fb2:	68fa      	ldr	r2, [r7, #12]
 8005fb4:	4613      	mov	r3, r2
 8005fb6:	009b      	lsls	r3, r3, #2
 8005fb8:	4413      	add	r3, r2
 8005fba:	009a      	lsls	r2, r3, #2
 8005fbc:	441a      	add	r2, r3
 8005fbe:	687b      	ldr	r3, [r7, #4]
 8005fc0:	685b      	ldr	r3, [r3, #4]
 8005fc2:	009b      	lsls	r3, r3, #2
 8005fc4:	fbb2 f2f3 	udiv	r2, r2, r3
 8005fc8:	4b0c      	ldr	r3, [pc, #48]	@ (8005ffc <UART_SetConfig+0x118>)
 8005fca:	fba3 0302 	umull	r0, r3, r3, r2
 8005fce:	095b      	lsrs	r3, r3, #5
 8005fd0:	2064      	movs	r0, #100	@ 0x64
 8005fd2:	fb00 f303 	mul.w	r3, r0, r3
 8005fd6:	1ad3      	subs	r3, r2, r3
 8005fd8:	011b      	lsls	r3, r3, #4
 8005fda:	3332      	adds	r3, #50	@ 0x32
 8005fdc:	4a07      	ldr	r2, [pc, #28]	@ (8005ffc <UART_SetConfig+0x118>)
 8005fde:	fba2 2303 	umull	r2, r3, r2, r3
 8005fe2:	095b      	lsrs	r3, r3, #5
 8005fe4:	f003 020f 	and.w	r2, r3, #15
 8005fe8:	687b      	ldr	r3, [r7, #4]
 8005fea:	681b      	ldr	r3, [r3, #0]
 8005fec:	440a      	add	r2, r1
 8005fee:	609a      	str	r2, [r3, #8]
#endif /* USART_CR1_OVER8 */
}
 8005ff0:	bf00      	nop
 8005ff2:	3710      	adds	r7, #16
 8005ff4:	46bd      	mov	sp, r7
 8005ff6:	bd80      	pop	{r7, pc}
 8005ff8:	40013800 	.word	0x40013800
 8005ffc:	51eb851f 	.word	0x51eb851f

08006000 <srand>:
 8006000:	b538      	push	{r3, r4, r5, lr}
 8006002:	4b10      	ldr	r3, [pc, #64]	@ (8006044 <srand+0x44>)
 8006004:	4604      	mov	r4, r0
 8006006:	681d      	ldr	r5, [r3, #0]
 8006008:	6b2b      	ldr	r3, [r5, #48]	@ 0x30
 800600a:	b9b3      	cbnz	r3, 800603a <srand+0x3a>
 800600c:	2018      	movs	r0, #24
 800600e:	f000 fa4b 	bl	80064a8 <malloc>
 8006012:	4602      	mov	r2, r0
 8006014:	6328      	str	r0, [r5, #48]	@ 0x30
 8006016:	b920      	cbnz	r0, 8006022 <srand+0x22>
 8006018:	2146      	movs	r1, #70	@ 0x46
 800601a:	4b0b      	ldr	r3, [pc, #44]	@ (8006048 <srand+0x48>)
 800601c:	480b      	ldr	r0, [pc, #44]	@ (800604c <srand+0x4c>)
 800601e:	f000 f9dd 	bl	80063dc <__assert_func>
 8006022:	490b      	ldr	r1, [pc, #44]	@ (8006050 <srand+0x50>)
 8006024:	4b0b      	ldr	r3, [pc, #44]	@ (8006054 <srand+0x54>)
 8006026:	e9c0 1300 	strd	r1, r3, [r0]
 800602a:	4b0b      	ldr	r3, [pc, #44]	@ (8006058 <srand+0x58>)
 800602c:	2100      	movs	r1, #0
 800602e:	6083      	str	r3, [r0, #8]
 8006030:	230b      	movs	r3, #11
 8006032:	8183      	strh	r3, [r0, #12]
 8006034:	2001      	movs	r0, #1
 8006036:	e9c2 0104 	strd	r0, r1, [r2, #16]
 800603a:	2200      	movs	r2, #0
 800603c:	6b2b      	ldr	r3, [r5, #48]	@ 0x30
 800603e:	611c      	str	r4, [r3, #16]
 8006040:	615a      	str	r2, [r3, #20]
 8006042:	bd38      	pop	{r3, r4, r5, pc}
 8006044:	2000002c 	.word	0x2000002c
 8006048:	0800712a 	.word	0x0800712a
 800604c:	08007141 	.word	0x08007141
 8006050:	abcd330e 	.word	0xabcd330e
 8006054:	e66d1234 	.word	0xe66d1234
 8006058:	0005deec 	.word	0x0005deec

0800605c <rand>:
 800605c:	4b16      	ldr	r3, [pc, #88]	@ (80060b8 <rand+0x5c>)
 800605e:	b510      	push	{r4, lr}
 8006060:	681c      	ldr	r4, [r3, #0]
 8006062:	6b23      	ldr	r3, [r4, #48]	@ 0x30
 8006064:	b9b3      	cbnz	r3, 8006094 <rand+0x38>
 8006066:	2018      	movs	r0, #24
 8006068:	f000 fa1e 	bl	80064a8 <malloc>
 800606c:	4602      	mov	r2, r0
 800606e:	6320      	str	r0, [r4, #48]	@ 0x30
 8006070:	b920      	cbnz	r0, 800607c <rand+0x20>
 8006072:	2152      	movs	r1, #82	@ 0x52
 8006074:	4b11      	ldr	r3, [pc, #68]	@ (80060bc <rand+0x60>)
 8006076:	4812      	ldr	r0, [pc, #72]	@ (80060c0 <rand+0x64>)
 8006078:	f000 f9b0 	bl	80063dc <__assert_func>
 800607c:	4911      	ldr	r1, [pc, #68]	@ (80060c4 <rand+0x68>)
 800607e:	4b12      	ldr	r3, [pc, #72]	@ (80060c8 <rand+0x6c>)
 8006080:	e9c0 1300 	strd	r1, r3, [r0]
 8006084:	4b11      	ldr	r3, [pc, #68]	@ (80060cc <rand+0x70>)
 8006086:	2100      	movs	r1, #0
 8006088:	6083      	str	r3, [r0, #8]
 800608a:	230b      	movs	r3, #11
 800608c:	8183      	strh	r3, [r0, #12]
 800608e:	2001      	movs	r0, #1
 8006090:	e9c2 0104 	strd	r0, r1, [r2, #16]
 8006094:	6b21      	ldr	r1, [r4, #48]	@ 0x30
 8006096:	480e      	ldr	r0, [pc, #56]	@ (80060d0 <rand+0x74>)
 8006098:	690b      	ldr	r3, [r1, #16]
 800609a:	694c      	ldr	r4, [r1, #20]
 800609c:	4358      	muls	r0, r3
 800609e:	4a0d      	ldr	r2, [pc, #52]	@ (80060d4 <rand+0x78>)
 80060a0:	fb02 0004 	mla	r0, r2, r4, r0
 80060a4:	fba3 3202 	umull	r3, r2, r3, r2
 80060a8:	3301      	adds	r3, #1
 80060aa:	eb40 0002 	adc.w	r0, r0, r2
 80060ae:	e9c1 3004 	strd	r3, r0, [r1, #16]
 80060b2:	f020 4000 	bic.w	r0, r0, #2147483648	@ 0x80000000
 80060b6:	bd10      	pop	{r4, pc}
 80060b8:	2000002c 	.word	0x2000002c
 80060bc:	0800712a 	.word	0x0800712a
 80060c0:	08007141 	.word	0x08007141
 80060c4:	abcd330e 	.word	0xabcd330e
 80060c8:	e66d1234 	.word	0xe66d1234
 80060cc:	0005deec 	.word	0x0005deec
 80060d0:	5851f42d 	.word	0x5851f42d
 80060d4:	4c957f2d 	.word	0x4c957f2d

080060d8 <std>:
 80060d8:	2300      	movs	r3, #0
 80060da:	b510      	push	{r4, lr}
 80060dc:	4604      	mov	r4, r0
 80060de:	e9c0 3300 	strd	r3, r3, [r0]
 80060e2:	e9c0 3304 	strd	r3, r3, [r0, #16]
 80060e6:	6083      	str	r3, [r0, #8]
 80060e8:	8181      	strh	r1, [r0, #12]
 80060ea:	6643      	str	r3, [r0, #100]	@ 0x64
 80060ec:	81c2      	strh	r2, [r0, #14]
 80060ee:	6183      	str	r3, [r0, #24]
 80060f0:	4619      	mov	r1, r3
 80060f2:	2208      	movs	r2, #8
 80060f4:	305c      	adds	r0, #92	@ 0x5c
 80060f6:	f000 f8f4 	bl	80062e2 <memset>
 80060fa:	4b0d      	ldr	r3, [pc, #52]	@ (8006130 <std+0x58>)
 80060fc:	6224      	str	r4, [r4, #32]
 80060fe:	6263      	str	r3, [r4, #36]	@ 0x24
 8006100:	4b0c      	ldr	r3, [pc, #48]	@ (8006134 <std+0x5c>)
 8006102:	62a3      	str	r3, [r4, #40]	@ 0x28
 8006104:	4b0c      	ldr	r3, [pc, #48]	@ (8006138 <std+0x60>)
 8006106:	62e3      	str	r3, [r4, #44]	@ 0x2c
 8006108:	4b0c      	ldr	r3, [pc, #48]	@ (800613c <std+0x64>)
 800610a:	6323      	str	r3, [r4, #48]	@ 0x30
 800610c:	4b0c      	ldr	r3, [pc, #48]	@ (8006140 <std+0x68>)
 800610e:	429c      	cmp	r4, r3
 8006110:	d006      	beq.n	8006120 <std+0x48>
 8006112:	f103 0268 	add.w	r2, r3, #104	@ 0x68
 8006116:	4294      	cmp	r4, r2
 8006118:	d002      	beq.n	8006120 <std+0x48>
 800611a:	33d0      	adds	r3, #208	@ 0xd0
 800611c:	429c      	cmp	r4, r3
 800611e:	d105      	bne.n	800612c <std+0x54>
 8006120:	f104 0058 	add.w	r0, r4, #88	@ 0x58
 8006124:	e8bd 4010 	ldmia.w	sp!, {r4, lr}
 8006128:	f000 b954 	b.w	80063d4 <__retarget_lock_init_recursive>
 800612c:	bd10      	pop	{r4, pc}
 800612e:	bf00      	nop
 8006130:	0800625d 	.word	0x0800625d
 8006134:	0800627f 	.word	0x0800627f
 8006138:	080062b7 	.word	0x080062b7
 800613c:	080062db 	.word	0x080062db
 8006140:	2000040c 	.word	0x2000040c

08006144 <stdio_exit_handler>:
 8006144:	4a02      	ldr	r2, [pc, #8]	@ (8006150 <stdio_exit_handler+0xc>)
 8006146:	4903      	ldr	r1, [pc, #12]	@ (8006154 <stdio_exit_handler+0x10>)
 8006148:	4803      	ldr	r0, [pc, #12]	@ (8006158 <stdio_exit_handler+0x14>)
 800614a:	f000 b869 	b.w	8006220 <_fwalk_sglue>
 800614e:	bf00      	nop
 8006150:	20000020 	.word	0x20000020
 8006154:	08006715 	.word	0x08006715
 8006158:	20000030 	.word	0x20000030

0800615c <cleanup_stdio>:
 800615c:	6841      	ldr	r1, [r0, #4]
 800615e:	4b0c      	ldr	r3, [pc, #48]	@ (8006190 <cleanup_stdio+0x34>)
 8006160:	b510      	push	{r4, lr}
 8006162:	4299      	cmp	r1, r3
 8006164:	4604      	mov	r4, r0
 8006166:	d001      	beq.n	800616c <cleanup_stdio+0x10>
 8006168:	f000 fad4 	bl	8006714 <_fflush_r>
 800616c:	68a1      	ldr	r1, [r4, #8]
 800616e:	4b09      	ldr	r3, [pc, #36]	@ (8006194 <cleanup_stdio+0x38>)
 8006170:	4299      	cmp	r1, r3
 8006172:	d002      	beq.n	800617a <cleanup_stdio+0x1e>
 8006174:	4620      	mov	r0, r4
 8006176:	f000 facd 	bl	8006714 <_fflush_r>
 800617a:	68e1      	ldr	r1, [r4, #12]
 800617c:	4b06      	ldr	r3, [pc, #24]	@ (8006198 <cleanup_stdio+0x3c>)
 800617e:	4299      	cmp	r1, r3
 8006180:	d004      	beq.n	800618c <cleanup_stdio+0x30>
 8006182:	4620      	mov	r0, r4
 8006184:	e8bd 4010 	ldmia.w	sp!, {r4, lr}
 8006188:	f000 bac4 	b.w	8006714 <_fflush_r>
 800618c:	bd10      	pop	{r4, pc}
 800618e:	bf00      	nop
 8006190:	2000040c 	.word	0x2000040c
 8006194:	20000474 	.word	0x20000474
 8006198:	200004dc 	.word	0x200004dc

0800619c <global_stdio_init.part.0>:
 800619c:	b510      	push	{r4, lr}
 800619e:	4b0b      	ldr	r3, [pc, #44]	@ (80061cc <global_stdio_init.part.0+0x30>)
 80061a0:	4c0b      	ldr	r4, [pc, #44]	@ (80061d0 <global_stdio_init.part.0+0x34>)
 80061a2:	4a0c      	ldr	r2, [pc, #48]	@ (80061d4 <global_stdio_init.part.0+0x38>)
 80061a4:	4620      	mov	r0, r4
 80061a6:	601a      	str	r2, [r3, #0]
 80061a8:	2104      	movs	r1, #4
 80061aa:	2200      	movs	r2, #0
 80061ac:	f7ff ff94 	bl	80060d8 <std>
 80061b0:	f104 0068 	add.w	r0, r4, #104	@ 0x68
 80061b4:	2201      	movs	r2, #1
 80061b6:	2109      	movs	r1, #9
 80061b8:	f7ff ff8e 	bl	80060d8 <std>
 80061bc:	f104 00d0 	add.w	r0, r4, #208	@ 0xd0
 80061c0:	2202      	movs	r2, #2
 80061c2:	e8bd 4010 	ldmia.w	sp!, {r4, lr}
 80061c6:	2112      	movs	r1, #18
 80061c8:	f7ff bf86 	b.w	80060d8 <std>
 80061cc:	20000544 	.word	0x20000544
 80061d0:	2000040c 	.word	0x2000040c
 80061d4:	08006145 	.word	0x08006145

080061d8 <__sfp_lock_acquire>:
 80061d8:	4801      	ldr	r0, [pc, #4]	@ (80061e0 <__sfp_lock_acquire+0x8>)
 80061da:	f000 b8fc 	b.w	80063d6 <__retarget_lock_acquire_recursive>
 80061de:	bf00      	nop
 80061e0:	2000054d 	.word	0x2000054d

080061e4 <__sfp_lock_release>:
 80061e4:	4801      	ldr	r0, [pc, #4]	@ (80061ec <__sfp_lock_release+0x8>)
 80061e6:	f000 b8f7 	b.w	80063d8 <__retarget_lock_release_recursive>
 80061ea:	bf00      	nop
 80061ec:	2000054d 	.word	0x2000054d

080061f0 <__sinit>:
 80061f0:	b510      	push	{r4, lr}
 80061f2:	4604      	mov	r4, r0
 80061f4:	f7ff fff0 	bl	80061d8 <__sfp_lock_acquire>
 80061f8:	6a23      	ldr	r3, [r4, #32]
 80061fa:	b11b      	cbz	r3, 8006204 <__sinit+0x14>
 80061fc:	e8bd 4010 	ldmia.w	sp!, {r4, lr}
 8006200:	f7ff bff0 	b.w	80061e4 <__sfp_lock_release>
 8006204:	4b04      	ldr	r3, [pc, #16]	@ (8006218 <__sinit+0x28>)
 8006206:	6223      	str	r3, [r4, #32]
 8006208:	4b04      	ldr	r3, [pc, #16]	@ (800621c <__sinit+0x2c>)
 800620a:	681b      	ldr	r3, [r3, #0]
 800620c:	2b00      	cmp	r3, #0
 800620e:	d1f5      	bne.n	80061fc <__sinit+0xc>
 8006210:	f7ff ffc4 	bl	800619c <global_stdio_init.part.0>
 8006214:	e7f2      	b.n	80061fc <__sinit+0xc>
 8006216:	bf00      	nop
 8006218:	0800615d 	.word	0x0800615d
 800621c:	20000544 	.word	0x20000544

08006220 <_fwalk_sglue>:
 8006220:	e92d 43f8 	stmdb	sp!, {r3, r4, r5, r6, r7, r8, r9, lr}
 8006224:	4607      	mov	r7, r0
 8006226:	4688      	mov	r8, r1
 8006228:	4614      	mov	r4, r2
 800622a:	2600      	movs	r6, #0
 800622c:	e9d4 9501 	ldrd	r9, r5, [r4, #4]
 8006230:	f1b9 0901 	subs.w	r9, r9, #1
 8006234:	d505      	bpl.n	8006242 <_fwalk_sglue+0x22>
 8006236:	6824      	ldr	r4, [r4, #0]
 8006238:	2c00      	cmp	r4, #0
 800623a:	d1f7      	bne.n	800622c <_fwalk_sglue+0xc>
 800623c:	4630      	mov	r0, r6
 800623e:	e8bd 83f8 	ldmia.w	sp!, {r3, r4, r5, r6, r7, r8, r9, pc}
 8006242:	89ab      	ldrh	r3, [r5, #12]
 8006244:	2b01      	cmp	r3, #1
 8006246:	d907      	bls.n	8006258 <_fwalk_sglue+0x38>
 8006248:	f9b5 300e 	ldrsh.w	r3, [r5, #14]
 800624c:	3301      	adds	r3, #1
 800624e:	d003      	beq.n	8006258 <_fwalk_sglue+0x38>
 8006250:	4629      	mov	r1, r5
 8006252:	4638      	mov	r0, r7
 8006254:	47c0      	blx	r8
 8006256:	4306      	orrs	r6, r0
 8006258:	3568      	adds	r5, #104	@ 0x68
 800625a:	e7e9      	b.n	8006230 <_fwalk_sglue+0x10>

0800625c <__sread>:
 800625c:	b510      	push	{r4, lr}
 800625e:	460c      	mov	r4, r1
 8006260:	f9b1 100e 	ldrsh.w	r1, [r1, #14]
 8006264:	f000 f868 	bl	8006338 <_read_r>
 8006268:	2800      	cmp	r0, #0
 800626a:	bfab      	itete	ge
 800626c:	6d63      	ldrge	r3, [r4, #84]	@ 0x54
 800626e:	89a3      	ldrhlt	r3, [r4, #12]
 8006270:	181b      	addge	r3, r3, r0
 8006272:	f423 5380 	biclt.w	r3, r3, #4096	@ 0x1000
 8006276:	bfac      	ite	ge
 8006278:	6563      	strge	r3, [r4, #84]	@ 0x54
 800627a:	81a3      	strhlt	r3, [r4, #12]
 800627c:	bd10      	pop	{r4, pc}

0800627e <__swrite>:
 800627e:	e92d 41f0 	stmdb	sp!, {r4, r5, r6, r7, r8, lr}
 8006282:	461f      	mov	r7, r3
 8006284:	898b      	ldrh	r3, [r1, #12]
 8006286:	4605      	mov	r5, r0
 8006288:	05db      	lsls	r3, r3, #23
 800628a:	460c      	mov	r4, r1
 800628c:	4616      	mov	r6, r2
 800628e:	d505      	bpl.n	800629c <__swrite+0x1e>
 8006290:	2302      	movs	r3, #2
 8006292:	2200      	movs	r2, #0
 8006294:	f9b1 100e 	ldrsh.w	r1, [r1, #14]
 8006298:	f000 f83c 	bl	8006314 <_lseek_r>
 800629c:	89a3      	ldrh	r3, [r4, #12]
 800629e:	4632      	mov	r2, r6
 80062a0:	f423 5380 	bic.w	r3, r3, #4096	@ 0x1000
 80062a4:	81a3      	strh	r3, [r4, #12]
 80062a6:	4628      	mov	r0, r5
 80062a8:	463b      	mov	r3, r7
 80062aa:	f9b4 100e 	ldrsh.w	r1, [r4, #14]
 80062ae:	e8bd 41f0 	ldmia.w	sp!, {r4, r5, r6, r7, r8, lr}
 80062b2:	f000 b853 	b.w	800635c <_write_r>

080062b6 <__sseek>:
 80062b6:	b510      	push	{r4, lr}
 80062b8:	460c      	mov	r4, r1
 80062ba:	f9b1 100e 	ldrsh.w	r1, [r1, #14]
 80062be:	f000 f829 	bl	8006314 <_lseek_r>
 80062c2:	1c43      	adds	r3, r0, #1
 80062c4:	89a3      	ldrh	r3, [r4, #12]
 80062c6:	bf15      	itete	ne
 80062c8:	6560      	strne	r0, [r4, #84]	@ 0x54
 80062ca:	f423 5380 	biceq.w	r3, r3, #4096	@ 0x1000
 80062ce:	f443 5380 	orrne.w	r3, r3, #4096	@ 0x1000
 80062d2:	81a3      	strheq	r3, [r4, #12]
 80062d4:	bf18      	it	ne
 80062d6:	81a3      	strhne	r3, [r4, #12]
 80062d8:	bd10      	pop	{r4, pc}

080062da <__sclose>:
 80062da:	f9b1 100e 	ldrsh.w	r1, [r1, #14]
 80062de:	f000 b809 	b.w	80062f4 <_close_r>

080062e2 <memset>:
 80062e2:	4603      	mov	r3, r0
 80062e4:	4402      	add	r2, r0
 80062e6:	4293      	cmp	r3, r2
 80062e8:	d100      	bne.n	80062ec <memset+0xa>
 80062ea:	4770      	bx	lr
 80062ec:	f803 1b01 	strb.w	r1, [r3], #1
 80062f0:	e7f9      	b.n	80062e6 <memset+0x4>
	...

080062f4 <_close_r>:
 80062f4:	b538      	push	{r3, r4, r5, lr}
 80062f6:	2300      	movs	r3, #0
 80062f8:	4d05      	ldr	r5, [pc, #20]	@ (8006310 <_close_r+0x1c>)
 80062fa:	4604      	mov	r4, r0
 80062fc:	4608      	mov	r0, r1
 80062fe:	602b      	str	r3, [r5, #0]
 8006300:	f7fd fd3f 	bl	8003d82 <_close>
 8006304:	1c43      	adds	r3, r0, #1
 8006306:	d102      	bne.n	800630e <_close_r+0x1a>
 8006308:	682b      	ldr	r3, [r5, #0]
 800630a:	b103      	cbz	r3, 800630e <_close_r+0x1a>
 800630c:	6023      	str	r3, [r4, #0]
 800630e:	bd38      	pop	{r3, r4, r5, pc}
 8006310:	20000548 	.word	0x20000548

08006314 <_lseek_r>:
 8006314:	b538      	push	{r3, r4, r5, lr}
 8006316:	4604      	mov	r4, r0
 8006318:	4608      	mov	r0, r1
 800631a:	4611      	mov	r1, r2
 800631c:	2200      	movs	r2, #0
 800631e:	4d05      	ldr	r5, [pc, #20]	@ (8006334 <_lseek_r+0x20>)
 8006320:	602a      	str	r2, [r5, #0]
 8006322:	461a      	mov	r2, r3
 8006324:	f7fd fd51 	bl	8003dca <_lseek>
 8006328:	1c43      	adds	r3, r0, #1
 800632a:	d102      	bne.n	8006332 <_lseek_r+0x1e>
 800632c:	682b      	ldr	r3, [r5, #0]
 800632e:	b103      	cbz	r3, 8006332 <_lseek_r+0x1e>
 8006330:	6023      	str	r3, [r4, #0]
 8006332:	bd38      	pop	{r3, r4, r5, pc}
 8006334:	20000548 	.word	0x20000548

08006338 <_read_r>:
 8006338:	b538      	push	{r3, r4, r5, lr}
 800633a:	4604      	mov	r4, r0
 800633c:	4608      	mov	r0, r1
 800633e:	4611      	mov	r1, r2
 8006340:	2200      	movs	r2, #0
 8006342:	4d05      	ldr	r5, [pc, #20]	@ (8006358 <_read_r+0x20>)
 8006344:	602a      	str	r2, [r5, #0]
 8006346:	461a      	mov	r2, r3
 8006348:	f7fd fce2 	bl	8003d10 <_read>
 800634c:	1c43      	adds	r3, r0, #1
 800634e:	d102      	bne.n	8006356 <_read_r+0x1e>
 8006350:	682b      	ldr	r3, [r5, #0]
 8006352:	b103      	cbz	r3, 8006356 <_read_r+0x1e>
 8006354:	6023      	str	r3, [r4, #0]
 8006356:	bd38      	pop	{r3, r4, r5, pc}
 8006358:	20000548 	.word	0x20000548

0800635c <_write_r>:
 800635c:	b538      	push	{r3, r4, r5, lr}
 800635e:	4604      	mov	r4, r0
 8006360:	4608      	mov	r0, r1
 8006362:	4611      	mov	r1, r2
 8006364:	2200      	movs	r2, #0
 8006366:	4d05      	ldr	r5, [pc, #20]	@ (800637c <_write_r+0x20>)
 8006368:	602a      	str	r2, [r5, #0]
 800636a:	461a      	mov	r2, r3
 800636c:	f7fd fced 	bl	8003d4a <_write>
 8006370:	1c43      	adds	r3, r0, #1
 8006372:	d102      	bne.n	800637a <_write_r+0x1e>
 8006374:	682b      	ldr	r3, [r5, #0]
 8006376:	b103      	cbz	r3, 800637a <_write_r+0x1e>
 8006378:	6023      	str	r3, [r4, #0]
 800637a:	bd38      	pop	{r3, r4, r5, pc}
 800637c:	20000548 	.word	0x20000548

08006380 <__errno>:
 8006380:	4b01      	ldr	r3, [pc, #4]	@ (8006388 <__errno+0x8>)
 8006382:	6818      	ldr	r0, [r3, #0]
 8006384:	4770      	bx	lr
 8006386:	bf00      	nop
 8006388:	2000002c 	.word	0x2000002c

0800638c <__libc_init_array>:
 800638c:	b570      	push	{r4, r5, r6, lr}
 800638e:	2600      	movs	r6, #0
 8006390:	4d0c      	ldr	r5, [pc, #48]	@ (80063c4 <__libc_init_array+0x38>)
 8006392:	4c0d      	ldr	r4, [pc, #52]	@ (80063c8 <__libc_init_array+0x3c>)
 8006394:	1b64      	subs	r4, r4, r5
 8006396:	10a4      	asrs	r4, r4, #2
 8006398:	42a6      	cmp	r6, r4
 800639a:	d109      	bne.n	80063b0 <__libc_init_array+0x24>
 800639c:	f000 fe44 	bl	8007028 <_init>
 80063a0:	2600      	movs	r6, #0
 80063a2:	4d0a      	ldr	r5, [pc, #40]	@ (80063cc <__libc_init_array+0x40>)
 80063a4:	4c0a      	ldr	r4, [pc, #40]	@ (80063d0 <__libc_init_array+0x44>)
 80063a6:	1b64      	subs	r4, r4, r5
 80063a8:	10a4      	asrs	r4, r4, #2
 80063aa:	42a6      	cmp	r6, r4
 80063ac:	d105      	bne.n	80063ba <__libc_init_array+0x2e>
 80063ae:	bd70      	pop	{r4, r5, r6, pc}
 80063b0:	f855 3b04 	ldr.w	r3, [r5], #4
 80063b4:	4798      	blx	r3
 80063b6:	3601      	adds	r6, #1
 80063b8:	e7ee      	b.n	8006398 <__libc_init_array+0xc>
 80063ba:	f855 3b04 	ldr.w	r3, [r5], #4
 80063be:	4798      	blx	r3
 80063c0:	3601      	adds	r6, #1
 80063c2:	e7f2      	b.n	80063aa <__libc_init_array+0x1e>
 80063c4:	08007208 	.word	0x08007208
 80063c8:	08007208 	.word	0x08007208
 80063cc:	08007208 	.word	0x08007208
 80063d0:	0800720c 	.word	0x0800720c

080063d4 <__retarget_lock_init_recursive>:
 80063d4:	4770      	bx	lr

080063d6 <__retarget_lock_acquire_recursive>:
 80063d6:	4770      	bx	lr

080063d8 <__retarget_lock_release_recursive>:
 80063d8:	4770      	bx	lr
	...

080063dc <__assert_func>:
 80063dc:	b51f      	push	{r0, r1, r2, r3, r4, lr}
 80063de:	4614      	mov	r4, r2
 80063e0:	461a      	mov	r2, r3
 80063e2:	4b09      	ldr	r3, [pc, #36]	@ (8006408 <__assert_func+0x2c>)
 80063e4:	4605      	mov	r5, r0
 80063e6:	681b      	ldr	r3, [r3, #0]
 80063e8:	68d8      	ldr	r0, [r3, #12]
 80063ea:	b14c      	cbz	r4, 8006400 <__assert_func+0x24>
 80063ec:	4b07      	ldr	r3, [pc, #28]	@ (800640c <__assert_func+0x30>)
 80063ee:	e9cd 3401 	strd	r3, r4, [sp, #4]
 80063f2:	9100      	str	r1, [sp, #0]
 80063f4:	462b      	mov	r3, r5
 80063f6:	4906      	ldr	r1, [pc, #24]	@ (8006410 <__assert_func+0x34>)
 80063f8:	f000 f9b4 	bl	8006764 <fiprintf>
 80063fc:	f000 f9d4 	bl	80067a8 <abort>
 8006400:	4b04      	ldr	r3, [pc, #16]	@ (8006414 <__assert_func+0x38>)
 8006402:	461c      	mov	r4, r3
 8006404:	e7f3      	b.n	80063ee <__assert_func+0x12>
 8006406:	bf00      	nop
 8006408:	2000002c 	.word	0x2000002c
 800640c:	08007199 	.word	0x08007199
 8006410:	080071a6 	.word	0x080071a6
 8006414:	080071d4 	.word	0x080071d4

08006418 <_free_r>:
 8006418:	b538      	push	{r3, r4, r5, lr}
 800641a:	4605      	mov	r5, r0
 800641c:	2900      	cmp	r1, #0
 800641e:	d040      	beq.n	80064a2 <_free_r+0x8a>
 8006420:	f851 3c04 	ldr.w	r3, [r1, #-4]
 8006424:	1f0c      	subs	r4, r1, #4
 8006426:	2b00      	cmp	r3, #0
 8006428:	bfb8      	it	lt
 800642a:	18e4      	addlt	r4, r4, r3
 800642c:	f000 f8e6 	bl	80065fc <__malloc_lock>
 8006430:	4a1c      	ldr	r2, [pc, #112]	@ (80064a4 <_free_r+0x8c>)
 8006432:	6813      	ldr	r3, [r2, #0]
 8006434:	b933      	cbnz	r3, 8006444 <_free_r+0x2c>
 8006436:	6063      	str	r3, [r4, #4]
 8006438:	6014      	str	r4, [r2, #0]
 800643a:	4628      	mov	r0, r5
 800643c:	e8bd 4038 	ldmia.w	sp!, {r3, r4, r5, lr}
 8006440:	f000 b8e2 	b.w	8006608 <__malloc_unlock>
 8006444:	42a3      	cmp	r3, r4
 8006446:	d908      	bls.n	800645a <_free_r+0x42>
 8006448:	6820      	ldr	r0, [r4, #0]
 800644a:	1821      	adds	r1, r4, r0
 800644c:	428b      	cmp	r3, r1
 800644e:	bf01      	itttt	eq
 8006450:	6819      	ldreq	r1, [r3, #0]
 8006452:	685b      	ldreq	r3, [r3, #4]
 8006454:	1809      	addeq	r1, r1, r0
 8006456:	6021      	streq	r1, [r4, #0]
 8006458:	e7ed      	b.n	8006436 <_free_r+0x1e>
 800645a:	461a      	mov	r2, r3
 800645c:	685b      	ldr	r3, [r3, #4]
 800645e:	b10b      	cbz	r3, 8006464 <_free_r+0x4c>
 8006460:	42a3      	cmp	r3, r4
 8006462:	d9fa      	bls.n	800645a <_free_r+0x42>
 8006464:	6811      	ldr	r1, [r2, #0]
 8006466:	1850      	adds	r0, r2, r1
 8006468:	42a0      	cmp	r0, r4
 800646a:	d10b      	bne.n	8006484 <_free_r+0x6c>
 800646c:	6820      	ldr	r0, [r4, #0]
 800646e:	4401      	add	r1, r0
 8006470:	1850      	adds	r0, r2, r1
 8006472:	4283      	cmp	r3, r0
 8006474:	6011      	str	r1, [r2, #0]
 8006476:	d1e0      	bne.n	800643a <_free_r+0x22>
 8006478:	6818      	ldr	r0, [r3, #0]
 800647a:	685b      	ldr	r3, [r3, #4]
 800647c:	4408      	add	r0, r1
 800647e:	6010      	str	r0, [r2, #0]
 8006480:	6053      	str	r3, [r2, #4]
 8006482:	e7da      	b.n	800643a <_free_r+0x22>
 8006484:	d902      	bls.n	800648c <_free_r+0x74>
 8006486:	230c      	movs	r3, #12
 8006488:	602b      	str	r3, [r5, #0]
 800648a:	e7d6      	b.n	800643a <_free_r+0x22>
 800648c:	6820      	ldr	r0, [r4, #0]
 800648e:	1821      	adds	r1, r4, r0
 8006490:	428b      	cmp	r3, r1
 8006492:	bf01      	itttt	eq
 8006494:	6819      	ldreq	r1, [r3, #0]
 8006496:	685b      	ldreq	r3, [r3, #4]
 8006498:	1809      	addeq	r1, r1, r0
 800649a:	6021      	streq	r1, [r4, #0]
 800649c:	6063      	str	r3, [r4, #4]
 800649e:	6054      	str	r4, [r2, #4]
 80064a0:	e7cb      	b.n	800643a <_free_r+0x22>
 80064a2:	bd38      	pop	{r3, r4, r5, pc}
 80064a4:	20000554 	.word	0x20000554

080064a8 <malloc>:
 80064a8:	4b02      	ldr	r3, [pc, #8]	@ (80064b4 <malloc+0xc>)
 80064aa:	4601      	mov	r1, r0
 80064ac:	6818      	ldr	r0, [r3, #0]
 80064ae:	f000 b825 	b.w	80064fc <_malloc_r>
 80064b2:	bf00      	nop
 80064b4:	2000002c 	.word	0x2000002c

080064b8 <sbrk_aligned>:
 80064b8:	b570      	push	{r4, r5, r6, lr}
 80064ba:	4e0f      	ldr	r6, [pc, #60]	@ (80064f8 <sbrk_aligned+0x40>)
 80064bc:	460c      	mov	r4, r1
 80064be:	6831      	ldr	r1, [r6, #0]
 80064c0:	4605      	mov	r5, r0
 80064c2:	b911      	cbnz	r1, 80064ca <sbrk_aligned+0x12>
 80064c4:	f000 f960 	bl	8006788 <_sbrk_r>
 80064c8:	6030      	str	r0, [r6, #0]
 80064ca:	4621      	mov	r1, r4
 80064cc:	4628      	mov	r0, r5
 80064ce:	f000 f95b 	bl	8006788 <_sbrk_r>
 80064d2:	1c43      	adds	r3, r0, #1
 80064d4:	d103      	bne.n	80064de <sbrk_aligned+0x26>
 80064d6:	f04f 34ff 	mov.w	r4, #4294967295
 80064da:	4620      	mov	r0, r4
 80064dc:	bd70      	pop	{r4, r5, r6, pc}
 80064de:	1cc4      	adds	r4, r0, #3
 80064e0:	f024 0403 	bic.w	r4, r4, #3
 80064e4:	42a0      	cmp	r0, r4
 80064e6:	d0f8      	beq.n	80064da <sbrk_aligned+0x22>
 80064e8:	1a21      	subs	r1, r4, r0
 80064ea:	4628      	mov	r0, r5
 80064ec:	f000 f94c 	bl	8006788 <_sbrk_r>
 80064f0:	3001      	adds	r0, #1
 80064f2:	d1f2      	bne.n	80064da <sbrk_aligned+0x22>
 80064f4:	e7ef      	b.n	80064d6 <sbrk_aligned+0x1e>
 80064f6:	bf00      	nop
 80064f8:	20000550 	.word	0x20000550

080064fc <_malloc_r>:
 80064fc:	e92d 43f8 	stmdb	sp!, {r3, r4, r5, r6, r7, r8, r9, lr}
 8006500:	1ccd      	adds	r5, r1, #3
 8006502:	f025 0503 	bic.w	r5, r5, #3
 8006506:	3508      	adds	r5, #8
 8006508:	2d0c      	cmp	r5, #12
 800650a:	bf38      	it	cc
 800650c:	250c      	movcc	r5, #12
 800650e:	2d00      	cmp	r5, #0
 8006510:	4606      	mov	r6, r0
 8006512:	db01      	blt.n	8006518 <_malloc_r+0x1c>
 8006514:	42a9      	cmp	r1, r5
 8006516:	d904      	bls.n	8006522 <_malloc_r+0x26>
 8006518:	230c      	movs	r3, #12
 800651a:	6033      	str	r3, [r6, #0]
 800651c:	2000      	movs	r0, #0
 800651e:	e8bd 83f8 	ldmia.w	sp!, {r3, r4, r5, r6, r7, r8, r9, pc}
 8006522:	f8df 80d4 	ldr.w	r8, [pc, #212]	@ 80065f8 <_malloc_r+0xfc>
 8006526:	f000 f869 	bl	80065fc <__malloc_lock>
 800652a:	f8d8 3000 	ldr.w	r3, [r8]
 800652e:	461c      	mov	r4, r3
 8006530:	bb44      	cbnz	r4, 8006584 <_malloc_r+0x88>
 8006532:	4629      	mov	r1, r5
 8006534:	4630      	mov	r0, r6
 8006536:	f7ff ffbf 	bl	80064b8 <sbrk_aligned>
 800653a:	1c43      	adds	r3, r0, #1
 800653c:	4604      	mov	r4, r0
 800653e:	d158      	bne.n	80065f2 <_malloc_r+0xf6>
 8006540:	f8d8 4000 	ldr.w	r4, [r8]
 8006544:	4627      	mov	r7, r4
 8006546:	2f00      	cmp	r7, #0
 8006548:	d143      	bne.n	80065d2 <_malloc_r+0xd6>
 800654a:	2c00      	cmp	r4, #0
 800654c:	d04b      	beq.n	80065e6 <_malloc_r+0xea>
 800654e:	6823      	ldr	r3, [r4, #0]
 8006550:	4639      	mov	r1, r7
 8006552:	4630      	mov	r0, r6
 8006554:	eb04 0903 	add.w	r9, r4, r3
 8006558:	f000 f916 	bl	8006788 <_sbrk_r>
 800655c:	4581      	cmp	r9, r0
 800655e:	d142      	bne.n	80065e6 <_malloc_r+0xea>
 8006560:	6821      	ldr	r1, [r4, #0]
 8006562:	4630      	mov	r0, r6
 8006564:	1a6d      	subs	r5, r5, r1
 8006566:	4629      	mov	r1, r5
 8006568:	f7ff ffa6 	bl	80064b8 <sbrk_aligned>
 800656c:	3001      	adds	r0, #1
 800656e:	d03a      	beq.n	80065e6 <_malloc_r+0xea>
 8006570:	6823      	ldr	r3, [r4, #0]
 8006572:	442b      	add	r3, r5
 8006574:	6023      	str	r3, [r4, #0]
 8006576:	f8d8 3000 	ldr.w	r3, [r8]
 800657a:	685a      	ldr	r2, [r3, #4]
 800657c:	bb62      	cbnz	r2, 80065d8 <_malloc_r+0xdc>
 800657e:	f8c8 7000 	str.w	r7, [r8]
 8006582:	e00f      	b.n	80065a4 <_malloc_r+0xa8>
 8006584:	6822      	ldr	r2, [r4, #0]
 8006586:	1b52      	subs	r2, r2, r5
 8006588:	d420      	bmi.n	80065cc <_malloc_r+0xd0>
 800658a:	2a0b      	cmp	r2, #11
 800658c:	d917      	bls.n	80065be <_malloc_r+0xc2>
 800658e:	1961      	adds	r1, r4, r5
 8006590:	42a3      	cmp	r3, r4
 8006592:	6025      	str	r5, [r4, #0]
 8006594:	bf18      	it	ne
 8006596:	6059      	strne	r1, [r3, #4]
 8006598:	6863      	ldr	r3, [r4, #4]
 800659a:	bf08      	it	eq
 800659c:	f8c8 1000 	streq.w	r1, [r8]
 80065a0:	5162      	str	r2, [r4, r5]
 80065a2:	604b      	str	r3, [r1, #4]
 80065a4:	4630      	mov	r0, r6
 80065a6:	f000 f82f 	bl	8006608 <__malloc_unlock>
 80065aa:	f104 000b 	add.w	r0, r4, #11
 80065ae:	1d23      	adds	r3, r4, #4
 80065b0:	f020 0007 	bic.w	r0, r0, #7
 80065b4:	1ac2      	subs	r2, r0, r3
 80065b6:	bf1c      	itt	ne
 80065b8:	1a1b      	subne	r3, r3, r0
 80065ba:	50a3      	strne	r3, [r4, r2]
 80065bc:	e7af      	b.n	800651e <_malloc_r+0x22>
 80065be:	6862      	ldr	r2, [r4, #4]
 80065c0:	42a3      	cmp	r3, r4
 80065c2:	bf0c      	ite	eq
 80065c4:	f8c8 2000 	streq.w	r2, [r8]
 80065c8:	605a      	strne	r2, [r3, #4]
 80065ca:	e7eb      	b.n	80065a4 <_malloc_r+0xa8>
 80065cc:	4623      	mov	r3, r4
 80065ce:	6864      	ldr	r4, [r4, #4]
 80065d0:	e7ae      	b.n	8006530 <_malloc_r+0x34>
 80065d2:	463c      	mov	r4, r7
 80065d4:	687f      	ldr	r7, [r7, #4]
 80065d6:	e7b6      	b.n	8006546 <_malloc_r+0x4a>
 80065d8:	461a      	mov	r2, r3
 80065da:	685b      	ldr	r3, [r3, #4]
 80065dc:	42a3      	cmp	r3, r4
 80065de:	d1fb      	bne.n	80065d8 <_malloc_r+0xdc>
 80065e0:	2300      	movs	r3, #0
 80065e2:	6053      	str	r3, [r2, #4]
 80065e4:	e7de      	b.n	80065a4 <_malloc_r+0xa8>
 80065e6:	230c      	movs	r3, #12
 80065e8:	4630      	mov	r0, r6
 80065ea:	6033      	str	r3, [r6, #0]
 80065ec:	f000 f80c 	bl	8006608 <__malloc_unlock>
 80065f0:	e794      	b.n	800651c <_malloc_r+0x20>
 80065f2:	6005      	str	r5, [r0, #0]
 80065f4:	e7d6      	b.n	80065a4 <_malloc_r+0xa8>
 80065f6:	bf00      	nop
 80065f8:	20000554 	.word	0x20000554

080065fc <__malloc_lock>:
 80065fc:	4801      	ldr	r0, [pc, #4]	@ (8006604 <__malloc_lock+0x8>)
 80065fe:	f7ff beea 	b.w	80063d6 <__retarget_lock_acquire_recursive>
 8006602:	bf00      	nop
 8006604:	2000054c 	.word	0x2000054c

08006608 <__malloc_unlock>:
 8006608:	4801      	ldr	r0, [pc, #4]	@ (8006610 <__malloc_unlock+0x8>)
 800660a:	f7ff bee5 	b.w	80063d8 <__retarget_lock_release_recursive>
 800660e:	bf00      	nop
 8006610:	2000054c 	.word	0x2000054c

08006614 <__sflush_r>:
 8006614:	f9b1 200c 	ldrsh.w	r2, [r1, #12]
 8006618:	b5f8      	push	{r3, r4, r5, r6, r7, lr}
 800661a:	0716      	lsls	r6, r2, #28
 800661c:	4605      	mov	r5, r0
 800661e:	460c      	mov	r4, r1
 8006620:	d454      	bmi.n	80066cc <__sflush_r+0xb8>
 8006622:	684b      	ldr	r3, [r1, #4]
 8006624:	2b00      	cmp	r3, #0
 8006626:	dc02      	bgt.n	800662e <__sflush_r+0x1a>
 8006628:	6c0b      	ldr	r3, [r1, #64]	@ 0x40
 800662a:	2b00      	cmp	r3, #0
 800662c:	dd48      	ble.n	80066c0 <__sflush_r+0xac>
 800662e:	6ae6      	ldr	r6, [r4, #44]	@ 0x2c
 8006630:	2e00      	cmp	r6, #0
 8006632:	d045      	beq.n	80066c0 <__sflush_r+0xac>
 8006634:	2300      	movs	r3, #0
 8006636:	f412 5280 	ands.w	r2, r2, #4096	@ 0x1000
 800663a:	682f      	ldr	r7, [r5, #0]
 800663c:	6a21      	ldr	r1, [r4, #32]
 800663e:	602b      	str	r3, [r5, #0]
 8006640:	d030      	beq.n	80066a4 <__sflush_r+0x90>
 8006642:	6d62      	ldr	r2, [r4, #84]	@ 0x54
 8006644:	89a3      	ldrh	r3, [r4, #12]
 8006646:	0759      	lsls	r1, r3, #29
 8006648:	d505      	bpl.n	8006656 <__sflush_r+0x42>
 800664a:	6863      	ldr	r3, [r4, #4]
 800664c:	1ad2      	subs	r2, r2, r3
 800664e:	6b63      	ldr	r3, [r4, #52]	@ 0x34
 8006650:	b10b      	cbz	r3, 8006656 <__sflush_r+0x42>
 8006652:	6c23      	ldr	r3, [r4, #64]	@ 0x40
 8006654:	1ad2      	subs	r2, r2, r3
 8006656:	2300      	movs	r3, #0
 8006658:	4628      	mov	r0, r5
 800665a:	6ae6      	ldr	r6, [r4, #44]	@ 0x2c
 800665c:	6a21      	ldr	r1, [r4, #32]
 800665e:	47b0      	blx	r6
 8006660:	1c43      	adds	r3, r0, #1
 8006662:	89a3      	ldrh	r3, [r4, #12]
 8006664:	d106      	bne.n	8006674 <__sflush_r+0x60>
 8006666:	6829      	ldr	r1, [r5, #0]
 8006668:	291d      	cmp	r1, #29
 800666a:	d82b      	bhi.n	80066c4 <__sflush_r+0xb0>
 800666c:	4a28      	ldr	r2, [pc, #160]	@ (8006710 <__sflush_r+0xfc>)
 800666e:	40ca      	lsrs	r2, r1
 8006670:	07d6      	lsls	r6, r2, #31
 8006672:	d527      	bpl.n	80066c4 <__sflush_r+0xb0>
 8006674:	2200      	movs	r2, #0
 8006676:	6062      	str	r2, [r4, #4]
 8006678:	6922      	ldr	r2, [r4, #16]
 800667a:	04d9      	lsls	r1, r3, #19
 800667c:	6022      	str	r2, [r4, #0]
 800667e:	d504      	bpl.n	800668a <__sflush_r+0x76>
 8006680:	1c42      	adds	r2, r0, #1
 8006682:	d101      	bne.n	8006688 <__sflush_r+0x74>
 8006684:	682b      	ldr	r3, [r5, #0]
 8006686:	b903      	cbnz	r3, 800668a <__sflush_r+0x76>
 8006688:	6560      	str	r0, [r4, #84]	@ 0x54
 800668a:	6b61      	ldr	r1, [r4, #52]	@ 0x34
 800668c:	602f      	str	r7, [r5, #0]
 800668e:	b1b9      	cbz	r1, 80066c0 <__sflush_r+0xac>
 8006690:	f104 0344 	add.w	r3, r4, #68	@ 0x44
 8006694:	4299      	cmp	r1, r3
 8006696:	d002      	beq.n	800669e <__sflush_r+0x8a>
 8006698:	4628      	mov	r0, r5
 800669a:	f7ff febd 	bl	8006418 <_free_r>
 800669e:	2300      	movs	r3, #0
 80066a0:	6363      	str	r3, [r4, #52]	@ 0x34
 80066a2:	e00d      	b.n	80066c0 <__sflush_r+0xac>
 80066a4:	2301      	movs	r3, #1
 80066a6:	4628      	mov	r0, r5
 80066a8:	47b0      	blx	r6
 80066aa:	4602      	mov	r2, r0
 80066ac:	1c50      	adds	r0, r2, #1
 80066ae:	d1c9      	bne.n	8006644 <__sflush_r+0x30>
 80066b0:	682b      	ldr	r3, [r5, #0]
 80066b2:	2b00      	cmp	r3, #0
 80066b4:	d0c6      	beq.n	8006644 <__sflush_r+0x30>
 80066b6:	2b1d      	cmp	r3, #29
 80066b8:	d001      	beq.n	80066be <__sflush_r+0xaa>
 80066ba:	2b16      	cmp	r3, #22
 80066bc:	d11d      	bne.n	80066fa <__sflush_r+0xe6>
 80066be:	602f      	str	r7, [r5, #0]
 80066c0:	2000      	movs	r0, #0
 80066c2:	e021      	b.n	8006708 <__sflush_r+0xf4>
 80066c4:	f043 0340 	orr.w	r3, r3, #64	@ 0x40
 80066c8:	b21b      	sxth	r3, r3
 80066ca:	e01a      	b.n	8006702 <__sflush_r+0xee>
 80066cc:	690f      	ldr	r7, [r1, #16]
 80066ce:	2f00      	cmp	r7, #0
 80066d0:	d0f6      	beq.n	80066c0 <__sflush_r+0xac>
 80066d2:	0793      	lsls	r3, r2, #30
 80066d4:	bf18      	it	ne
 80066d6:	2300      	movne	r3, #0
 80066d8:	680e      	ldr	r6, [r1, #0]
 80066da:	bf08      	it	eq
 80066dc:	694b      	ldreq	r3, [r1, #20]
 80066de:	1bf6      	subs	r6, r6, r7
 80066e0:	600f      	str	r7, [r1, #0]
 80066e2:	608b      	str	r3, [r1, #8]
 80066e4:	2e00      	cmp	r6, #0
 80066e6:	ddeb      	ble.n	80066c0 <__sflush_r+0xac>
 80066e8:	4633      	mov	r3, r6
 80066ea:	463a      	mov	r2, r7
 80066ec:	4628      	mov	r0, r5
 80066ee:	6a21      	ldr	r1, [r4, #32]
 80066f0:	f8d4 c028 	ldr.w	ip, [r4, #40]	@ 0x28
 80066f4:	47e0      	blx	ip
 80066f6:	2800      	cmp	r0, #0
 80066f8:	dc07      	bgt.n	800670a <__sflush_r+0xf6>
 80066fa:	f9b4 300c 	ldrsh.w	r3, [r4, #12]
 80066fe:	f043 0340 	orr.w	r3, r3, #64	@ 0x40
 8006702:	f04f 30ff 	mov.w	r0, #4294967295
 8006706:	81a3      	strh	r3, [r4, #12]
 8006708:	bdf8      	pop	{r3, r4, r5, r6, r7, pc}
 800670a:	4407      	add	r7, r0
 800670c:	1a36      	subs	r6, r6, r0
 800670e:	e7e9      	b.n	80066e4 <__sflush_r+0xd0>
 8006710:	20400001 	.word	0x20400001

08006714 <_fflush_r>:
 8006714:	b538      	push	{r3, r4, r5, lr}
 8006716:	690b      	ldr	r3, [r1, #16]
 8006718:	4605      	mov	r5, r0
 800671a:	460c      	mov	r4, r1
 800671c:	b913      	cbnz	r3, 8006724 <_fflush_r+0x10>
 800671e:	2500      	movs	r5, #0
 8006720:	4628      	mov	r0, r5
 8006722:	bd38      	pop	{r3, r4, r5, pc}
 8006724:	b118      	cbz	r0, 800672e <_fflush_r+0x1a>
 8006726:	6a03      	ldr	r3, [r0, #32]
 8006728:	b90b      	cbnz	r3, 800672e <_fflush_r+0x1a>
 800672a:	f7ff fd61 	bl	80061f0 <__sinit>
 800672e:	f9b4 300c 	ldrsh.w	r3, [r4, #12]
 8006732:	2b00      	cmp	r3, #0
 8006734:	d0f3      	beq.n	800671e <_fflush_r+0xa>
 8006736:	6e62      	ldr	r2, [r4, #100]	@ 0x64
 8006738:	07d0      	lsls	r0, r2, #31
 800673a:	d404      	bmi.n	8006746 <_fflush_r+0x32>
 800673c:	0599      	lsls	r1, r3, #22
 800673e:	d402      	bmi.n	8006746 <_fflush_r+0x32>
 8006740:	6da0      	ldr	r0, [r4, #88]	@ 0x58
 8006742:	f7ff fe48 	bl	80063d6 <__retarget_lock_acquire_recursive>
 8006746:	4628      	mov	r0, r5
 8006748:	4621      	mov	r1, r4
 800674a:	f7ff ff63 	bl	8006614 <__sflush_r>
 800674e:	6e63      	ldr	r3, [r4, #100]	@ 0x64
 8006750:	4605      	mov	r5, r0
 8006752:	07da      	lsls	r2, r3, #31
 8006754:	d4e4      	bmi.n	8006720 <_fflush_r+0xc>
 8006756:	89a3      	ldrh	r3, [r4, #12]
 8006758:	059b      	lsls	r3, r3, #22
 800675a:	d4e1      	bmi.n	8006720 <_fflush_r+0xc>
 800675c:	6da0      	ldr	r0, [r4, #88]	@ 0x58
 800675e:	f7ff fe3b 	bl	80063d8 <__retarget_lock_release_recursive>
 8006762:	e7dd      	b.n	8006720 <_fflush_r+0xc>

08006764 <fiprintf>:
 8006764:	b40e      	push	{r1, r2, r3}
 8006766:	b503      	push	{r0, r1, lr}
 8006768:	4601      	mov	r1, r0
 800676a:	ab03      	add	r3, sp, #12
 800676c:	4805      	ldr	r0, [pc, #20]	@ (8006784 <fiprintf+0x20>)
 800676e:	f853 2b04 	ldr.w	r2, [r3], #4
 8006772:	6800      	ldr	r0, [r0, #0]
 8006774:	9301      	str	r3, [sp, #4]
 8006776:	f000 f845 	bl	8006804 <_vfiprintf_r>
 800677a:	b002      	add	sp, #8
 800677c:	f85d eb04 	ldr.w	lr, [sp], #4
 8006780:	b003      	add	sp, #12
 8006782:	4770      	bx	lr
 8006784:	2000002c 	.word	0x2000002c

08006788 <_sbrk_r>:
 8006788:	b538      	push	{r3, r4, r5, lr}
 800678a:	2300      	movs	r3, #0
 800678c:	4d05      	ldr	r5, [pc, #20]	@ (80067a4 <_sbrk_r+0x1c>)
 800678e:	4604      	mov	r4, r0
 8006790:	4608      	mov	r0, r1
 8006792:	602b      	str	r3, [r5, #0]
 8006794:	f7fd fb26 	bl	8003de4 <_sbrk>
 8006798:	1c43      	adds	r3, r0, #1
 800679a:	d102      	bne.n	80067a2 <_sbrk_r+0x1a>
 800679c:	682b      	ldr	r3, [r5, #0]
 800679e:	b103      	cbz	r3, 80067a2 <_sbrk_r+0x1a>
 80067a0:	6023      	str	r3, [r4, #0]
 80067a2:	bd38      	pop	{r3, r4, r5, pc}
 80067a4:	20000548 	.word	0x20000548

080067a8 <abort>:
 80067a8:	2006      	movs	r0, #6
 80067aa:	b508      	push	{r3, lr}
 80067ac:	f000 fb8e 	bl	8006ecc <raise>
 80067b0:	2001      	movs	r0, #1
 80067b2:	f7fd faa2 	bl	8003cfa <_exit>

080067b6 <__sfputc_r>:
 80067b6:	6893      	ldr	r3, [r2, #8]
 80067b8:	b410      	push	{r4}
 80067ba:	3b01      	subs	r3, #1
 80067bc:	2b00      	cmp	r3, #0
 80067be:	6093      	str	r3, [r2, #8]
 80067c0:	da07      	bge.n	80067d2 <__sfputc_r+0x1c>
 80067c2:	6994      	ldr	r4, [r2, #24]
 80067c4:	42a3      	cmp	r3, r4
 80067c6:	db01      	blt.n	80067cc <__sfputc_r+0x16>
 80067c8:	290a      	cmp	r1, #10
 80067ca:	d102      	bne.n	80067d2 <__sfputc_r+0x1c>
 80067cc:	bc10      	pop	{r4}
 80067ce:	f000 bac1 	b.w	8006d54 <__swbuf_r>
 80067d2:	6813      	ldr	r3, [r2, #0]
 80067d4:	1c58      	adds	r0, r3, #1
 80067d6:	6010      	str	r0, [r2, #0]
 80067d8:	7019      	strb	r1, [r3, #0]
 80067da:	4608      	mov	r0, r1
 80067dc:	bc10      	pop	{r4}
 80067de:	4770      	bx	lr

080067e0 <__sfputs_r>:
 80067e0:	b5f8      	push	{r3, r4, r5, r6, r7, lr}
 80067e2:	4606      	mov	r6, r0
 80067e4:	460f      	mov	r7, r1
 80067e6:	4614      	mov	r4, r2
 80067e8:	18d5      	adds	r5, r2, r3
 80067ea:	42ac      	cmp	r4, r5
 80067ec:	d101      	bne.n	80067f2 <__sfputs_r+0x12>
 80067ee:	2000      	movs	r0, #0
 80067f0:	e007      	b.n	8006802 <__sfputs_r+0x22>
 80067f2:	463a      	mov	r2, r7
 80067f4:	4630      	mov	r0, r6
 80067f6:	f814 1b01 	ldrb.w	r1, [r4], #1
 80067fa:	f7ff ffdc 	bl	80067b6 <__sfputc_r>
 80067fe:	1c43      	adds	r3, r0, #1
 8006800:	d1f3      	bne.n	80067ea <__sfputs_r+0xa>
 8006802:	bdf8      	pop	{r3, r4, r5, r6, r7, pc}

08006804 <_vfiprintf_r>:
 8006804:	e92d 4ff0 	stmdb	sp!, {r4, r5, r6, r7, r8, r9, sl, fp, lr}
 8006808:	460d      	mov	r5, r1
 800680a:	4614      	mov	r4, r2
 800680c:	4698      	mov	r8, r3
 800680e:	4606      	mov	r6, r0
 8006810:	b09d      	sub	sp, #116	@ 0x74
 8006812:	b118      	cbz	r0, 800681c <_vfiprintf_r+0x18>
 8006814:	6a03      	ldr	r3, [r0, #32]
 8006816:	b90b      	cbnz	r3, 800681c <_vfiprintf_r+0x18>
 8006818:	f7ff fcea 	bl	80061f0 <__sinit>
 800681c:	6e6b      	ldr	r3, [r5, #100]	@ 0x64
 800681e:	07d9      	lsls	r1, r3, #31
 8006820:	d405      	bmi.n	800682e <_vfiprintf_r+0x2a>
 8006822:	89ab      	ldrh	r3, [r5, #12]
 8006824:	059a      	lsls	r2, r3, #22
 8006826:	d402      	bmi.n	800682e <_vfiprintf_r+0x2a>
 8006828:	6da8      	ldr	r0, [r5, #88]	@ 0x58
 800682a:	f7ff fdd4 	bl	80063d6 <__retarget_lock_acquire_recursive>
 800682e:	89ab      	ldrh	r3, [r5, #12]
 8006830:	071b      	lsls	r3, r3, #28
 8006832:	d501      	bpl.n	8006838 <_vfiprintf_r+0x34>
 8006834:	692b      	ldr	r3, [r5, #16]
 8006836:	b99b      	cbnz	r3, 8006860 <_vfiprintf_r+0x5c>
 8006838:	4629      	mov	r1, r5
 800683a:	4630      	mov	r0, r6
 800683c:	f000 fac8 	bl	8006dd0 <__swsetup_r>
 8006840:	b170      	cbz	r0, 8006860 <_vfiprintf_r+0x5c>
 8006842:	6e6b      	ldr	r3, [r5, #100]	@ 0x64
 8006844:	07dc      	lsls	r4, r3, #31
 8006846:	d504      	bpl.n	8006852 <_vfiprintf_r+0x4e>
 8006848:	f04f 30ff 	mov.w	r0, #4294967295
 800684c:	b01d      	add	sp, #116	@ 0x74
 800684e:	e8bd 8ff0 	ldmia.w	sp!, {r4, r5, r6, r7, r8, r9, sl, fp, pc}
 8006852:	89ab      	ldrh	r3, [r5, #12]
 8006854:	0598      	lsls	r0, r3, #22
 8006856:	d4f7      	bmi.n	8006848 <_vfiprintf_r+0x44>
 8006858:	6da8      	ldr	r0, [r5, #88]	@ 0x58
 800685a:	f7ff fdbd 	bl	80063d8 <__retarget_lock_release_recursive>
 800685e:	e7f3      	b.n	8006848 <_vfiprintf_r+0x44>
 8006860:	2300      	movs	r3, #0
 8006862:	9309      	str	r3, [sp, #36]	@ 0x24
 8006864:	2320      	movs	r3, #32
 8006866:	f88d 3029 	strb.w	r3, [sp, #41]	@ 0x29
 800686a:	2330      	movs	r3, #48	@ 0x30
 800686c:	f04f 0901 	mov.w	r9, #1
 8006870:	f8cd 800c 	str.w	r8, [sp, #12]
 8006874:	f8df 81a8 	ldr.w	r8, [pc, #424]	@ 8006a20 <_vfiprintf_r+0x21c>
 8006878:	f88d 302a 	strb.w	r3, [sp, #42]	@ 0x2a
 800687c:	4623      	mov	r3, r4
 800687e:	469a      	mov	sl, r3
 8006880:	f813 2b01 	ldrb.w	r2, [r3], #1
 8006884:	b10a      	cbz	r2, 800688a <_vfiprintf_r+0x86>
 8006886:	2a25      	cmp	r2, #37	@ 0x25
 8006888:	d1f9      	bne.n	800687e <_vfiprintf_r+0x7a>
 800688a:	ebba 0b04 	subs.w	fp, sl, r4
 800688e:	d00b      	beq.n	80068a8 <_vfiprintf_r+0xa4>
 8006890:	465b      	mov	r3, fp
 8006892:	4622      	mov	r2, r4
 8006894:	4629      	mov	r1, r5
 8006896:	4630      	mov	r0, r6
 8006898:	f7ff ffa2 	bl	80067e0 <__sfputs_r>
 800689c:	3001      	adds	r0, #1
 800689e:	f000 80a7 	beq.w	80069f0 <_vfiprintf_r+0x1ec>
 80068a2:	9a09      	ldr	r2, [sp, #36]	@ 0x24
 80068a4:	445a      	add	r2, fp
 80068a6:	9209      	str	r2, [sp, #36]	@ 0x24
 80068a8:	f89a 3000 	ldrb.w	r3, [sl]
 80068ac:	2b00      	cmp	r3, #0
 80068ae:	f000 809f 	beq.w	80069f0 <_vfiprintf_r+0x1ec>
 80068b2:	2300      	movs	r3, #0
 80068b4:	f04f 32ff 	mov.w	r2, #4294967295
 80068b8:	e9cd 2305 	strd	r2, r3, [sp, #20]
 80068bc:	f10a 0a01 	add.w	sl, sl, #1
 80068c0:	9304      	str	r3, [sp, #16]
 80068c2:	9307      	str	r3, [sp, #28]
 80068c4:	f88d 3053 	strb.w	r3, [sp, #83]	@ 0x53
 80068c8:	931a      	str	r3, [sp, #104]	@ 0x68
 80068ca:	4654      	mov	r4, sl
 80068cc:	2205      	movs	r2, #5
 80068ce:	f814 1b01 	ldrb.w	r1, [r4], #1
 80068d2:	4853      	ldr	r0, [pc, #332]	@ (8006a20 <_vfiprintf_r+0x21c>)
 80068d4:	f000 fb16 	bl	8006f04 <memchr>
 80068d8:	9a04      	ldr	r2, [sp, #16]
 80068da:	b9d8      	cbnz	r0, 8006914 <_vfiprintf_r+0x110>
 80068dc:	06d1      	lsls	r1, r2, #27
 80068de:	bf44      	itt	mi
 80068e0:	2320      	movmi	r3, #32
 80068e2:	f88d 3053 	strbmi.w	r3, [sp, #83]	@ 0x53
 80068e6:	0713      	lsls	r3, r2, #28
 80068e8:	bf44      	itt	mi
 80068ea:	232b      	movmi	r3, #43	@ 0x2b
 80068ec:	f88d 3053 	strbmi.w	r3, [sp, #83]	@ 0x53
 80068f0:	f89a 3000 	ldrb.w	r3, [sl]
 80068f4:	2b2a      	cmp	r3, #42	@ 0x2a
 80068f6:	d015      	beq.n	8006924 <_vfiprintf_r+0x120>
 80068f8:	4654      	mov	r4, sl
 80068fa:	2000      	movs	r0, #0
 80068fc:	f04f 0c0a 	mov.w	ip, #10
 8006900:	9a07      	ldr	r2, [sp, #28]
 8006902:	4621      	mov	r1, r4
 8006904:	f811 3b01 	ldrb.w	r3, [r1], #1
 8006908:	3b30      	subs	r3, #48	@ 0x30
 800690a:	2b09      	cmp	r3, #9
 800690c:	d94b      	bls.n	80069a6 <_vfiprintf_r+0x1a2>
 800690e:	b1b0      	cbz	r0, 800693e <_vfiprintf_r+0x13a>
 8006910:	9207      	str	r2, [sp, #28]
 8006912:	e014      	b.n	800693e <_vfiprintf_r+0x13a>
 8006914:	eba0 0308 	sub.w	r3, r0, r8
 8006918:	fa09 f303 	lsl.w	r3, r9, r3
 800691c:	4313      	orrs	r3, r2
 800691e:	46a2      	mov	sl, r4
 8006920:	9304      	str	r3, [sp, #16]
 8006922:	e7d2      	b.n	80068ca <_vfiprintf_r+0xc6>
 8006924:	9b03      	ldr	r3, [sp, #12]
 8006926:	1d19      	adds	r1, r3, #4
 8006928:	681b      	ldr	r3, [r3, #0]
 800692a:	9103      	str	r1, [sp, #12]
 800692c:	2b00      	cmp	r3, #0
 800692e:	bfbb      	ittet	lt
 8006930:	425b      	neglt	r3, r3
 8006932:	f042 0202 	orrlt.w	r2, r2, #2
 8006936:	9307      	strge	r3, [sp, #28]
 8006938:	9307      	strlt	r3, [sp, #28]
 800693a:	bfb8      	it	lt
 800693c:	9204      	strlt	r2, [sp, #16]
 800693e:	7823      	ldrb	r3, [r4, #0]
 8006940:	2b2e      	cmp	r3, #46	@ 0x2e
 8006942:	d10a      	bne.n	800695a <_vfiprintf_r+0x156>
 8006944:	7863      	ldrb	r3, [r4, #1]
 8006946:	2b2a      	cmp	r3, #42	@ 0x2a
 8006948:	d132      	bne.n	80069b0 <_vfiprintf_r+0x1ac>
 800694a:	9b03      	ldr	r3, [sp, #12]
 800694c:	3402      	adds	r4, #2
 800694e:	1d1a      	adds	r2, r3, #4
 8006950:	681b      	ldr	r3, [r3, #0]
 8006952:	9203      	str	r2, [sp, #12]
 8006954:	ea43 73e3 	orr.w	r3, r3, r3, asr #31
 8006958:	9305      	str	r3, [sp, #20]
 800695a:	f8df a0c8 	ldr.w	sl, [pc, #200]	@ 8006a24 <_vfiprintf_r+0x220>
 800695e:	2203      	movs	r2, #3
 8006960:	4650      	mov	r0, sl
 8006962:	7821      	ldrb	r1, [r4, #0]
 8006964:	f000 face 	bl	8006f04 <memchr>
 8006968:	b138      	cbz	r0, 800697a <_vfiprintf_r+0x176>
 800696a:	2240      	movs	r2, #64	@ 0x40
 800696c:	9b04      	ldr	r3, [sp, #16]
 800696e:	eba0 000a 	sub.w	r0, r0, sl
 8006972:	4082      	lsls	r2, r0
 8006974:	4313      	orrs	r3, r2
 8006976:	3401      	adds	r4, #1
 8006978:	9304      	str	r3, [sp, #16]
 800697a:	f814 1b01 	ldrb.w	r1, [r4], #1
 800697e:	2206      	movs	r2, #6
 8006980:	4829      	ldr	r0, [pc, #164]	@ (8006a28 <_vfiprintf_r+0x224>)
 8006982:	f88d 1028 	strb.w	r1, [sp, #40]	@ 0x28
 8006986:	f000 fabd 	bl	8006f04 <memchr>
 800698a:	2800      	cmp	r0, #0
 800698c:	d03f      	beq.n	8006a0e <_vfiprintf_r+0x20a>
 800698e:	4b27      	ldr	r3, [pc, #156]	@ (8006a2c <_vfiprintf_r+0x228>)
 8006990:	bb1b      	cbnz	r3, 80069da <_vfiprintf_r+0x1d6>
 8006992:	9b03      	ldr	r3, [sp, #12]
 8006994:	3307      	adds	r3, #7
 8006996:	f023 0307 	bic.w	r3, r3, #7
 800699a:	3308      	adds	r3, #8
 800699c:	9303      	str	r3, [sp, #12]
 800699e:	9b09      	ldr	r3, [sp, #36]	@ 0x24
 80069a0:	443b      	add	r3, r7
 80069a2:	9309      	str	r3, [sp, #36]	@ 0x24
 80069a4:	e76a      	b.n	800687c <_vfiprintf_r+0x78>
 80069a6:	460c      	mov	r4, r1
 80069a8:	2001      	movs	r0, #1
 80069aa:	fb0c 3202 	mla	r2, ip, r2, r3
 80069ae:	e7a8      	b.n	8006902 <_vfiprintf_r+0xfe>
 80069b0:	2300      	movs	r3, #0
 80069b2:	f04f 0c0a 	mov.w	ip, #10
 80069b6:	4619      	mov	r1, r3
 80069b8:	3401      	adds	r4, #1
 80069ba:	9305      	str	r3, [sp, #20]
 80069bc:	4620      	mov	r0, r4
 80069be:	f810 2b01 	ldrb.w	r2, [r0], #1
 80069c2:	3a30      	subs	r2, #48	@ 0x30
 80069c4:	2a09      	cmp	r2, #9
 80069c6:	d903      	bls.n	80069d0 <_vfiprintf_r+0x1cc>
 80069c8:	2b00      	cmp	r3, #0
 80069ca:	d0c6      	beq.n	800695a <_vfiprintf_r+0x156>
 80069cc:	9105      	str	r1, [sp, #20]
 80069ce:	e7c4      	b.n	800695a <_vfiprintf_r+0x156>
 80069d0:	4604      	mov	r4, r0
 80069d2:	2301      	movs	r3, #1
 80069d4:	fb0c 2101 	mla	r1, ip, r1, r2
 80069d8:	e7f0      	b.n	80069bc <_vfiprintf_r+0x1b8>
 80069da:	ab03      	add	r3, sp, #12
 80069dc:	9300      	str	r3, [sp, #0]
 80069de:	462a      	mov	r2, r5
 80069e0:	4630      	mov	r0, r6
 80069e2:	4b13      	ldr	r3, [pc, #76]	@ (8006a30 <_vfiprintf_r+0x22c>)
 80069e4:	a904      	add	r1, sp, #16
 80069e6:	f3af 8000 	nop.w
 80069ea:	4607      	mov	r7, r0
 80069ec:	1c78      	adds	r0, r7, #1
 80069ee:	d1d6      	bne.n	800699e <_vfiprintf_r+0x19a>
 80069f0:	6e6b      	ldr	r3, [r5, #100]	@ 0x64
 80069f2:	07d9      	lsls	r1, r3, #31
 80069f4:	d405      	bmi.n	8006a02 <_vfiprintf_r+0x1fe>
 80069f6:	89ab      	ldrh	r3, [r5, #12]
 80069f8:	059a      	lsls	r2, r3, #22
 80069fa:	d402      	bmi.n	8006a02 <_vfiprintf_r+0x1fe>
 80069fc:	6da8      	ldr	r0, [r5, #88]	@ 0x58
 80069fe:	f7ff fceb 	bl	80063d8 <__retarget_lock_release_recursive>
 8006a02:	89ab      	ldrh	r3, [r5, #12]
 8006a04:	065b      	lsls	r3, r3, #25
 8006a06:	f53f af1f 	bmi.w	8006848 <_vfiprintf_r+0x44>
 8006a0a:	9809      	ldr	r0, [sp, #36]	@ 0x24
 8006a0c:	e71e      	b.n	800684c <_vfiprintf_r+0x48>
 8006a0e:	ab03      	add	r3, sp, #12
 8006a10:	9300      	str	r3, [sp, #0]
 8006a12:	462a      	mov	r2, r5
 8006a14:	4630      	mov	r0, r6
 8006a16:	4b06      	ldr	r3, [pc, #24]	@ (8006a30 <_vfiprintf_r+0x22c>)
 8006a18:	a904      	add	r1, sp, #16
 8006a1a:	f000 f87d 	bl	8006b18 <_printf_i>
 8006a1e:	e7e4      	b.n	80069ea <_vfiprintf_r+0x1e6>
 8006a20:	080071d5 	.word	0x080071d5
 8006a24:	080071db 	.word	0x080071db
 8006a28:	080071df 	.word	0x080071df
 8006a2c:	00000000 	.word	0x00000000
 8006a30:	080067e1 	.word	0x080067e1

08006a34 <_printf_common>:
 8006a34:	e92d 47f0 	stmdb	sp!, {r4, r5, r6, r7, r8, r9, sl, lr}
 8006a38:	4616      	mov	r6, r2
 8006a3a:	4698      	mov	r8, r3
 8006a3c:	688a      	ldr	r2, [r1, #8]
 8006a3e:	690b      	ldr	r3, [r1, #16]
 8006a40:	4607      	mov	r7, r0
 8006a42:	4293      	cmp	r3, r2
 8006a44:	bfb8      	it	lt
 8006a46:	4613      	movlt	r3, r2
 8006a48:	6033      	str	r3, [r6, #0]
 8006a4a:	f891 2043 	ldrb.w	r2, [r1, #67]	@ 0x43
 8006a4e:	460c      	mov	r4, r1
 8006a50:	f8dd 9020 	ldr.w	r9, [sp, #32]
 8006a54:	b10a      	cbz	r2, 8006a5a <_printf_common+0x26>
 8006a56:	3301      	adds	r3, #1
 8006a58:	6033      	str	r3, [r6, #0]
 8006a5a:	6823      	ldr	r3, [r4, #0]
 8006a5c:	0699      	lsls	r1, r3, #26
 8006a5e:	bf42      	ittt	mi
 8006a60:	6833      	ldrmi	r3, [r6, #0]
 8006a62:	3302      	addmi	r3, #2
 8006a64:	6033      	strmi	r3, [r6, #0]
 8006a66:	6825      	ldr	r5, [r4, #0]
 8006a68:	f015 0506 	ands.w	r5, r5, #6
 8006a6c:	d106      	bne.n	8006a7c <_printf_common+0x48>
 8006a6e:	f104 0a19 	add.w	sl, r4, #25
 8006a72:	68e3      	ldr	r3, [r4, #12]
 8006a74:	6832      	ldr	r2, [r6, #0]
 8006a76:	1a9b      	subs	r3, r3, r2
 8006a78:	42ab      	cmp	r3, r5
 8006a7a:	dc2b      	bgt.n	8006ad4 <_printf_common+0xa0>
 8006a7c:	f894 3043 	ldrb.w	r3, [r4, #67]	@ 0x43
 8006a80:	6822      	ldr	r2, [r4, #0]
 8006a82:	3b00      	subs	r3, #0
 8006a84:	bf18      	it	ne
 8006a86:	2301      	movne	r3, #1
 8006a88:	0692      	lsls	r2, r2, #26
 8006a8a:	d430      	bmi.n	8006aee <_printf_common+0xba>
 8006a8c:	4641      	mov	r1, r8
 8006a8e:	4638      	mov	r0, r7
 8006a90:	f104 0243 	add.w	r2, r4, #67	@ 0x43
 8006a94:	47c8      	blx	r9
 8006a96:	3001      	adds	r0, #1
 8006a98:	d023      	beq.n	8006ae2 <_printf_common+0xae>
 8006a9a:	6823      	ldr	r3, [r4, #0]
 8006a9c:	6922      	ldr	r2, [r4, #16]
 8006a9e:	f003 0306 	and.w	r3, r3, #6
 8006aa2:	2b04      	cmp	r3, #4
 8006aa4:	bf14      	ite	ne
 8006aa6:	2500      	movne	r5, #0
 8006aa8:	6833      	ldreq	r3, [r6, #0]
 8006aaa:	f04f 0600 	mov.w	r6, #0
 8006aae:	bf08      	it	eq
 8006ab0:	68e5      	ldreq	r5, [r4, #12]
 8006ab2:	f104 041a 	add.w	r4, r4, #26
 8006ab6:	bf08      	it	eq
 8006ab8:	1aed      	subeq	r5, r5, r3
 8006aba:	f854 3c12 	ldr.w	r3, [r4, #-18]
 8006abe:	bf08      	it	eq
 8006ac0:	ea25 75e5 	biceq.w	r5, r5, r5, asr #31
 8006ac4:	4293      	cmp	r3, r2
 8006ac6:	bfc4      	itt	gt
 8006ac8:	1a9b      	subgt	r3, r3, r2
 8006aca:	18ed      	addgt	r5, r5, r3
 8006acc:	42b5      	cmp	r5, r6
 8006ace:	d11a      	bne.n	8006b06 <_printf_common+0xd2>
 8006ad0:	2000      	movs	r0, #0
 8006ad2:	e008      	b.n	8006ae6 <_printf_common+0xb2>
 8006ad4:	2301      	movs	r3, #1
 8006ad6:	4652      	mov	r2, sl
 8006ad8:	4641      	mov	r1, r8
 8006ada:	4638      	mov	r0, r7
 8006adc:	47c8      	blx	r9
 8006ade:	3001      	adds	r0, #1
 8006ae0:	d103      	bne.n	8006aea <_printf_common+0xb6>
 8006ae2:	f04f 30ff 	mov.w	r0, #4294967295
 8006ae6:	e8bd 87f0 	ldmia.w	sp!, {r4, r5, r6, r7, r8, r9, sl, pc}
 8006aea:	3501      	adds	r5, #1
 8006aec:	e7c1      	b.n	8006a72 <_printf_common+0x3e>
 8006aee:	2030      	movs	r0, #48	@ 0x30
 8006af0:	18e1      	adds	r1, r4, r3
 8006af2:	f881 0043 	strb.w	r0, [r1, #67]	@ 0x43
 8006af6:	1c5a      	adds	r2, r3, #1
 8006af8:	f894 1045 	ldrb.w	r1, [r4, #69]	@ 0x45
 8006afc:	4422      	add	r2, r4
 8006afe:	3302      	adds	r3, #2
 8006b00:	f882 1043 	strb.w	r1, [r2, #67]	@ 0x43
 8006b04:	e7c2      	b.n	8006a8c <_printf_common+0x58>
 8006b06:	2301      	movs	r3, #1
 8006b08:	4622      	mov	r2, r4
 8006b0a:	4641      	mov	r1, r8
 8006b0c:	4638      	mov	r0, r7
 8006b0e:	47c8      	blx	r9
 8006b10:	3001      	adds	r0, #1
 8006b12:	d0e6      	beq.n	8006ae2 <_printf_common+0xae>
 8006b14:	3601      	adds	r6, #1
 8006b16:	e7d9      	b.n	8006acc <_printf_common+0x98>

08006b18 <_printf_i>:
 8006b18:	e92d 47ff 	stmdb	sp!, {r0, r1, r2, r3, r4, r5, r6, r7, r8, r9, sl, lr}
 8006b1c:	7e0f      	ldrb	r7, [r1, #24]
 8006b1e:	4691      	mov	r9, r2
 8006b20:	2f78      	cmp	r7, #120	@ 0x78
 8006b22:	4680      	mov	r8, r0
 8006b24:	460c      	mov	r4, r1
 8006b26:	469a      	mov	sl, r3
 8006b28:	9e0c      	ldr	r6, [sp, #48]	@ 0x30
 8006b2a:	f101 0243 	add.w	r2, r1, #67	@ 0x43
 8006b2e:	d807      	bhi.n	8006b40 <_printf_i+0x28>
 8006b30:	2f62      	cmp	r7, #98	@ 0x62
 8006b32:	d80a      	bhi.n	8006b4a <_printf_i+0x32>
 8006b34:	2f00      	cmp	r7, #0
 8006b36:	f000 80d1 	beq.w	8006cdc <_printf_i+0x1c4>
 8006b3a:	2f58      	cmp	r7, #88	@ 0x58
 8006b3c:	f000 80b8 	beq.w	8006cb0 <_printf_i+0x198>
 8006b40:	f104 0642 	add.w	r6, r4, #66	@ 0x42
 8006b44:	f884 7042 	strb.w	r7, [r4, #66]	@ 0x42
 8006b48:	e03a      	b.n	8006bc0 <_printf_i+0xa8>
 8006b4a:	f1a7 0363 	sub.w	r3, r7, #99	@ 0x63
 8006b4e:	2b15      	cmp	r3, #21
 8006b50:	d8f6      	bhi.n	8006b40 <_printf_i+0x28>
 8006b52:	a101      	add	r1, pc, #4	@ (adr r1, 8006b58 <_printf_i+0x40>)
 8006b54:	f851 f023 	ldr.w	pc, [r1, r3, lsl #2]
 8006b58:	08006bb1 	.word	0x08006bb1
 8006b5c:	08006bc5 	.word	0x08006bc5
 8006b60:	08006b41 	.word	0x08006b41
 8006b64:	08006b41 	.word	0x08006b41
 8006b68:	08006b41 	.word	0x08006b41
 8006b6c:	08006b41 	.word	0x08006b41
 8006b70:	08006bc5 	.word	0x08006bc5
 8006b74:	08006b41 	.word	0x08006b41
 8006b78:	08006b41 	.word	0x08006b41
 8006b7c:	08006b41 	.word	0x08006b41
 8006b80:	08006b41 	.word	0x08006b41
 8006b84:	08006cc3 	.word	0x08006cc3
 8006b88:	08006bef 	.word	0x08006bef
 8006b8c:	08006c7d 	.word	0x08006c7d
 8006b90:	08006b41 	.word	0x08006b41
 8006b94:	08006b41 	.word	0x08006b41
 8006b98:	08006ce5 	.word	0x08006ce5
 8006b9c:	08006b41 	.word	0x08006b41
 8006ba0:	08006bef 	.word	0x08006bef
 8006ba4:	08006b41 	.word	0x08006b41
 8006ba8:	08006b41 	.word	0x08006b41
 8006bac:	08006c85 	.word	0x08006c85
 8006bb0:	6833      	ldr	r3, [r6, #0]
 8006bb2:	1d1a      	adds	r2, r3, #4
 8006bb4:	681b      	ldr	r3, [r3, #0]
 8006bb6:	6032      	str	r2, [r6, #0]
 8006bb8:	f104 0642 	add.w	r6, r4, #66	@ 0x42
 8006bbc:	f884 3042 	strb.w	r3, [r4, #66]	@ 0x42
 8006bc0:	2301      	movs	r3, #1
 8006bc2:	e09c      	b.n	8006cfe <_printf_i+0x1e6>
 8006bc4:	6833      	ldr	r3, [r6, #0]
 8006bc6:	6820      	ldr	r0, [r4, #0]
 8006bc8:	1d19      	adds	r1, r3, #4
 8006bca:	6031      	str	r1, [r6, #0]
 8006bcc:	0606      	lsls	r6, r0, #24
 8006bce:	d501      	bpl.n	8006bd4 <_printf_i+0xbc>
 8006bd0:	681d      	ldr	r5, [r3, #0]
 8006bd2:	e003      	b.n	8006bdc <_printf_i+0xc4>
 8006bd4:	0645      	lsls	r5, r0, #25
 8006bd6:	d5fb      	bpl.n	8006bd0 <_printf_i+0xb8>
 8006bd8:	f9b3 5000 	ldrsh.w	r5, [r3]
 8006bdc:	2d00      	cmp	r5, #0
 8006bde:	da03      	bge.n	8006be8 <_printf_i+0xd0>
 8006be0:	232d      	movs	r3, #45	@ 0x2d
 8006be2:	426d      	negs	r5, r5
 8006be4:	f884 3043 	strb.w	r3, [r4, #67]	@ 0x43
 8006be8:	230a      	movs	r3, #10
 8006bea:	4858      	ldr	r0, [pc, #352]	@ (8006d4c <_printf_i+0x234>)
 8006bec:	e011      	b.n	8006c12 <_printf_i+0xfa>
 8006bee:	6821      	ldr	r1, [r4, #0]
 8006bf0:	6833      	ldr	r3, [r6, #0]
 8006bf2:	0608      	lsls	r0, r1, #24
 8006bf4:	f853 5b04 	ldr.w	r5, [r3], #4
 8006bf8:	d402      	bmi.n	8006c00 <_printf_i+0xe8>
 8006bfa:	0649      	lsls	r1, r1, #25
 8006bfc:	bf48      	it	mi
 8006bfe:	b2ad      	uxthmi	r5, r5
 8006c00:	2f6f      	cmp	r7, #111	@ 0x6f
 8006c02:	6033      	str	r3, [r6, #0]
 8006c04:	bf14      	ite	ne
 8006c06:	230a      	movne	r3, #10
 8006c08:	2308      	moveq	r3, #8
 8006c0a:	4850      	ldr	r0, [pc, #320]	@ (8006d4c <_printf_i+0x234>)
 8006c0c:	2100      	movs	r1, #0
 8006c0e:	f884 1043 	strb.w	r1, [r4, #67]	@ 0x43
 8006c12:	6866      	ldr	r6, [r4, #4]
 8006c14:	2e00      	cmp	r6, #0
 8006c16:	60a6      	str	r6, [r4, #8]
 8006c18:	db05      	blt.n	8006c26 <_printf_i+0x10e>
 8006c1a:	6821      	ldr	r1, [r4, #0]
 8006c1c:	432e      	orrs	r6, r5
 8006c1e:	f021 0104 	bic.w	r1, r1, #4
 8006c22:	6021      	str	r1, [r4, #0]
 8006c24:	d04b      	beq.n	8006cbe <_printf_i+0x1a6>
 8006c26:	4616      	mov	r6, r2
 8006c28:	fbb5 f1f3 	udiv	r1, r5, r3
 8006c2c:	fb03 5711 	mls	r7, r3, r1, r5
 8006c30:	5dc7      	ldrb	r7, [r0, r7]
 8006c32:	f806 7d01 	strb.w	r7, [r6, #-1]!
 8006c36:	462f      	mov	r7, r5
 8006c38:	42bb      	cmp	r3, r7
 8006c3a:	460d      	mov	r5, r1
 8006c3c:	d9f4      	bls.n	8006c28 <_printf_i+0x110>
 8006c3e:	2b08      	cmp	r3, #8
 8006c40:	d10b      	bne.n	8006c5a <_printf_i+0x142>
 8006c42:	6823      	ldr	r3, [r4, #0]
 8006c44:	07df      	lsls	r7, r3, #31
 8006c46:	d508      	bpl.n	8006c5a <_printf_i+0x142>
 8006c48:	6923      	ldr	r3, [r4, #16]
 8006c4a:	6861      	ldr	r1, [r4, #4]
 8006c4c:	4299      	cmp	r1, r3
 8006c4e:	bfde      	ittt	le
 8006c50:	2330      	movle	r3, #48	@ 0x30
 8006c52:	f806 3c01 	strble.w	r3, [r6, #-1]
 8006c56:	f106 36ff 	addle.w	r6, r6, #4294967295
 8006c5a:	1b92      	subs	r2, r2, r6
 8006c5c:	6122      	str	r2, [r4, #16]
 8006c5e:	464b      	mov	r3, r9
 8006c60:	4621      	mov	r1, r4
 8006c62:	4640      	mov	r0, r8
 8006c64:	f8cd a000 	str.w	sl, [sp]
 8006c68:	aa03      	add	r2, sp, #12
 8006c6a:	f7ff fee3 	bl	8006a34 <_printf_common>
 8006c6e:	3001      	adds	r0, #1
 8006c70:	d14a      	bne.n	8006d08 <_printf_i+0x1f0>
 8006c72:	f04f 30ff 	mov.w	r0, #4294967295
 8006c76:	b004      	add	sp, #16
 8006c78:	e8bd 87f0 	ldmia.w	sp!, {r4, r5, r6, r7, r8, r9, sl, pc}
 8006c7c:	6823      	ldr	r3, [r4, #0]
 8006c7e:	f043 0320 	orr.w	r3, r3, #32
 8006c82:	6023      	str	r3, [r4, #0]
 8006c84:	2778      	movs	r7, #120	@ 0x78
 8006c86:	4832      	ldr	r0, [pc, #200]	@ (8006d50 <_printf_i+0x238>)
 8006c88:	f884 7045 	strb.w	r7, [r4, #69]	@ 0x45
 8006c8c:	6823      	ldr	r3, [r4, #0]
 8006c8e:	6831      	ldr	r1, [r6, #0]
 8006c90:	061f      	lsls	r7, r3, #24
 8006c92:	f851 5b04 	ldr.w	r5, [r1], #4
 8006c96:	d402      	bmi.n	8006c9e <_printf_i+0x186>
 8006c98:	065f      	lsls	r7, r3, #25
 8006c9a:	bf48      	it	mi
 8006c9c:	b2ad      	uxthmi	r5, r5
 8006c9e:	6031      	str	r1, [r6, #0]
 8006ca0:	07d9      	lsls	r1, r3, #31
 8006ca2:	bf44      	itt	mi
 8006ca4:	f043 0320 	orrmi.w	r3, r3, #32
 8006ca8:	6023      	strmi	r3, [r4, #0]
 8006caa:	b11d      	cbz	r5, 8006cb4 <_printf_i+0x19c>
 8006cac:	2310      	movs	r3, #16
 8006cae:	e7ad      	b.n	8006c0c <_printf_i+0xf4>
 8006cb0:	4826      	ldr	r0, [pc, #152]	@ (8006d4c <_printf_i+0x234>)
 8006cb2:	e7e9      	b.n	8006c88 <_printf_i+0x170>
 8006cb4:	6823      	ldr	r3, [r4, #0]
 8006cb6:	f023 0320 	bic.w	r3, r3, #32
 8006cba:	6023      	str	r3, [r4, #0]
 8006cbc:	e7f6      	b.n	8006cac <_printf_i+0x194>
 8006cbe:	4616      	mov	r6, r2
 8006cc0:	e7bd      	b.n	8006c3e <_printf_i+0x126>
 8006cc2:	6833      	ldr	r3, [r6, #0]
 8006cc4:	6825      	ldr	r5, [r4, #0]
 8006cc6:	1d18      	adds	r0, r3, #4
 8006cc8:	6961      	ldr	r1, [r4, #20]
 8006cca:	6030      	str	r0, [r6, #0]
 8006ccc:	062e      	lsls	r6, r5, #24
 8006cce:	681b      	ldr	r3, [r3, #0]
 8006cd0:	d501      	bpl.n	8006cd6 <_printf_i+0x1be>
 8006cd2:	6019      	str	r1, [r3, #0]
 8006cd4:	e002      	b.n	8006cdc <_printf_i+0x1c4>
 8006cd6:	0668      	lsls	r0, r5, #25
 8006cd8:	d5fb      	bpl.n	8006cd2 <_printf_i+0x1ba>
 8006cda:	8019      	strh	r1, [r3, #0]
 8006cdc:	2300      	movs	r3, #0
 8006cde:	4616      	mov	r6, r2
 8006ce0:	6123      	str	r3, [r4, #16]
 8006ce2:	e7bc      	b.n	8006c5e <_printf_i+0x146>
 8006ce4:	6833      	ldr	r3, [r6, #0]
 8006ce6:	2100      	movs	r1, #0
 8006ce8:	1d1a      	adds	r2, r3, #4
 8006cea:	6032      	str	r2, [r6, #0]
 8006cec:	681e      	ldr	r6, [r3, #0]
 8006cee:	6862      	ldr	r2, [r4, #4]
 8006cf0:	4630      	mov	r0, r6
 8006cf2:	f000 f907 	bl	8006f04 <memchr>
 8006cf6:	b108      	cbz	r0, 8006cfc <_printf_i+0x1e4>
 8006cf8:	1b80      	subs	r0, r0, r6
 8006cfa:	6060      	str	r0, [r4, #4]
 8006cfc:	6863      	ldr	r3, [r4, #4]
 8006cfe:	6123      	str	r3, [r4, #16]
 8006d00:	2300      	movs	r3, #0
 8006d02:	f884 3043 	strb.w	r3, [r4, #67]	@ 0x43
 8006d06:	e7aa      	b.n	8006c5e <_printf_i+0x146>
 8006d08:	4632      	mov	r2, r6
 8006d0a:	4649      	mov	r1, r9
 8006d0c:	4640      	mov	r0, r8
 8006d0e:	6923      	ldr	r3, [r4, #16]
 8006d10:	47d0      	blx	sl
 8006d12:	3001      	adds	r0, #1
 8006d14:	d0ad      	beq.n	8006c72 <_printf_i+0x15a>
 8006d16:	6823      	ldr	r3, [r4, #0]
 8006d18:	079b      	lsls	r3, r3, #30
 8006d1a:	d413      	bmi.n	8006d44 <_printf_i+0x22c>
 8006d1c:	68e0      	ldr	r0, [r4, #12]
 8006d1e:	9b03      	ldr	r3, [sp, #12]
 8006d20:	4298      	cmp	r0, r3
 8006d22:	bfb8      	it	lt
 8006d24:	4618      	movlt	r0, r3
 8006d26:	e7a6      	b.n	8006c76 <_printf_i+0x15e>
 8006d28:	2301      	movs	r3, #1
 8006d2a:	4632      	mov	r2, r6
 8006d2c:	4649      	mov	r1, r9
 8006d2e:	4640      	mov	r0, r8
 8006d30:	47d0      	blx	sl
 8006d32:	3001      	adds	r0, #1
 8006d34:	d09d      	beq.n	8006c72 <_printf_i+0x15a>
 8006d36:	3501      	adds	r5, #1
 8006d38:	68e3      	ldr	r3, [r4, #12]
 8006d3a:	9903      	ldr	r1, [sp, #12]
 8006d3c:	1a5b      	subs	r3, r3, r1
 8006d3e:	42ab      	cmp	r3, r5
 8006d40:	dcf2      	bgt.n	8006d28 <_printf_i+0x210>
 8006d42:	e7eb      	b.n	8006d1c <_printf_i+0x204>
 8006d44:	2500      	movs	r5, #0
 8006d46:	f104 0619 	add.w	r6, r4, #25
 8006d4a:	e7f5      	b.n	8006d38 <_printf_i+0x220>
 8006d4c:	080071e6 	.word	0x080071e6
 8006d50:	080071f7 	.word	0x080071f7

08006d54 <__swbuf_r>:
 8006d54:	b5f8      	push	{r3, r4, r5, r6, r7, lr}
 8006d56:	460e      	mov	r6, r1
 8006d58:	4614      	mov	r4, r2
 8006d5a:	4605      	mov	r5, r0
 8006d5c:	b118      	cbz	r0, 8006d66 <__swbuf_r+0x12>
 8006d5e:	6a03      	ldr	r3, [r0, #32]
 8006d60:	b90b      	cbnz	r3, 8006d66 <__swbuf_r+0x12>
 8006d62:	f7ff fa45 	bl	80061f0 <__sinit>
 8006d66:	69a3      	ldr	r3, [r4, #24]
 8006d68:	60a3      	str	r3, [r4, #8]
 8006d6a:	89a3      	ldrh	r3, [r4, #12]
 8006d6c:	071a      	lsls	r2, r3, #28
 8006d6e:	d501      	bpl.n	8006d74 <__swbuf_r+0x20>
 8006d70:	6923      	ldr	r3, [r4, #16]
 8006d72:	b943      	cbnz	r3, 8006d86 <__swbuf_r+0x32>
 8006d74:	4621      	mov	r1, r4
 8006d76:	4628      	mov	r0, r5
 8006d78:	f000 f82a 	bl	8006dd0 <__swsetup_r>
 8006d7c:	b118      	cbz	r0, 8006d86 <__swbuf_r+0x32>
 8006d7e:	f04f 37ff 	mov.w	r7, #4294967295
 8006d82:	4638      	mov	r0, r7
 8006d84:	bdf8      	pop	{r3, r4, r5, r6, r7, pc}
 8006d86:	6823      	ldr	r3, [r4, #0]
 8006d88:	6922      	ldr	r2, [r4, #16]
 8006d8a:	b2f6      	uxtb	r6, r6
 8006d8c:	1a98      	subs	r0, r3, r2
 8006d8e:	6963      	ldr	r3, [r4, #20]
 8006d90:	4637      	mov	r7, r6
 8006d92:	4283      	cmp	r3, r0
 8006d94:	dc05      	bgt.n	8006da2 <__swbuf_r+0x4e>
 8006d96:	4621      	mov	r1, r4
 8006d98:	4628      	mov	r0, r5
 8006d9a:	f7ff fcbb 	bl	8006714 <_fflush_r>
 8006d9e:	2800      	cmp	r0, #0
 8006da0:	d1ed      	bne.n	8006d7e <__swbuf_r+0x2a>
 8006da2:	68a3      	ldr	r3, [r4, #8]
 8006da4:	3b01      	subs	r3, #1
 8006da6:	60a3      	str	r3, [r4, #8]
 8006da8:	6823      	ldr	r3, [r4, #0]
 8006daa:	1c5a      	adds	r2, r3, #1
 8006dac:	6022      	str	r2, [r4, #0]
 8006dae:	701e      	strb	r6, [r3, #0]
 8006db0:	6962      	ldr	r2, [r4, #20]
 8006db2:	1c43      	adds	r3, r0, #1
 8006db4:	429a      	cmp	r2, r3
 8006db6:	d004      	beq.n	8006dc2 <__swbuf_r+0x6e>
 8006db8:	89a3      	ldrh	r3, [r4, #12]
 8006dba:	07db      	lsls	r3, r3, #31
 8006dbc:	d5e1      	bpl.n	8006d82 <__swbuf_r+0x2e>
 8006dbe:	2e0a      	cmp	r6, #10
 8006dc0:	d1df      	bne.n	8006d82 <__swbuf_r+0x2e>
 8006dc2:	4621      	mov	r1, r4
 8006dc4:	4628      	mov	r0, r5
 8006dc6:	f7ff fca5 	bl	8006714 <_fflush_r>
 8006dca:	2800      	cmp	r0, #0
 8006dcc:	d0d9      	beq.n	8006d82 <__swbuf_r+0x2e>
 8006dce:	e7d6      	b.n	8006d7e <__swbuf_r+0x2a>

08006dd0 <__swsetup_r>:
 8006dd0:	b538      	push	{r3, r4, r5, lr}
 8006dd2:	4b29      	ldr	r3, [pc, #164]	@ (8006e78 <__swsetup_r+0xa8>)
 8006dd4:	4605      	mov	r5, r0
 8006dd6:	6818      	ldr	r0, [r3, #0]
 8006dd8:	460c      	mov	r4, r1
 8006dda:	b118      	cbz	r0, 8006de4 <__swsetup_r+0x14>
 8006ddc:	6a03      	ldr	r3, [r0, #32]
 8006dde:	b90b      	cbnz	r3, 8006de4 <__swsetup_r+0x14>
 8006de0:	f7ff fa06 	bl	80061f0 <__sinit>
 8006de4:	f9b4 300c 	ldrsh.w	r3, [r4, #12]
 8006de8:	0719      	lsls	r1, r3, #28
 8006dea:	d422      	bmi.n	8006e32 <__swsetup_r+0x62>
 8006dec:	06da      	lsls	r2, r3, #27
 8006dee:	d407      	bmi.n	8006e00 <__swsetup_r+0x30>
 8006df0:	2209      	movs	r2, #9
 8006df2:	602a      	str	r2, [r5, #0]
 8006df4:	f043 0340 	orr.w	r3, r3, #64	@ 0x40
 8006df8:	f04f 30ff 	mov.w	r0, #4294967295
 8006dfc:	81a3      	strh	r3, [r4, #12]
 8006dfe:	e033      	b.n	8006e68 <__swsetup_r+0x98>
 8006e00:	0758      	lsls	r0, r3, #29
 8006e02:	d512      	bpl.n	8006e2a <__swsetup_r+0x5a>
 8006e04:	6b61      	ldr	r1, [r4, #52]	@ 0x34
 8006e06:	b141      	cbz	r1, 8006e1a <__swsetup_r+0x4a>
 8006e08:	f104 0344 	add.w	r3, r4, #68	@ 0x44
 8006e0c:	4299      	cmp	r1, r3
 8006e0e:	d002      	beq.n	8006e16 <__swsetup_r+0x46>
 8006e10:	4628      	mov	r0, r5
 8006e12:	f7ff fb01 	bl	8006418 <_free_r>
 8006e16:	2300      	movs	r3, #0
 8006e18:	6363      	str	r3, [r4, #52]	@ 0x34
 8006e1a:	89a3      	ldrh	r3, [r4, #12]
 8006e1c:	f023 0324 	bic.w	r3, r3, #36	@ 0x24
 8006e20:	81a3      	strh	r3, [r4, #12]
 8006e22:	2300      	movs	r3, #0
 8006e24:	6063      	str	r3, [r4, #4]
 8006e26:	6923      	ldr	r3, [r4, #16]
 8006e28:	6023      	str	r3, [r4, #0]
 8006e2a:	89a3      	ldrh	r3, [r4, #12]
 8006e2c:	f043 0308 	orr.w	r3, r3, #8
 8006e30:	81a3      	strh	r3, [r4, #12]
 8006e32:	6923      	ldr	r3, [r4, #16]
 8006e34:	b94b      	cbnz	r3, 8006e4a <__swsetup_r+0x7a>
 8006e36:	89a3      	ldrh	r3, [r4, #12]
 8006e38:	f403 7320 	and.w	r3, r3, #640	@ 0x280
 8006e3c:	f5b3 7f00 	cmp.w	r3, #512	@ 0x200
 8006e40:	d003      	beq.n	8006e4a <__swsetup_r+0x7a>
 8006e42:	4621      	mov	r1, r4
 8006e44:	4628      	mov	r0, r5
 8006e46:	f000 f890 	bl	8006f6a <__smakebuf_r>
 8006e4a:	f9b4 300c 	ldrsh.w	r3, [r4, #12]
 8006e4e:	f013 0201 	ands.w	r2, r3, #1
 8006e52:	d00a      	beq.n	8006e6a <__swsetup_r+0x9a>
 8006e54:	2200      	movs	r2, #0
 8006e56:	60a2      	str	r2, [r4, #8]
 8006e58:	6962      	ldr	r2, [r4, #20]
 8006e5a:	4252      	negs	r2, r2
 8006e5c:	61a2      	str	r2, [r4, #24]
 8006e5e:	6922      	ldr	r2, [r4, #16]
 8006e60:	b942      	cbnz	r2, 8006e74 <__swsetup_r+0xa4>
 8006e62:	f013 0080 	ands.w	r0, r3, #128	@ 0x80
 8006e66:	d1c5      	bne.n	8006df4 <__swsetup_r+0x24>
 8006e68:	bd38      	pop	{r3, r4, r5, pc}
 8006e6a:	0799      	lsls	r1, r3, #30
 8006e6c:	bf58      	it	pl
 8006e6e:	6962      	ldrpl	r2, [r4, #20]
 8006e70:	60a2      	str	r2, [r4, #8]
 8006e72:	e7f4      	b.n	8006e5e <__swsetup_r+0x8e>
 8006e74:	2000      	movs	r0, #0
 8006e76:	e7f7      	b.n	8006e68 <__swsetup_r+0x98>
 8006e78:	2000002c 	.word	0x2000002c

08006e7c <_raise_r>:
 8006e7c:	291f      	cmp	r1, #31
 8006e7e:	b538      	push	{r3, r4, r5, lr}
 8006e80:	4605      	mov	r5, r0
 8006e82:	460c      	mov	r4, r1
 8006e84:	d904      	bls.n	8006e90 <_raise_r+0x14>
 8006e86:	2316      	movs	r3, #22
 8006e88:	6003      	str	r3, [r0, #0]
 8006e8a:	f04f 30ff 	mov.w	r0, #4294967295
 8006e8e:	bd38      	pop	{r3, r4, r5, pc}
 8006e90:	6bc2      	ldr	r2, [r0, #60]	@ 0x3c
 8006e92:	b112      	cbz	r2, 8006e9a <_raise_r+0x1e>
 8006e94:	f852 3021 	ldr.w	r3, [r2, r1, lsl #2]
 8006e98:	b94b      	cbnz	r3, 8006eae <_raise_r+0x32>
 8006e9a:	4628      	mov	r0, r5
 8006e9c:	f000 f830 	bl	8006f00 <_getpid_r>
 8006ea0:	4622      	mov	r2, r4
 8006ea2:	4601      	mov	r1, r0
 8006ea4:	4628      	mov	r0, r5
 8006ea6:	e8bd 4038 	ldmia.w	sp!, {r3, r4, r5, lr}
 8006eaa:	f000 b817 	b.w	8006edc <_kill_r>
 8006eae:	2b01      	cmp	r3, #1
 8006eb0:	d00a      	beq.n	8006ec8 <_raise_r+0x4c>
 8006eb2:	1c59      	adds	r1, r3, #1
 8006eb4:	d103      	bne.n	8006ebe <_raise_r+0x42>
 8006eb6:	2316      	movs	r3, #22
 8006eb8:	6003      	str	r3, [r0, #0]
 8006eba:	2001      	movs	r0, #1
 8006ebc:	e7e7      	b.n	8006e8e <_raise_r+0x12>
 8006ebe:	2100      	movs	r1, #0
 8006ec0:	4620      	mov	r0, r4
 8006ec2:	f842 1024 	str.w	r1, [r2, r4, lsl #2]
 8006ec6:	4798      	blx	r3
 8006ec8:	2000      	movs	r0, #0
 8006eca:	e7e0      	b.n	8006e8e <_raise_r+0x12>

08006ecc <raise>:
 8006ecc:	4b02      	ldr	r3, [pc, #8]	@ (8006ed8 <raise+0xc>)
 8006ece:	4601      	mov	r1, r0
 8006ed0:	6818      	ldr	r0, [r3, #0]
 8006ed2:	f7ff bfd3 	b.w	8006e7c <_raise_r>
 8006ed6:	bf00      	nop
 8006ed8:	2000002c 	.word	0x2000002c

08006edc <_kill_r>:
 8006edc:	b538      	push	{r3, r4, r5, lr}
 8006ede:	2300      	movs	r3, #0
 8006ee0:	4d06      	ldr	r5, [pc, #24]	@ (8006efc <_kill_r+0x20>)
 8006ee2:	4604      	mov	r4, r0
 8006ee4:	4608      	mov	r0, r1
 8006ee6:	4611      	mov	r1, r2
 8006ee8:	602b      	str	r3, [r5, #0]
 8006eea:	f7fc fef6 	bl	8003cda <_kill>
 8006eee:	1c43      	adds	r3, r0, #1
 8006ef0:	d102      	bne.n	8006ef8 <_kill_r+0x1c>
 8006ef2:	682b      	ldr	r3, [r5, #0]
 8006ef4:	b103      	cbz	r3, 8006ef8 <_kill_r+0x1c>
 8006ef6:	6023      	str	r3, [r4, #0]
 8006ef8:	bd38      	pop	{r3, r4, r5, pc}
 8006efa:	bf00      	nop
 8006efc:	20000548 	.word	0x20000548

08006f00 <_getpid_r>:
 8006f00:	f7fc bee4 	b.w	8003ccc <_getpid>

08006f04 <memchr>:
 8006f04:	4603      	mov	r3, r0
 8006f06:	b510      	push	{r4, lr}
 8006f08:	b2c9      	uxtb	r1, r1
 8006f0a:	4402      	add	r2, r0
 8006f0c:	4293      	cmp	r3, r2
 8006f0e:	4618      	mov	r0, r3
 8006f10:	d101      	bne.n	8006f16 <memchr+0x12>
 8006f12:	2000      	movs	r0, #0
 8006f14:	e003      	b.n	8006f1e <memchr+0x1a>
 8006f16:	7804      	ldrb	r4, [r0, #0]
 8006f18:	3301      	adds	r3, #1
 8006f1a:	428c      	cmp	r4, r1
 8006f1c:	d1f6      	bne.n	8006f0c <memchr+0x8>
 8006f1e:	bd10      	pop	{r4, pc}

08006f20 <__swhatbuf_r>:
 8006f20:	b570      	push	{r4, r5, r6, lr}
 8006f22:	460c      	mov	r4, r1
 8006f24:	f9b1 100e 	ldrsh.w	r1, [r1, #14]
 8006f28:	4615      	mov	r5, r2
 8006f2a:	2900      	cmp	r1, #0
 8006f2c:	461e      	mov	r6, r3
 8006f2e:	b096      	sub	sp, #88	@ 0x58
 8006f30:	da0c      	bge.n	8006f4c <__swhatbuf_r+0x2c>
 8006f32:	89a3      	ldrh	r3, [r4, #12]
 8006f34:	2100      	movs	r1, #0
 8006f36:	f013 0f80 	tst.w	r3, #128	@ 0x80
 8006f3a:	bf14      	ite	ne
 8006f3c:	2340      	movne	r3, #64	@ 0x40
 8006f3e:	f44f 6380 	moveq.w	r3, #1024	@ 0x400
 8006f42:	2000      	movs	r0, #0
 8006f44:	6031      	str	r1, [r6, #0]
 8006f46:	602b      	str	r3, [r5, #0]
 8006f48:	b016      	add	sp, #88	@ 0x58
 8006f4a:	bd70      	pop	{r4, r5, r6, pc}
 8006f4c:	466a      	mov	r2, sp
 8006f4e:	f000 f849 	bl	8006fe4 <_fstat_r>
 8006f52:	2800      	cmp	r0, #0
 8006f54:	dbed      	blt.n	8006f32 <__swhatbuf_r+0x12>
 8006f56:	9901      	ldr	r1, [sp, #4]
 8006f58:	f401 4170 	and.w	r1, r1, #61440	@ 0xf000
 8006f5c:	f5a1 5300 	sub.w	r3, r1, #8192	@ 0x2000
 8006f60:	4259      	negs	r1, r3
 8006f62:	4159      	adcs	r1, r3
 8006f64:	f44f 6380 	mov.w	r3, #1024	@ 0x400
 8006f68:	e7eb      	b.n	8006f42 <__swhatbuf_r+0x22>

08006f6a <__smakebuf_r>:
 8006f6a:	898b      	ldrh	r3, [r1, #12]
 8006f6c:	b5f7      	push	{r0, r1, r2, r4, r5, r6, r7, lr}
 8006f6e:	079d      	lsls	r5, r3, #30
 8006f70:	4606      	mov	r6, r0
 8006f72:	460c      	mov	r4, r1
 8006f74:	d507      	bpl.n	8006f86 <__smakebuf_r+0x1c>
 8006f76:	f104 0347 	add.w	r3, r4, #71	@ 0x47
 8006f7a:	6023      	str	r3, [r4, #0]
 8006f7c:	6123      	str	r3, [r4, #16]
 8006f7e:	2301      	movs	r3, #1
 8006f80:	6163      	str	r3, [r4, #20]
 8006f82:	b003      	add	sp, #12
 8006f84:	bdf0      	pop	{r4, r5, r6, r7, pc}
 8006f86:	466a      	mov	r2, sp
 8006f88:	ab01      	add	r3, sp, #4
 8006f8a:	f7ff ffc9 	bl	8006f20 <__swhatbuf_r>
 8006f8e:	9f00      	ldr	r7, [sp, #0]
 8006f90:	4605      	mov	r5, r0
 8006f92:	4639      	mov	r1, r7
 8006f94:	4630      	mov	r0, r6
 8006f96:	f7ff fab1 	bl	80064fc <_malloc_r>
 8006f9a:	b948      	cbnz	r0, 8006fb0 <__smakebuf_r+0x46>
 8006f9c:	f9b4 300c 	ldrsh.w	r3, [r4, #12]
 8006fa0:	059a      	lsls	r2, r3, #22
 8006fa2:	d4ee      	bmi.n	8006f82 <__smakebuf_r+0x18>
 8006fa4:	f023 0303 	bic.w	r3, r3, #3
 8006fa8:	f043 0302 	orr.w	r3, r3, #2
 8006fac:	81a3      	strh	r3, [r4, #12]
 8006fae:	e7e2      	b.n	8006f76 <__smakebuf_r+0xc>
 8006fb0:	89a3      	ldrh	r3, [r4, #12]
 8006fb2:	e9c4 0704 	strd	r0, r7, [r4, #16]
 8006fb6:	f043 0380 	orr.w	r3, r3, #128	@ 0x80
 8006fba:	81a3      	strh	r3, [r4, #12]
 8006fbc:	9b01      	ldr	r3, [sp, #4]
 8006fbe:	6020      	str	r0, [r4, #0]
 8006fc0:	b15b      	cbz	r3, 8006fda <__smakebuf_r+0x70>
 8006fc2:	4630      	mov	r0, r6
 8006fc4:	f9b4 100e 	ldrsh.w	r1, [r4, #14]
 8006fc8:	f000 f81e 	bl	8007008 <_isatty_r>
 8006fcc:	b128      	cbz	r0, 8006fda <__smakebuf_r+0x70>
 8006fce:	89a3      	ldrh	r3, [r4, #12]
 8006fd0:	f023 0303 	bic.w	r3, r3, #3
 8006fd4:	f043 0301 	orr.w	r3, r3, #1
 8006fd8:	81a3      	strh	r3, [r4, #12]
 8006fda:	89a3      	ldrh	r3, [r4, #12]
 8006fdc:	431d      	orrs	r5, r3
 8006fde:	81a5      	strh	r5, [r4, #12]
 8006fe0:	e7cf      	b.n	8006f82 <__smakebuf_r+0x18>
	...

08006fe4 <_fstat_r>:
 8006fe4:	b538      	push	{r3, r4, r5, lr}
 8006fe6:	2300      	movs	r3, #0
 8006fe8:	4d06      	ldr	r5, [pc, #24]	@ (8007004 <_fstat_r+0x20>)
 8006fea:	4604      	mov	r4, r0
 8006fec:	4608      	mov	r0, r1
 8006fee:	4611      	mov	r1, r2
 8006ff0:	602b      	str	r3, [r5, #0]
 8006ff2:	f7fc fed1 	bl	8003d98 <_fstat>
 8006ff6:	1c43      	adds	r3, r0, #1
 8006ff8:	d102      	bne.n	8007000 <_fstat_r+0x1c>
 8006ffa:	682b      	ldr	r3, [r5, #0]
 8006ffc:	b103      	cbz	r3, 8007000 <_fstat_r+0x1c>
 8006ffe:	6023      	str	r3, [r4, #0]
 8007000:	bd38      	pop	{r3, r4, r5, pc}
 8007002:	bf00      	nop
 8007004:	20000548 	.word	0x20000548

08007008 <_isatty_r>:
 8007008:	b538      	push	{r3, r4, r5, lr}
 800700a:	2300      	movs	r3, #0
 800700c:	4d05      	ldr	r5, [pc, #20]	@ (8007024 <_isatty_r+0x1c>)
 800700e:	4604      	mov	r4, r0
 8007010:	4608      	mov	r0, r1
 8007012:	602b      	str	r3, [r5, #0]
 8007014:	f7fc fecf 	bl	8003db6 <_isatty>
 8007018:	1c43      	adds	r3, r0, #1
 800701a:	d102      	bne.n	8007022 <_isatty_r+0x1a>
 800701c:	682b      	ldr	r3, [r5, #0]
 800701e:	b103      	cbz	r3, 8007022 <_isatty_r+0x1a>
 8007020:	6023      	str	r3, [r4, #0]
 8007022:	bd38      	pop	{r3, r4, r5, pc}
 8007024:	20000548 	.word	0x20000548

08007028 <_init>:
 8007028:	b5f8      	push	{r3, r4, r5, r6, r7, lr}
 800702a:	bf00      	nop
 800702c:	bcf8      	pop	{r3, r4, r5, r6, r7}
 800702e:	bc08      	pop	{r3}
 8007030:	469e      	mov	lr, r3
 8007032:	4770      	bx	lr

08007034 <_fini>:
 8007034:	b5f8      	push	{r3, r4, r5, r6, r7, lr}
 8007036:	bf00      	nop
 8007038:	bcf8      	pop	{r3, r4, r5, r6, r7}
 800703a:	bc08      	pop	{r3}
 800703c:	469e      	mov	lr, r3
 800703e:	4770      	bx	lr
